
sun_follower.elf:     file format elf32-littlearm

Sections:
Idx Name          Size      VMA       LMA       File off  Algn
  0 .isr_vector   000000c0  08000000  08000000  00010000  2**0
                  CONTENTS, ALLOC, LOAD, READONLY, DATA
  1 .text         00006700  080000c0  080000c0  000100c0  2**2
                  CONTENTS, ALLOC, LOAD, READONLY, CODE
  2 .rodata       00000320  080067c0  080067c0  000167c0  2**3
                  CONTENTS, ALLOC, LOAD, READONLY, DATA
  3 .ARM.extab    00000000  08006ae0  08006ae0  00020070  2**0
                  CONTENTS
  4 .ARM          00000000  08006ae0  08006ae0  00020070  2**0
                  CONTENTS
  5 .preinit_array 00000000  08006ae0  08006ae0  00020070  2**0
                  CONTENTS, ALLOC, LOAD, DATA
  6 .init_array   00000004  08006ae0  08006ae0  00016ae0  2**2
                  CONTENTS, ALLOC, LOAD, DATA
  7 .fini_array   00000004  08006ae4  08006ae4  00016ae4  2**2
                  CONTENTS, ALLOC, LOAD, DATA
  8 .data         00000070  20000000  08006ae8  00020000  2**3
                  CONTENTS, ALLOC, LOAD, DATA
  9 .bss          000002d8  20000070  08006b58  00020070  2**2
                  ALLOC
 10 ._user_heap_stack 00000600  20000348  08006b58  00020348  2**0
                  ALLOC
 11 .ARM.attributes 00000028  00000000  00000000  00020070  2**0
                  CONTENTS, READONLY
 12 .comment      00000043  00000000  00000000  00020098  2**0
                  CONTENTS, READONLY
 13 .debug_frame  000006dc  00000000  00000000  000200dc  2**2
                  CONTENTS, READONLY, DEBUGGING, OCTETS

Disassembly of section .text:

080000c0 <__do_global_dtors_aux>:
 80000c0:	b510      	push	{r4, lr}
 80000c2:	4c06      	ldr	r4, [pc, #24]	; (80000dc <__do_global_dtors_aux+0x1c>)
 80000c4:	7823      	ldrb	r3, [r4, #0]
 80000c6:	2b00      	cmp	r3, #0
 80000c8:	d107      	bne.n	80000da <__do_global_dtors_aux+0x1a>
 80000ca:	4b05      	ldr	r3, [pc, #20]	; (80000e0 <__do_global_dtors_aux+0x20>)
 80000cc:	2b00      	cmp	r3, #0
 80000ce:	d002      	beq.n	80000d6 <__do_global_dtors_aux+0x16>
 80000d0:	4804      	ldr	r0, [pc, #16]	; (80000e4 <__do_global_dtors_aux+0x24>)
 80000d2:	e000      	b.n	80000d6 <__do_global_dtors_aux+0x16>
 80000d4:	bf00      	nop
 80000d6:	2301      	movs	r3, #1
 80000d8:	7023      	strb	r3, [r4, #0]
 80000da:	bd10      	pop	{r4, pc}
 80000dc:	20000070 	.word	0x20000070
 80000e0:	00000000 	.word	0x00000000
 80000e4:	080067a8 	.word	0x080067a8

080000e8 <frame_dummy>:
 80000e8:	4b04      	ldr	r3, [pc, #16]	; (80000fc <frame_dummy+0x14>)
 80000ea:	b510      	push	{r4, lr}
 80000ec:	2b00      	cmp	r3, #0
 80000ee:	d003      	beq.n	80000f8 <frame_dummy+0x10>
 80000f0:	4903      	ldr	r1, [pc, #12]	; (8000100 <frame_dummy+0x18>)
 80000f2:	4804      	ldr	r0, [pc, #16]	; (8000104 <frame_dummy+0x1c>)
 80000f4:	e000      	b.n	80000f8 <frame_dummy+0x10>
 80000f6:	bf00      	nop
 80000f8:	bd10      	pop	{r4, pc}
 80000fa:	46c0      	nop			; (mov r8, r8)
 80000fc:	00000000 	.word	0x00000000
 8000100:	20000074 	.word	0x20000074
 8000104:	080067a8 	.word	0x080067a8

08000108 <__gnu_thumb1_case_sqi>:
 8000108:	b402      	push	{r1}
 800010a:	4671      	mov	r1, lr
 800010c:	0849      	lsrs	r1, r1, #1
 800010e:	0049      	lsls	r1, r1, #1
 8000110:	5609      	ldrsb	r1, [r1, r0]
 8000112:	0049      	lsls	r1, r1, #1
 8000114:	448e      	add	lr, r1
 8000116:	bc02      	pop	{r1}
 8000118:	4770      	bx	lr
 800011a:	46c0      	nop			; (mov r8, r8)

0800011c <__gnu_thumb1_case_uqi>:
 800011c:	b402      	push	{r1}
 800011e:	4671      	mov	r1, lr
 8000120:	0849      	lsrs	r1, r1, #1
 8000122:	0049      	lsls	r1, r1, #1
 8000124:	5c09      	ldrb	r1, [r1, r0]
 8000126:	0049      	lsls	r1, r1, #1
 8000128:	448e      	add	lr, r1
 800012a:	bc02      	pop	{r1}
 800012c:	4770      	bx	lr
 800012e:	46c0      	nop			; (mov r8, r8)

08000130 <__gnu_thumb1_case_uhi>:
 8000130:	b403      	push	{r0, r1}
 8000132:	4671      	mov	r1, lr
 8000134:	0849      	lsrs	r1, r1, #1
 8000136:	0040      	lsls	r0, r0, #1
 8000138:	0049      	lsls	r1, r1, #1
 800013a:	5a09      	ldrh	r1, [r1, r0]
 800013c:	0049      	lsls	r1, r1, #1
 800013e:	448e      	add	lr, r1
 8000140:	bc03      	pop	{r0, r1}
 8000142:	4770      	bx	lr

08000144 <__udivsi3>:
 8000144:	2200      	movs	r2, #0
 8000146:	0843      	lsrs	r3, r0, #1
 8000148:	428b      	cmp	r3, r1
 800014a:	d374      	bcc.n	8000236 <__udivsi3+0xf2>
 800014c:	0903      	lsrs	r3, r0, #4
 800014e:	428b      	cmp	r3, r1
 8000150:	d35f      	bcc.n	8000212 <__udivsi3+0xce>
 8000152:	0a03      	lsrs	r3, r0, #8
 8000154:	428b      	cmp	r3, r1
 8000156:	d344      	bcc.n	80001e2 <__udivsi3+0x9e>
 8000158:	0b03      	lsrs	r3, r0, #12
 800015a:	428b      	cmp	r3, r1
 800015c:	d328      	bcc.n	80001b0 <__udivsi3+0x6c>
 800015e:	0c03      	lsrs	r3, r0, #16
 8000160:	428b      	cmp	r3, r1
 8000162:	d30d      	bcc.n	8000180 <__udivsi3+0x3c>
 8000164:	22ff      	movs	r2, #255	; 0xff
 8000166:	0209      	lsls	r1, r1, #8
 8000168:	ba12      	rev	r2, r2
 800016a:	0c03      	lsrs	r3, r0, #16
 800016c:	428b      	cmp	r3, r1
 800016e:	d302      	bcc.n	8000176 <__udivsi3+0x32>
 8000170:	1212      	asrs	r2, r2, #8
 8000172:	0209      	lsls	r1, r1, #8
 8000174:	d065      	beq.n	8000242 <__udivsi3+0xfe>
 8000176:	0b03      	lsrs	r3, r0, #12
 8000178:	428b      	cmp	r3, r1
 800017a:	d319      	bcc.n	80001b0 <__udivsi3+0x6c>
 800017c:	e000      	b.n	8000180 <__udivsi3+0x3c>
 800017e:	0a09      	lsrs	r1, r1, #8
 8000180:	0bc3      	lsrs	r3, r0, #15
 8000182:	428b      	cmp	r3, r1
 8000184:	d301      	bcc.n	800018a <__udivsi3+0x46>
 8000186:	03cb      	lsls	r3, r1, #15
 8000188:	1ac0      	subs	r0, r0, r3
 800018a:	4152      	adcs	r2, r2
 800018c:	0b83      	lsrs	r3, r0, #14
 800018e:	428b      	cmp	r3, r1
 8000190:	d301      	bcc.n	8000196 <__udivsi3+0x52>
 8000192:	038b      	lsls	r3, r1, #14
 8000194:	1ac0      	subs	r0, r0, r3
 8000196:	4152      	adcs	r2, r2
 8000198:	0b43      	lsrs	r3, r0, #13
 800019a:	428b      	cmp	r3, r1
 800019c:	d301      	bcc.n	80001a2 <__udivsi3+0x5e>
 800019e:	034b      	lsls	r3, r1, #13
 80001a0:	1ac0      	subs	r0, r0, r3
 80001a2:	4152      	adcs	r2, r2
 80001a4:	0b03      	lsrs	r3, r0, #12
 80001a6:	428b      	cmp	r3, r1
 80001a8:	d301      	bcc.n	80001ae <__udivsi3+0x6a>
 80001aa:	030b      	lsls	r3, r1, #12
 80001ac:	1ac0      	subs	r0, r0, r3
 80001ae:	4152      	adcs	r2, r2
 80001b0:	0ac3      	lsrs	r3, r0, #11
 80001b2:	428b      	cmp	r3, r1
 80001b4:	d301      	bcc.n	80001ba <__udivsi3+0x76>
 80001b6:	02cb      	lsls	r3, r1, #11
 80001b8:	1ac0      	subs	r0, r0, r3
 80001ba:	4152      	adcs	r2, r2
 80001bc:	0a83      	lsrs	r3, r0, #10
 80001be:	428b      	cmp	r3, r1
 80001c0:	d301      	bcc.n	80001c6 <__udivsi3+0x82>
 80001c2:	028b      	lsls	r3, r1, #10
 80001c4:	1ac0      	subs	r0, r0, r3
 80001c6:	4152      	adcs	r2, r2
 80001c8:	0a43      	lsrs	r3, r0, #9
 80001ca:	428b      	cmp	r3, r1
 80001cc:	d301      	bcc.n	80001d2 <__udivsi3+0x8e>
 80001ce:	024b      	lsls	r3, r1, #9
 80001d0:	1ac0      	subs	r0, r0, r3
 80001d2:	4152      	adcs	r2, r2
 80001d4:	0a03      	lsrs	r3, r0, #8
 80001d6:	428b      	cmp	r3, r1
 80001d8:	d301      	bcc.n	80001de <__udivsi3+0x9a>
 80001da:	020b      	lsls	r3, r1, #8
 80001dc:	1ac0      	subs	r0, r0, r3
 80001de:	4152      	adcs	r2, r2
 80001e0:	d2cd      	bcs.n	800017e <__udivsi3+0x3a>
 80001e2:	09c3      	lsrs	r3, r0, #7
 80001e4:	428b      	cmp	r3, r1
 80001e6:	d301      	bcc.n	80001ec <__udivsi3+0xa8>
 80001e8:	01cb      	lsls	r3, r1, #7
 80001ea:	1ac0      	subs	r0, r0, r3
 80001ec:	4152      	adcs	r2, r2
 80001ee:	0983      	lsrs	r3, r0, #6
 80001f0:	428b      	cmp	r3, r1
 80001f2:	d301      	bcc.n	80001f8 <__udivsi3+0xb4>
 80001f4:	018b      	lsls	r3, r1, #6
 80001f6:	1ac0      	subs	r0, r0, r3
 80001f8:	4152      	adcs	r2, r2
 80001fa:	0943      	lsrs	r3, r0, #5
 80001fc:	428b      	cmp	r3, r1
 80001fe:	d301      	bcc.n	8000204 <__udivsi3+0xc0>
 8000200:	014b      	lsls	r3, r1, #5
 8000202:	1ac0      	subs	r0, r0, r3
 8000204:	4152      	adcs	r2, r2
 8000206:	0903      	lsrs	r3, r0, #4
 8000208:	428b      	cmp	r3, r1
 800020a:	d301      	bcc.n	8000210 <__udivsi3+0xcc>
 800020c:	010b      	lsls	r3, r1, #4
 800020e:	1ac0      	subs	r0, r0, r3
 8000210:	4152      	adcs	r2, r2
 8000212:	08c3      	lsrs	r3, r0, #3
 8000214:	428b      	cmp	r3, r1
 8000216:	d301      	bcc.n	800021c <__udivsi3+0xd8>
 8000218:	00cb      	lsls	r3, r1, #3
 800021a:	1ac0      	subs	r0, r0, r3
 800021c:	4152      	adcs	r2, r2
 800021e:	0883      	lsrs	r3, r0, #2
 8000220:	428b      	cmp	r3, r1
 8000222:	d301      	bcc.n	8000228 <__udivsi3+0xe4>
 8000224:	008b      	lsls	r3, r1, #2
 8000226:	1ac0      	subs	r0, r0, r3
 8000228:	4152      	adcs	r2, r2
 800022a:	0843      	lsrs	r3, r0, #1
 800022c:	428b      	cmp	r3, r1
 800022e:	d301      	bcc.n	8000234 <__udivsi3+0xf0>
 8000230:	004b      	lsls	r3, r1, #1
 8000232:	1ac0      	subs	r0, r0, r3
 8000234:	4152      	adcs	r2, r2
 8000236:	1a41      	subs	r1, r0, r1
 8000238:	d200      	bcs.n	800023c <__udivsi3+0xf8>
 800023a:	4601      	mov	r1, r0
 800023c:	4152      	adcs	r2, r2
 800023e:	4610      	mov	r0, r2
 8000240:	4770      	bx	lr
 8000242:	e7ff      	b.n	8000244 <__udivsi3+0x100>
 8000244:	b501      	push	{r0, lr}
 8000246:	2000      	movs	r0, #0
 8000248:	f000 f8f0 	bl	800042c <__aeabi_idiv0>
 800024c:	bd02      	pop	{r1, pc}
 800024e:	46c0      	nop			; (mov r8, r8)

08000250 <__aeabi_uidivmod>:
 8000250:	2900      	cmp	r1, #0
 8000252:	d0f7      	beq.n	8000244 <__udivsi3+0x100>
 8000254:	e776      	b.n	8000144 <__udivsi3>
 8000256:	4770      	bx	lr

08000258 <__divsi3>:
 8000258:	4603      	mov	r3, r0
 800025a:	430b      	orrs	r3, r1
 800025c:	d47f      	bmi.n	800035e <__divsi3+0x106>
 800025e:	2200      	movs	r2, #0
 8000260:	0843      	lsrs	r3, r0, #1
 8000262:	428b      	cmp	r3, r1
 8000264:	d374      	bcc.n	8000350 <__divsi3+0xf8>
 8000266:	0903      	lsrs	r3, r0, #4
 8000268:	428b      	cmp	r3, r1
 800026a:	d35f      	bcc.n	800032c <__divsi3+0xd4>
 800026c:	0a03      	lsrs	r3, r0, #8
 800026e:	428b      	cmp	r3, r1
 8000270:	d344      	bcc.n	80002fc <__divsi3+0xa4>
 8000272:	0b03      	lsrs	r3, r0, #12
 8000274:	428b      	cmp	r3, r1
 8000276:	d328      	bcc.n	80002ca <__divsi3+0x72>
 8000278:	0c03      	lsrs	r3, r0, #16
 800027a:	428b      	cmp	r3, r1
 800027c:	d30d      	bcc.n	800029a <__divsi3+0x42>
 800027e:	22ff      	movs	r2, #255	; 0xff
 8000280:	0209      	lsls	r1, r1, #8
 8000282:	ba12      	rev	r2, r2
 8000284:	0c03      	lsrs	r3, r0, #16
 8000286:	428b      	cmp	r3, r1
 8000288:	d302      	bcc.n	8000290 <__divsi3+0x38>
 800028a:	1212      	asrs	r2, r2, #8
 800028c:	0209      	lsls	r1, r1, #8
 800028e:	d065      	beq.n	800035c <__divsi3+0x104>
 8000290:	0b03      	lsrs	r3, r0, #12
 8000292:	428b      	cmp	r3, r1
 8000294:	d319      	bcc.n	80002ca <__divsi3+0x72>
 8000296:	e000      	b.n	800029a <__divsi3+0x42>
 8000298:	0a09      	lsrs	r1, r1, #8
 800029a:	0bc3      	lsrs	r3, r0, #15
 800029c:	428b      	cmp	r3, r1
 800029e:	d301      	bcc.n	80002a4 <__divsi3+0x4c>
 80002a0:	03cb      	lsls	r3, r1, #15
 80002a2:	1ac0      	subs	r0, r0, r3
 80002a4:	4152      	adcs	r2, r2
 80002a6:	0b83      	lsrs	r3, r0, #14
 80002a8:	428b      	cmp	r3, r1
 80002aa:	d301      	bcc.n	80002b0 <__divsi3+0x58>
 80002ac:	038b      	lsls	r3, r1, #14
 80002ae:	1ac0      	subs	r0, r0, r3
 80002b0:	4152      	adcs	r2, r2
 80002b2:	0b43      	lsrs	r3, r0, #13
 80002b4:	428b      	cmp	r3, r1
 80002b6:	d301      	bcc.n	80002bc <__divsi3+0x64>
 80002b8:	034b      	lsls	r3, r1, #13
 80002ba:	1ac0      	subs	r0, r0, r3
 80002bc:	4152      	adcs	r2, r2
 80002be:	0b03      	lsrs	r3, r0, #12
 80002c0:	428b      	cmp	r3, r1
 80002c2:	d301      	bcc.n	80002c8 <__divsi3+0x70>
 80002c4:	030b      	lsls	r3, r1, #12
 80002c6:	1ac0      	subs	r0, r0, r3
 80002c8:	4152      	adcs	r2, r2
 80002ca:	0ac3      	lsrs	r3, r0, #11
 80002cc:	428b      	cmp	r3, r1
 80002ce:	d301      	bcc.n	80002d4 <__divsi3+0x7c>
 80002d0:	02cb      	lsls	r3, r1, #11
 80002d2:	1ac0      	subs	r0, r0, r3
 80002d4:	4152      	adcs	r2, r2
 80002d6:	0a83      	lsrs	r3, r0, #10
 80002d8:	428b      	cmp	r3, r1
 80002da:	d301      	bcc.n	80002e0 <__divsi3+0x88>
 80002dc:	028b      	lsls	r3, r1, #10
 80002de:	1ac0      	subs	r0, r0, r3
 80002e0:	4152      	adcs	r2, r2
 80002e2:	0a43      	lsrs	r3, r0, #9
 80002e4:	428b      	cmp	r3, r1
 80002e6:	d301      	bcc.n	80002ec <__divsi3+0x94>
 80002e8:	024b      	lsls	r3, r1, #9
 80002ea:	1ac0      	subs	r0, r0, r3
 80002ec:	4152      	adcs	r2, r2
 80002ee:	0a03      	lsrs	r3, r0, #8
 80002f0:	428b      	cmp	r3, r1
 80002f2:	d301      	bcc.n	80002f8 <__divsi3+0xa0>
 80002f4:	020b      	lsls	r3, r1, #8
 80002f6:	1ac0      	subs	r0, r0, r3
 80002f8:	4152      	adcs	r2, r2
 80002fa:	d2cd      	bcs.n	8000298 <__divsi3+0x40>
 80002fc:	09c3      	lsrs	r3, r0, #7
 80002fe:	428b      	cmp	r3, r1
 8000300:	d301      	bcc.n	8000306 <__divsi3+0xae>
 8000302:	01cb      	lsls	r3, r1, #7
 8000304:	1ac0      	subs	r0, r0, r3
 8000306:	4152      	adcs	r2, r2
 8000308:	0983      	lsrs	r3, r0, #6
 800030a:	428b      	cmp	r3, r1
 800030c:	d301      	bcc.n	8000312 <__divsi3+0xba>
 800030e:	018b      	lsls	r3, r1, #6
 8000310:	1ac0      	subs	r0, r0, r3
 8000312:	4152      	adcs	r2, r2
 8000314:	0943      	lsrs	r3, r0, #5
 8000316:	428b      	cmp	r3, r1
 8000318:	d301      	bcc.n	800031e <__divsi3+0xc6>
 800031a:	014b      	lsls	r3, r1, #5
 800031c:	1ac0      	subs	r0, r0, r3
 800031e:	4152      	adcs	r2, r2
 8000320:	0903      	lsrs	r3, r0, #4
 8000322:	428b      	cmp	r3, r1
 8000324:	d301      	bcc.n	800032a <__divsi3+0xd2>
 8000326:	010b      	lsls	r3, r1, #4
 8000328:	1ac0      	subs	r0, r0, r3
 800032a:	4152      	adcs	r2, r2
 800032c:	08c3      	lsrs	r3, r0, #3
 800032e:	428b      	cmp	r3, r1
 8000330:	d301      	bcc.n	8000336 <__divsi3+0xde>
 8000332:	00cb      	lsls	r3, r1, #3
 8000334:	1ac0      	subs	r0, r0, r3
 8000336:	4152      	adcs	r2, r2
 8000338:	0883      	lsrs	r3, r0, #2
 800033a:	428b      	cmp	r3, r1
 800033c:	d301      	bcc.n	8000342 <__divsi3+0xea>
 800033e:	008b      	lsls	r3, r1, #2
 8000340:	1ac0      	subs	r0, r0, r3
 8000342:	4152      	adcs	r2, r2
 8000344:	0843      	lsrs	r3, r0, #1
 8000346:	428b      	cmp	r3, r1
 8000348:	d301      	bcc.n	800034e <__divsi3+0xf6>
 800034a:	004b      	lsls	r3, r1, #1
 800034c:	1ac0      	subs	r0, r0, r3
 800034e:	4152      	adcs	r2, r2
 8000350:	1a41      	subs	r1, r0, r1
 8000352:	d200      	bcs.n	8000356 <__divsi3+0xfe>
 8000354:	4601      	mov	r1, r0
 8000356:	4152      	adcs	r2, r2
 8000358:	4610      	mov	r0, r2
 800035a:	4770      	bx	lr
 800035c:	e05d      	b.n	800041a <__divsi3+0x1c2>
 800035e:	0fca      	lsrs	r2, r1, #31
 8000360:	d000      	beq.n	8000364 <__divsi3+0x10c>
 8000362:	4249      	negs	r1, r1
 8000364:	1003      	asrs	r3, r0, #32
 8000366:	d300      	bcc.n	800036a <__divsi3+0x112>
 8000368:	4240      	negs	r0, r0
 800036a:	4053      	eors	r3, r2
 800036c:	2200      	movs	r2, #0
 800036e:	469c      	mov	ip, r3
 8000370:	0903      	lsrs	r3, r0, #4
 8000372:	428b      	cmp	r3, r1
 8000374:	d32d      	bcc.n	80003d2 <__divsi3+0x17a>
 8000376:	0a03      	lsrs	r3, r0, #8
 8000378:	428b      	cmp	r3, r1
 800037a:	d312      	bcc.n	80003a2 <__divsi3+0x14a>
 800037c:	22fc      	movs	r2, #252	; 0xfc
 800037e:	0189      	lsls	r1, r1, #6
 8000380:	ba12      	rev	r2, r2
 8000382:	0a03      	lsrs	r3, r0, #8
 8000384:	428b      	cmp	r3, r1
 8000386:	d30c      	bcc.n	80003a2 <__divsi3+0x14a>
 8000388:	0189      	lsls	r1, r1, #6
 800038a:	1192      	asrs	r2, r2, #6
 800038c:	428b      	cmp	r3, r1
 800038e:	d308      	bcc.n	80003a2 <__divsi3+0x14a>
 8000390:	0189      	lsls	r1, r1, #6
 8000392:	1192      	asrs	r2, r2, #6
 8000394:	428b      	cmp	r3, r1
 8000396:	d304      	bcc.n	80003a2 <__divsi3+0x14a>
 8000398:	0189      	lsls	r1, r1, #6
 800039a:	d03a      	beq.n	8000412 <__divsi3+0x1ba>
 800039c:	1192      	asrs	r2, r2, #6
 800039e:	e000      	b.n	80003a2 <__divsi3+0x14a>
 80003a0:	0989      	lsrs	r1, r1, #6
 80003a2:	09c3      	lsrs	r3, r0, #7
 80003a4:	428b      	cmp	r3, r1
 80003a6:	d301      	bcc.n	80003ac <__divsi3+0x154>
 80003a8:	01cb      	lsls	r3, r1, #7
 80003aa:	1ac0      	subs	r0, r0, r3
 80003ac:	4152      	adcs	r2, r2
 80003ae:	0983      	lsrs	r3, r0, #6
 80003b0:	428b      	cmp	r3, r1
 80003b2:	d301      	bcc.n	80003b8 <__divsi3+0x160>
 80003b4:	018b      	lsls	r3, r1, #6
 80003b6:	1ac0      	subs	r0, r0, r3
 80003b8:	4152      	adcs	r2, r2
 80003ba:	0943      	lsrs	r3, r0, #5
 80003bc:	428b      	cmp	r3, r1
 80003be:	d301      	bcc.n	80003c4 <__divsi3+0x16c>
 80003c0:	014b      	lsls	r3, r1, #5
 80003c2:	1ac0      	subs	r0, r0, r3
 80003c4:	4152      	adcs	r2, r2
 80003c6:	0903      	lsrs	r3, r0, #4
 80003c8:	428b      	cmp	r3, r1
 80003ca:	d301      	bcc.n	80003d0 <__divsi3+0x178>
 80003cc:	010b      	lsls	r3, r1, #4
 80003ce:	1ac0      	subs	r0, r0, r3
 80003d0:	4152      	adcs	r2, r2
 80003d2:	08c3      	lsrs	r3, r0, #3
 80003d4:	428b      	cmp	r3, r1
 80003d6:	d301      	bcc.n	80003dc <__divsi3+0x184>
 80003d8:	00cb      	lsls	r3, r1, #3
 80003da:	1ac0      	subs	r0, r0, r3
 80003dc:	4152      	adcs	r2, r2
 80003de:	0883      	lsrs	r3, r0, #2
 80003e0:	428b      	cmp	r3, r1
 80003e2:	d301      	bcc.n	80003e8 <__divsi3+0x190>
 80003e4:	008b      	lsls	r3, r1, #2
 80003e6:	1ac0      	subs	r0, r0, r3
 80003e8:	4152      	adcs	r2, r2
 80003ea:	d2d9      	bcs.n	80003a0 <__divsi3+0x148>
 80003ec:	0843      	lsrs	r3, r0, #1
 80003ee:	428b      	cmp	r3, r1
 80003f0:	d301      	bcc.n	80003f6 <__divsi3+0x19e>
 80003f2:	004b      	lsls	r3, r1, #1
 80003f4:	1ac0      	subs	r0, r0, r3
 80003f6:	4152      	adcs	r2, r2
 80003f8:	1a41      	subs	r1, r0, r1
 80003fa:	d200      	bcs.n	80003fe <__divsi3+0x1a6>
 80003fc:	4601      	mov	r1, r0
 80003fe:	4663      	mov	r3, ip
 8000400:	4152      	adcs	r2, r2
 8000402:	105b      	asrs	r3, r3, #1
 8000404:	4610      	mov	r0, r2
 8000406:	d301      	bcc.n	800040c <__divsi3+0x1b4>
 8000408:	4240      	negs	r0, r0
 800040a:	2b00      	cmp	r3, #0
 800040c:	d500      	bpl.n	8000410 <__divsi3+0x1b8>
 800040e:	4249      	negs	r1, r1
 8000410:	4770      	bx	lr
 8000412:	4663      	mov	r3, ip
 8000414:	105b      	asrs	r3, r3, #1
 8000416:	d300      	bcc.n	800041a <__divsi3+0x1c2>
 8000418:	4240      	negs	r0, r0
 800041a:	b501      	push	{r0, lr}
 800041c:	2000      	movs	r0, #0
 800041e:	f000 f805 	bl	800042c <__aeabi_idiv0>
 8000422:	bd02      	pop	{r1, pc}

08000424 <__aeabi_idivmod>:
 8000424:	2900      	cmp	r1, #0
 8000426:	d0f8      	beq.n	800041a <__divsi3+0x1c2>
 8000428:	e716      	b.n	8000258 <__divsi3>
 800042a:	4770      	bx	lr

0800042c <__aeabi_idiv0>:
 800042c:	4770      	bx	lr
 800042e:	46c0      	nop			; (mov r8, r8)

08000430 <__aeabi_cdrcmple>:
 8000430:	4684      	mov	ip, r0
 8000432:	0010      	movs	r0, r2
 8000434:	4662      	mov	r2, ip
 8000436:	468c      	mov	ip, r1
 8000438:	0019      	movs	r1, r3
 800043a:	4663      	mov	r3, ip
 800043c:	e000      	b.n	8000440 <__aeabi_cdcmpeq>
 800043e:	46c0      	nop			; (mov r8, r8)

08000440 <__aeabi_cdcmpeq>:
 8000440:	b51f      	push	{r0, r1, r2, r3, r4, lr}
 8000442:	f000 ff29 	bl	8001298 <__ledf2>
 8000446:	2800      	cmp	r0, #0
 8000448:	d401      	bmi.n	800044e <__aeabi_cdcmpeq+0xe>
 800044a:	2100      	movs	r1, #0
 800044c:	42c8      	cmn	r0, r1
 800044e:	bd1f      	pop	{r0, r1, r2, r3, r4, pc}

08000450 <__aeabi_dcmpeq>:
 8000450:	b510      	push	{r4, lr}
 8000452:	f000 fe79 	bl	8001148 <__eqdf2>
 8000456:	4240      	negs	r0, r0
 8000458:	3001      	adds	r0, #1
 800045a:	bd10      	pop	{r4, pc}

0800045c <__aeabi_dcmplt>:
 800045c:	b510      	push	{r4, lr}
 800045e:	f000 ff1b 	bl	8001298 <__ledf2>
 8000462:	2800      	cmp	r0, #0
 8000464:	db01      	blt.n	800046a <__aeabi_dcmplt+0xe>
 8000466:	2000      	movs	r0, #0
 8000468:	bd10      	pop	{r4, pc}
 800046a:	2001      	movs	r0, #1
 800046c:	bd10      	pop	{r4, pc}
 800046e:	46c0      	nop			; (mov r8, r8)

08000470 <__aeabi_dcmple>:
 8000470:	b510      	push	{r4, lr}
 8000472:	f000 ff11 	bl	8001298 <__ledf2>
 8000476:	2800      	cmp	r0, #0
 8000478:	dd01      	ble.n	800047e <__aeabi_dcmple+0xe>
 800047a:	2000      	movs	r0, #0
 800047c:	bd10      	pop	{r4, pc}
 800047e:	2001      	movs	r0, #1
 8000480:	bd10      	pop	{r4, pc}
 8000482:	46c0      	nop			; (mov r8, r8)

08000484 <__aeabi_dcmpgt>:
 8000484:	b510      	push	{r4, lr}
 8000486:	f000 fea1 	bl	80011cc <__gedf2>
 800048a:	2800      	cmp	r0, #0
 800048c:	dc01      	bgt.n	8000492 <__aeabi_dcmpgt+0xe>
 800048e:	2000      	movs	r0, #0
 8000490:	bd10      	pop	{r4, pc}
 8000492:	2001      	movs	r0, #1
 8000494:	bd10      	pop	{r4, pc}
 8000496:	46c0      	nop			; (mov r8, r8)

08000498 <__aeabi_dcmpge>:
 8000498:	b510      	push	{r4, lr}
 800049a:	f000 fe97 	bl	80011cc <__gedf2>
 800049e:	2800      	cmp	r0, #0
 80004a0:	da01      	bge.n	80004a6 <__aeabi_dcmpge+0xe>
 80004a2:	2000      	movs	r0, #0
 80004a4:	bd10      	pop	{r4, pc}
 80004a6:	2001      	movs	r0, #1
 80004a8:	bd10      	pop	{r4, pc}
 80004aa:	46c0      	nop			; (mov r8, r8)

080004ac <__aeabi_dadd>:
 80004ac:	b5f0      	push	{r4, r5, r6, r7, lr}
 80004ae:	464f      	mov	r7, r9
 80004b0:	4646      	mov	r6, r8
 80004b2:	46d6      	mov	lr, sl
 80004b4:	0004      	movs	r4, r0
 80004b6:	b5c0      	push	{r6, r7, lr}
 80004b8:	001f      	movs	r7, r3
 80004ba:	030b      	lsls	r3, r1, #12
 80004bc:	0010      	movs	r0, r2
 80004be:	004e      	lsls	r6, r1, #1
 80004c0:	0a5b      	lsrs	r3, r3, #9
 80004c2:	0fcd      	lsrs	r5, r1, #31
 80004c4:	0f61      	lsrs	r1, r4, #29
 80004c6:	007a      	lsls	r2, r7, #1
 80004c8:	4319      	orrs	r1, r3
 80004ca:	00e3      	lsls	r3, r4, #3
 80004cc:	033c      	lsls	r4, r7, #12
 80004ce:	0fff      	lsrs	r7, r7, #31
 80004d0:	46bc      	mov	ip, r7
 80004d2:	0a64      	lsrs	r4, r4, #9
 80004d4:	0f47      	lsrs	r7, r0, #29
 80004d6:	4327      	orrs	r7, r4
 80004d8:	0d76      	lsrs	r6, r6, #21
 80004da:	0d52      	lsrs	r2, r2, #21
 80004dc:	00c0      	lsls	r0, r0, #3
 80004de:	46b9      	mov	r9, r7
 80004e0:	4680      	mov	r8, r0
 80004e2:	1ab7      	subs	r7, r6, r2
 80004e4:	4565      	cmp	r5, ip
 80004e6:	d100      	bne.n	80004ea <__aeabi_dadd+0x3e>
 80004e8:	e09b      	b.n	8000622 <__aeabi_dadd+0x176>
 80004ea:	2f00      	cmp	r7, #0
 80004ec:	dc00      	bgt.n	80004f0 <__aeabi_dadd+0x44>
 80004ee:	e084      	b.n	80005fa <__aeabi_dadd+0x14e>
 80004f0:	2a00      	cmp	r2, #0
 80004f2:	d100      	bne.n	80004f6 <__aeabi_dadd+0x4a>
 80004f4:	e0be      	b.n	8000674 <__aeabi_dadd+0x1c8>
 80004f6:	4ac8      	ldr	r2, [pc, #800]	; (8000818 <__aeabi_dadd+0x36c>)
 80004f8:	4296      	cmp	r6, r2
 80004fa:	d100      	bne.n	80004fe <__aeabi_dadd+0x52>
 80004fc:	e124      	b.n	8000748 <__aeabi_dadd+0x29c>
 80004fe:	2280      	movs	r2, #128	; 0x80
 8000500:	464c      	mov	r4, r9
 8000502:	0412      	lsls	r2, r2, #16
 8000504:	4314      	orrs	r4, r2
 8000506:	46a1      	mov	r9, r4
 8000508:	2f38      	cmp	r7, #56	; 0x38
 800050a:	dd00      	ble.n	800050e <__aeabi_dadd+0x62>
 800050c:	e167      	b.n	80007de <__aeabi_dadd+0x332>
 800050e:	2f1f      	cmp	r7, #31
 8000510:	dd00      	ble.n	8000514 <__aeabi_dadd+0x68>
 8000512:	e1d6      	b.n	80008c2 <__aeabi_dadd+0x416>
 8000514:	2220      	movs	r2, #32
 8000516:	464c      	mov	r4, r9
 8000518:	1bd2      	subs	r2, r2, r7
 800051a:	4094      	lsls	r4, r2
 800051c:	46a2      	mov	sl, r4
 800051e:	4644      	mov	r4, r8
 8000520:	40fc      	lsrs	r4, r7
 8000522:	0020      	movs	r0, r4
 8000524:	4654      	mov	r4, sl
 8000526:	4304      	orrs	r4, r0
 8000528:	4640      	mov	r0, r8
 800052a:	4090      	lsls	r0, r2
 800052c:	1e42      	subs	r2, r0, #1
 800052e:	4190      	sbcs	r0, r2
 8000530:	464a      	mov	r2, r9
 8000532:	40fa      	lsrs	r2, r7
 8000534:	4304      	orrs	r4, r0
 8000536:	1a89      	subs	r1, r1, r2
 8000538:	1b1c      	subs	r4, r3, r4
 800053a:	42a3      	cmp	r3, r4
 800053c:	4192      	sbcs	r2, r2
 800053e:	4252      	negs	r2, r2
 8000540:	1a8b      	subs	r3, r1, r2
 8000542:	469a      	mov	sl, r3
 8000544:	4653      	mov	r3, sl
 8000546:	021b      	lsls	r3, r3, #8
 8000548:	d400      	bmi.n	800054c <__aeabi_dadd+0xa0>
 800054a:	e0d4      	b.n	80006f6 <__aeabi_dadd+0x24a>
 800054c:	4653      	mov	r3, sl
 800054e:	025a      	lsls	r2, r3, #9
 8000550:	0a53      	lsrs	r3, r2, #9
 8000552:	469a      	mov	sl, r3
 8000554:	4653      	mov	r3, sl
 8000556:	2b00      	cmp	r3, #0
 8000558:	d100      	bne.n	800055c <__aeabi_dadd+0xb0>
 800055a:	e104      	b.n	8000766 <__aeabi_dadd+0x2ba>
 800055c:	4650      	mov	r0, sl
 800055e:	f001 fdc7 	bl	80020f0 <__clzsi2>
 8000562:	0003      	movs	r3, r0
 8000564:	3b08      	subs	r3, #8
 8000566:	2220      	movs	r2, #32
 8000568:	0020      	movs	r0, r4
 800056a:	1ad2      	subs	r2, r2, r3
 800056c:	4651      	mov	r1, sl
 800056e:	40d0      	lsrs	r0, r2
 8000570:	4099      	lsls	r1, r3
 8000572:	0002      	movs	r2, r0
 8000574:	409c      	lsls	r4, r3
 8000576:	430a      	orrs	r2, r1
 8000578:	42b3      	cmp	r3, r6
 800057a:	da00      	bge.n	800057e <__aeabi_dadd+0xd2>
 800057c:	e102      	b.n	8000784 <__aeabi_dadd+0x2d8>
 800057e:	1b9b      	subs	r3, r3, r6
 8000580:	1c59      	adds	r1, r3, #1
 8000582:	291f      	cmp	r1, #31
 8000584:	dd00      	ble.n	8000588 <__aeabi_dadd+0xdc>
 8000586:	e0a7      	b.n	80006d8 <__aeabi_dadd+0x22c>
 8000588:	2320      	movs	r3, #32
 800058a:	0010      	movs	r0, r2
 800058c:	0026      	movs	r6, r4
 800058e:	1a5b      	subs	r3, r3, r1
 8000590:	409c      	lsls	r4, r3
 8000592:	4098      	lsls	r0, r3
 8000594:	40ce      	lsrs	r6, r1
 8000596:	40ca      	lsrs	r2, r1
 8000598:	1e63      	subs	r3, r4, #1
 800059a:	419c      	sbcs	r4, r3
 800059c:	4330      	orrs	r0, r6
 800059e:	4692      	mov	sl, r2
 80005a0:	2600      	movs	r6, #0
 80005a2:	4304      	orrs	r4, r0
 80005a4:	0763      	lsls	r3, r4, #29
 80005a6:	d009      	beq.n	80005bc <__aeabi_dadd+0x110>
 80005a8:	230f      	movs	r3, #15
 80005aa:	4023      	ands	r3, r4
 80005ac:	2b04      	cmp	r3, #4
 80005ae:	d005      	beq.n	80005bc <__aeabi_dadd+0x110>
 80005b0:	1d23      	adds	r3, r4, #4
 80005b2:	42a3      	cmp	r3, r4
 80005b4:	41a4      	sbcs	r4, r4
 80005b6:	4264      	negs	r4, r4
 80005b8:	44a2      	add	sl, r4
 80005ba:	001c      	movs	r4, r3
 80005bc:	4653      	mov	r3, sl
 80005be:	021b      	lsls	r3, r3, #8
 80005c0:	d400      	bmi.n	80005c4 <__aeabi_dadd+0x118>
 80005c2:	e09b      	b.n	80006fc <__aeabi_dadd+0x250>
 80005c4:	4b94      	ldr	r3, [pc, #592]	; (8000818 <__aeabi_dadd+0x36c>)
 80005c6:	3601      	adds	r6, #1
 80005c8:	429e      	cmp	r6, r3
 80005ca:	d100      	bne.n	80005ce <__aeabi_dadd+0x122>
 80005cc:	e0b8      	b.n	8000740 <__aeabi_dadd+0x294>
 80005ce:	4653      	mov	r3, sl
 80005d0:	4992      	ldr	r1, [pc, #584]	; (800081c <__aeabi_dadd+0x370>)
 80005d2:	08e4      	lsrs	r4, r4, #3
 80005d4:	400b      	ands	r3, r1
 80005d6:	0019      	movs	r1, r3
 80005d8:	075b      	lsls	r3, r3, #29
 80005da:	4323      	orrs	r3, r4
 80005dc:	0572      	lsls	r2, r6, #21
 80005de:	024c      	lsls	r4, r1, #9
 80005e0:	0b24      	lsrs	r4, r4, #12
 80005e2:	0d52      	lsrs	r2, r2, #21
 80005e4:	0512      	lsls	r2, r2, #20
 80005e6:	07ed      	lsls	r5, r5, #31
 80005e8:	4322      	orrs	r2, r4
 80005ea:	432a      	orrs	r2, r5
 80005ec:	0018      	movs	r0, r3
 80005ee:	0011      	movs	r1, r2
 80005f0:	bce0      	pop	{r5, r6, r7}
 80005f2:	46ba      	mov	sl, r7
 80005f4:	46b1      	mov	r9, r6
 80005f6:	46a8      	mov	r8, r5
 80005f8:	bdf0      	pop	{r4, r5, r6, r7, pc}
 80005fa:	2f00      	cmp	r7, #0
 80005fc:	d048      	beq.n	8000690 <__aeabi_dadd+0x1e4>
 80005fe:	1b97      	subs	r7, r2, r6
 8000600:	2e00      	cmp	r6, #0
 8000602:	d000      	beq.n	8000606 <__aeabi_dadd+0x15a>
 8000604:	e10e      	b.n	8000824 <__aeabi_dadd+0x378>
 8000606:	000c      	movs	r4, r1
 8000608:	431c      	orrs	r4, r3
 800060a:	d100      	bne.n	800060e <__aeabi_dadd+0x162>
 800060c:	e1b7      	b.n	800097e <__aeabi_dadd+0x4d2>
 800060e:	1e7c      	subs	r4, r7, #1
 8000610:	2f01      	cmp	r7, #1
 8000612:	d100      	bne.n	8000616 <__aeabi_dadd+0x16a>
 8000614:	e226      	b.n	8000a64 <__aeabi_dadd+0x5b8>
 8000616:	4d80      	ldr	r5, [pc, #512]	; (8000818 <__aeabi_dadd+0x36c>)
 8000618:	42af      	cmp	r7, r5
 800061a:	d100      	bne.n	800061e <__aeabi_dadd+0x172>
 800061c:	e1d5      	b.n	80009ca <__aeabi_dadd+0x51e>
 800061e:	0027      	movs	r7, r4
 8000620:	e107      	b.n	8000832 <__aeabi_dadd+0x386>
 8000622:	2f00      	cmp	r7, #0
 8000624:	dc00      	bgt.n	8000628 <__aeabi_dadd+0x17c>
 8000626:	e0b2      	b.n	800078e <__aeabi_dadd+0x2e2>
 8000628:	2a00      	cmp	r2, #0
 800062a:	d047      	beq.n	80006bc <__aeabi_dadd+0x210>
 800062c:	4a7a      	ldr	r2, [pc, #488]	; (8000818 <__aeabi_dadd+0x36c>)
 800062e:	4296      	cmp	r6, r2
 8000630:	d100      	bne.n	8000634 <__aeabi_dadd+0x188>
 8000632:	e089      	b.n	8000748 <__aeabi_dadd+0x29c>
 8000634:	2280      	movs	r2, #128	; 0x80
 8000636:	464c      	mov	r4, r9
 8000638:	0412      	lsls	r2, r2, #16
 800063a:	4314      	orrs	r4, r2
 800063c:	46a1      	mov	r9, r4
 800063e:	2f38      	cmp	r7, #56	; 0x38
 8000640:	dc6b      	bgt.n	800071a <__aeabi_dadd+0x26e>
 8000642:	2f1f      	cmp	r7, #31
 8000644:	dc00      	bgt.n	8000648 <__aeabi_dadd+0x19c>
 8000646:	e16e      	b.n	8000926 <__aeabi_dadd+0x47a>
 8000648:	003a      	movs	r2, r7
 800064a:	4648      	mov	r0, r9
 800064c:	3a20      	subs	r2, #32
 800064e:	40d0      	lsrs	r0, r2
 8000650:	4684      	mov	ip, r0
 8000652:	2f20      	cmp	r7, #32
 8000654:	d007      	beq.n	8000666 <__aeabi_dadd+0x1ba>
 8000656:	2240      	movs	r2, #64	; 0x40
 8000658:	4648      	mov	r0, r9
 800065a:	1bd2      	subs	r2, r2, r7
 800065c:	4090      	lsls	r0, r2
 800065e:	0002      	movs	r2, r0
 8000660:	4640      	mov	r0, r8
 8000662:	4310      	orrs	r0, r2
 8000664:	4680      	mov	r8, r0
 8000666:	4640      	mov	r0, r8
 8000668:	1e42      	subs	r2, r0, #1
 800066a:	4190      	sbcs	r0, r2
 800066c:	4662      	mov	r2, ip
 800066e:	0004      	movs	r4, r0
 8000670:	4314      	orrs	r4, r2
 8000672:	e057      	b.n	8000724 <__aeabi_dadd+0x278>
 8000674:	464a      	mov	r2, r9
 8000676:	4302      	orrs	r2, r0
 8000678:	d100      	bne.n	800067c <__aeabi_dadd+0x1d0>
 800067a:	e103      	b.n	8000884 <__aeabi_dadd+0x3d8>
 800067c:	1e7a      	subs	r2, r7, #1
 800067e:	2f01      	cmp	r7, #1
 8000680:	d100      	bne.n	8000684 <__aeabi_dadd+0x1d8>
 8000682:	e193      	b.n	80009ac <__aeabi_dadd+0x500>
 8000684:	4c64      	ldr	r4, [pc, #400]	; (8000818 <__aeabi_dadd+0x36c>)
 8000686:	42a7      	cmp	r7, r4
 8000688:	d100      	bne.n	800068c <__aeabi_dadd+0x1e0>
 800068a:	e18a      	b.n	80009a2 <__aeabi_dadd+0x4f6>
 800068c:	0017      	movs	r7, r2
 800068e:	e73b      	b.n	8000508 <__aeabi_dadd+0x5c>
 8000690:	4c63      	ldr	r4, [pc, #396]	; (8000820 <__aeabi_dadd+0x374>)
 8000692:	1c72      	adds	r2, r6, #1
 8000694:	4222      	tst	r2, r4
 8000696:	d000      	beq.n	800069a <__aeabi_dadd+0x1ee>
 8000698:	e0e0      	b.n	800085c <__aeabi_dadd+0x3b0>
 800069a:	000a      	movs	r2, r1
 800069c:	431a      	orrs	r2, r3
 800069e:	2e00      	cmp	r6, #0
 80006a0:	d000      	beq.n	80006a4 <__aeabi_dadd+0x1f8>
 80006a2:	e174      	b.n	800098e <__aeabi_dadd+0x4e2>
 80006a4:	2a00      	cmp	r2, #0
 80006a6:	d100      	bne.n	80006aa <__aeabi_dadd+0x1fe>
 80006a8:	e1d0      	b.n	8000a4c <__aeabi_dadd+0x5a0>
 80006aa:	464a      	mov	r2, r9
 80006ac:	4302      	orrs	r2, r0
 80006ae:	d000      	beq.n	80006b2 <__aeabi_dadd+0x206>
 80006b0:	e1e3      	b.n	8000a7a <__aeabi_dadd+0x5ce>
 80006b2:	074a      	lsls	r2, r1, #29
 80006b4:	08db      	lsrs	r3, r3, #3
 80006b6:	4313      	orrs	r3, r2
 80006b8:	08c9      	lsrs	r1, r1, #3
 80006ba:	e029      	b.n	8000710 <__aeabi_dadd+0x264>
 80006bc:	464a      	mov	r2, r9
 80006be:	4302      	orrs	r2, r0
 80006c0:	d100      	bne.n	80006c4 <__aeabi_dadd+0x218>
 80006c2:	e17d      	b.n	80009c0 <__aeabi_dadd+0x514>
 80006c4:	1e7a      	subs	r2, r7, #1
 80006c6:	2f01      	cmp	r7, #1
 80006c8:	d100      	bne.n	80006cc <__aeabi_dadd+0x220>
 80006ca:	e0e0      	b.n	800088e <__aeabi_dadd+0x3e2>
 80006cc:	4c52      	ldr	r4, [pc, #328]	; (8000818 <__aeabi_dadd+0x36c>)
 80006ce:	42a7      	cmp	r7, r4
 80006d0:	d100      	bne.n	80006d4 <__aeabi_dadd+0x228>
 80006d2:	e166      	b.n	80009a2 <__aeabi_dadd+0x4f6>
 80006d4:	0017      	movs	r7, r2
 80006d6:	e7b2      	b.n	800063e <__aeabi_dadd+0x192>
 80006d8:	0010      	movs	r0, r2
 80006da:	3b1f      	subs	r3, #31
 80006dc:	40d8      	lsrs	r0, r3
 80006de:	2920      	cmp	r1, #32
 80006e0:	d003      	beq.n	80006ea <__aeabi_dadd+0x23e>
 80006e2:	2340      	movs	r3, #64	; 0x40
 80006e4:	1a5b      	subs	r3, r3, r1
 80006e6:	409a      	lsls	r2, r3
 80006e8:	4314      	orrs	r4, r2
 80006ea:	1e63      	subs	r3, r4, #1
 80006ec:	419c      	sbcs	r4, r3
 80006ee:	2300      	movs	r3, #0
 80006f0:	2600      	movs	r6, #0
 80006f2:	469a      	mov	sl, r3
 80006f4:	4304      	orrs	r4, r0
 80006f6:	0763      	lsls	r3, r4, #29
 80006f8:	d000      	beq.n	80006fc <__aeabi_dadd+0x250>
 80006fa:	e755      	b.n	80005a8 <__aeabi_dadd+0xfc>
 80006fc:	4652      	mov	r2, sl
 80006fe:	08e3      	lsrs	r3, r4, #3
 8000700:	0752      	lsls	r2, r2, #29
 8000702:	4313      	orrs	r3, r2
 8000704:	4652      	mov	r2, sl
 8000706:	0037      	movs	r7, r6
 8000708:	08d1      	lsrs	r1, r2, #3
 800070a:	4a43      	ldr	r2, [pc, #268]	; (8000818 <__aeabi_dadd+0x36c>)
 800070c:	4297      	cmp	r7, r2
 800070e:	d01f      	beq.n	8000750 <__aeabi_dadd+0x2a4>
 8000710:	0309      	lsls	r1, r1, #12
 8000712:	057a      	lsls	r2, r7, #21
 8000714:	0b0c      	lsrs	r4, r1, #12
 8000716:	0d52      	lsrs	r2, r2, #21
 8000718:	e764      	b.n	80005e4 <__aeabi_dadd+0x138>
 800071a:	4642      	mov	r2, r8
 800071c:	464c      	mov	r4, r9
 800071e:	4314      	orrs	r4, r2
 8000720:	1e62      	subs	r2, r4, #1
 8000722:	4194      	sbcs	r4, r2
 8000724:	18e4      	adds	r4, r4, r3
 8000726:	429c      	cmp	r4, r3
 8000728:	4192      	sbcs	r2, r2
 800072a:	4252      	negs	r2, r2
 800072c:	4692      	mov	sl, r2
 800072e:	448a      	add	sl, r1
 8000730:	4653      	mov	r3, sl
 8000732:	021b      	lsls	r3, r3, #8
 8000734:	d5df      	bpl.n	80006f6 <__aeabi_dadd+0x24a>
 8000736:	4b38      	ldr	r3, [pc, #224]	; (8000818 <__aeabi_dadd+0x36c>)
 8000738:	3601      	adds	r6, #1
 800073a:	429e      	cmp	r6, r3
 800073c:	d000      	beq.n	8000740 <__aeabi_dadd+0x294>
 800073e:	e0b3      	b.n	80008a8 <__aeabi_dadd+0x3fc>
 8000740:	0032      	movs	r2, r6
 8000742:	2400      	movs	r4, #0
 8000744:	2300      	movs	r3, #0
 8000746:	e74d      	b.n	80005e4 <__aeabi_dadd+0x138>
 8000748:	074a      	lsls	r2, r1, #29
 800074a:	08db      	lsrs	r3, r3, #3
 800074c:	4313      	orrs	r3, r2
 800074e:	08c9      	lsrs	r1, r1, #3
 8000750:	001a      	movs	r2, r3
 8000752:	430a      	orrs	r2, r1
 8000754:	d100      	bne.n	8000758 <__aeabi_dadd+0x2ac>
 8000756:	e200      	b.n	8000b5a <__aeabi_dadd+0x6ae>
 8000758:	2480      	movs	r4, #128	; 0x80
 800075a:	0324      	lsls	r4, r4, #12
 800075c:	430c      	orrs	r4, r1
 800075e:	0324      	lsls	r4, r4, #12
 8000760:	4a2d      	ldr	r2, [pc, #180]	; (8000818 <__aeabi_dadd+0x36c>)
 8000762:	0b24      	lsrs	r4, r4, #12
 8000764:	e73e      	b.n	80005e4 <__aeabi_dadd+0x138>
 8000766:	0020      	movs	r0, r4
 8000768:	f001 fcc2 	bl	80020f0 <__clzsi2>
 800076c:	0003      	movs	r3, r0
 800076e:	3318      	adds	r3, #24
 8000770:	2b1f      	cmp	r3, #31
 8000772:	dc00      	bgt.n	8000776 <__aeabi_dadd+0x2ca>
 8000774:	e6f7      	b.n	8000566 <__aeabi_dadd+0xba>
 8000776:	0022      	movs	r2, r4
 8000778:	3808      	subs	r0, #8
 800077a:	4082      	lsls	r2, r0
 800077c:	2400      	movs	r4, #0
 800077e:	42b3      	cmp	r3, r6
 8000780:	db00      	blt.n	8000784 <__aeabi_dadd+0x2d8>
 8000782:	e6fc      	b.n	800057e <__aeabi_dadd+0xd2>
 8000784:	1af6      	subs	r6, r6, r3
 8000786:	4b25      	ldr	r3, [pc, #148]	; (800081c <__aeabi_dadd+0x370>)
 8000788:	401a      	ands	r2, r3
 800078a:	4692      	mov	sl, r2
 800078c:	e70a      	b.n	80005a4 <__aeabi_dadd+0xf8>
 800078e:	2f00      	cmp	r7, #0
 8000790:	d02b      	beq.n	80007ea <__aeabi_dadd+0x33e>
 8000792:	1b97      	subs	r7, r2, r6
 8000794:	2e00      	cmp	r6, #0
 8000796:	d100      	bne.n	800079a <__aeabi_dadd+0x2ee>
 8000798:	e0b8      	b.n	800090c <__aeabi_dadd+0x460>
 800079a:	4c1f      	ldr	r4, [pc, #124]	; (8000818 <__aeabi_dadd+0x36c>)
 800079c:	42a2      	cmp	r2, r4
 800079e:	d100      	bne.n	80007a2 <__aeabi_dadd+0x2f6>
 80007a0:	e11c      	b.n	80009dc <__aeabi_dadd+0x530>
 80007a2:	2480      	movs	r4, #128	; 0x80
 80007a4:	0424      	lsls	r4, r4, #16
 80007a6:	4321      	orrs	r1, r4
 80007a8:	2f38      	cmp	r7, #56	; 0x38
 80007aa:	dd00      	ble.n	80007ae <__aeabi_dadd+0x302>
 80007ac:	e11e      	b.n	80009ec <__aeabi_dadd+0x540>
 80007ae:	2f1f      	cmp	r7, #31
 80007b0:	dd00      	ble.n	80007b4 <__aeabi_dadd+0x308>
 80007b2:	e19e      	b.n	8000af2 <__aeabi_dadd+0x646>
 80007b4:	2620      	movs	r6, #32
 80007b6:	000c      	movs	r4, r1
 80007b8:	1bf6      	subs	r6, r6, r7
 80007ba:	0018      	movs	r0, r3
 80007bc:	40b3      	lsls	r3, r6
 80007be:	40b4      	lsls	r4, r6
 80007c0:	40f8      	lsrs	r0, r7
 80007c2:	1e5e      	subs	r6, r3, #1
 80007c4:	41b3      	sbcs	r3, r6
 80007c6:	40f9      	lsrs	r1, r7
 80007c8:	4304      	orrs	r4, r0
 80007ca:	431c      	orrs	r4, r3
 80007cc:	4489      	add	r9, r1
 80007ce:	4444      	add	r4, r8
 80007d0:	4544      	cmp	r4, r8
 80007d2:	419b      	sbcs	r3, r3
 80007d4:	425b      	negs	r3, r3
 80007d6:	444b      	add	r3, r9
 80007d8:	469a      	mov	sl, r3
 80007da:	0016      	movs	r6, r2
 80007dc:	e7a8      	b.n	8000730 <__aeabi_dadd+0x284>
 80007de:	4642      	mov	r2, r8
 80007e0:	464c      	mov	r4, r9
 80007e2:	4314      	orrs	r4, r2
 80007e4:	1e62      	subs	r2, r4, #1
 80007e6:	4194      	sbcs	r4, r2
 80007e8:	e6a6      	b.n	8000538 <__aeabi_dadd+0x8c>
 80007ea:	4c0d      	ldr	r4, [pc, #52]	; (8000820 <__aeabi_dadd+0x374>)
 80007ec:	1c72      	adds	r2, r6, #1
 80007ee:	4222      	tst	r2, r4
 80007f0:	d000      	beq.n	80007f4 <__aeabi_dadd+0x348>
 80007f2:	e0a8      	b.n	8000946 <__aeabi_dadd+0x49a>
 80007f4:	000a      	movs	r2, r1
 80007f6:	431a      	orrs	r2, r3
 80007f8:	2e00      	cmp	r6, #0
 80007fa:	d000      	beq.n	80007fe <__aeabi_dadd+0x352>
 80007fc:	e10a      	b.n	8000a14 <__aeabi_dadd+0x568>
 80007fe:	2a00      	cmp	r2, #0
 8000800:	d100      	bne.n	8000804 <__aeabi_dadd+0x358>
 8000802:	e15e      	b.n	8000ac2 <__aeabi_dadd+0x616>
 8000804:	464a      	mov	r2, r9
 8000806:	4302      	orrs	r2, r0
 8000808:	d000      	beq.n	800080c <__aeabi_dadd+0x360>
 800080a:	e161      	b.n	8000ad0 <__aeabi_dadd+0x624>
 800080c:	074a      	lsls	r2, r1, #29
 800080e:	08db      	lsrs	r3, r3, #3
 8000810:	4313      	orrs	r3, r2
 8000812:	08c9      	lsrs	r1, r1, #3
 8000814:	e77c      	b.n	8000710 <__aeabi_dadd+0x264>
 8000816:	46c0      	nop			; (mov r8, r8)
 8000818:	000007ff 	.word	0x000007ff
 800081c:	ff7fffff 	.word	0xff7fffff
 8000820:	000007fe 	.word	0x000007fe
 8000824:	4ccf      	ldr	r4, [pc, #828]	; (8000b64 <__aeabi_dadd+0x6b8>)
 8000826:	42a2      	cmp	r2, r4
 8000828:	d100      	bne.n	800082c <__aeabi_dadd+0x380>
 800082a:	e0ce      	b.n	80009ca <__aeabi_dadd+0x51e>
 800082c:	2480      	movs	r4, #128	; 0x80
 800082e:	0424      	lsls	r4, r4, #16
 8000830:	4321      	orrs	r1, r4
 8000832:	2f38      	cmp	r7, #56	; 0x38
 8000834:	dc5b      	bgt.n	80008ee <__aeabi_dadd+0x442>
 8000836:	2f1f      	cmp	r7, #31
 8000838:	dd00      	ble.n	800083c <__aeabi_dadd+0x390>
 800083a:	e0dc      	b.n	80009f6 <__aeabi_dadd+0x54a>
 800083c:	2520      	movs	r5, #32
 800083e:	000c      	movs	r4, r1
 8000840:	1bed      	subs	r5, r5, r7
 8000842:	001e      	movs	r6, r3
 8000844:	40ab      	lsls	r3, r5
 8000846:	40ac      	lsls	r4, r5
 8000848:	40fe      	lsrs	r6, r7
 800084a:	1e5d      	subs	r5, r3, #1
 800084c:	41ab      	sbcs	r3, r5
 800084e:	4334      	orrs	r4, r6
 8000850:	40f9      	lsrs	r1, r7
 8000852:	431c      	orrs	r4, r3
 8000854:	464b      	mov	r3, r9
 8000856:	1a5b      	subs	r3, r3, r1
 8000858:	4699      	mov	r9, r3
 800085a:	e04c      	b.n	80008f6 <__aeabi_dadd+0x44a>
 800085c:	464a      	mov	r2, r9
 800085e:	1a1c      	subs	r4, r3, r0
 8000860:	1a88      	subs	r0, r1, r2
 8000862:	42a3      	cmp	r3, r4
 8000864:	4192      	sbcs	r2, r2
 8000866:	4252      	negs	r2, r2
 8000868:	4692      	mov	sl, r2
 800086a:	0002      	movs	r2, r0
 800086c:	4650      	mov	r0, sl
 800086e:	1a12      	subs	r2, r2, r0
 8000870:	4692      	mov	sl, r2
 8000872:	0212      	lsls	r2, r2, #8
 8000874:	d478      	bmi.n	8000968 <__aeabi_dadd+0x4bc>
 8000876:	4653      	mov	r3, sl
 8000878:	4323      	orrs	r3, r4
 800087a:	d000      	beq.n	800087e <__aeabi_dadd+0x3d2>
 800087c:	e66a      	b.n	8000554 <__aeabi_dadd+0xa8>
 800087e:	2100      	movs	r1, #0
 8000880:	2500      	movs	r5, #0
 8000882:	e745      	b.n	8000710 <__aeabi_dadd+0x264>
 8000884:	074a      	lsls	r2, r1, #29
 8000886:	08db      	lsrs	r3, r3, #3
 8000888:	4313      	orrs	r3, r2
 800088a:	08c9      	lsrs	r1, r1, #3
 800088c:	e73d      	b.n	800070a <__aeabi_dadd+0x25e>
 800088e:	181c      	adds	r4, r3, r0
 8000890:	429c      	cmp	r4, r3
 8000892:	419b      	sbcs	r3, r3
 8000894:	4449      	add	r1, r9
 8000896:	468a      	mov	sl, r1
 8000898:	425b      	negs	r3, r3
 800089a:	449a      	add	sl, r3
 800089c:	4653      	mov	r3, sl
 800089e:	2601      	movs	r6, #1
 80008a0:	021b      	lsls	r3, r3, #8
 80008a2:	d400      	bmi.n	80008a6 <__aeabi_dadd+0x3fa>
 80008a4:	e727      	b.n	80006f6 <__aeabi_dadd+0x24a>
 80008a6:	2602      	movs	r6, #2
 80008a8:	4652      	mov	r2, sl
 80008aa:	4baf      	ldr	r3, [pc, #700]	; (8000b68 <__aeabi_dadd+0x6bc>)
 80008ac:	2101      	movs	r1, #1
 80008ae:	401a      	ands	r2, r3
 80008b0:	0013      	movs	r3, r2
 80008b2:	4021      	ands	r1, r4
 80008b4:	0862      	lsrs	r2, r4, #1
 80008b6:	430a      	orrs	r2, r1
 80008b8:	07dc      	lsls	r4, r3, #31
 80008ba:	085b      	lsrs	r3, r3, #1
 80008bc:	469a      	mov	sl, r3
 80008be:	4314      	orrs	r4, r2
 80008c0:	e670      	b.n	80005a4 <__aeabi_dadd+0xf8>
 80008c2:	003a      	movs	r2, r7
 80008c4:	464c      	mov	r4, r9
 80008c6:	3a20      	subs	r2, #32
 80008c8:	40d4      	lsrs	r4, r2
 80008ca:	46a4      	mov	ip, r4
 80008cc:	2f20      	cmp	r7, #32
 80008ce:	d007      	beq.n	80008e0 <__aeabi_dadd+0x434>
 80008d0:	2240      	movs	r2, #64	; 0x40
 80008d2:	4648      	mov	r0, r9
 80008d4:	1bd2      	subs	r2, r2, r7
 80008d6:	4090      	lsls	r0, r2
 80008d8:	0002      	movs	r2, r0
 80008da:	4640      	mov	r0, r8
 80008dc:	4310      	orrs	r0, r2
 80008de:	4680      	mov	r8, r0
 80008e0:	4640      	mov	r0, r8
 80008e2:	1e42      	subs	r2, r0, #1
 80008e4:	4190      	sbcs	r0, r2
 80008e6:	4662      	mov	r2, ip
 80008e8:	0004      	movs	r4, r0
 80008ea:	4314      	orrs	r4, r2
 80008ec:	e624      	b.n	8000538 <__aeabi_dadd+0x8c>
 80008ee:	4319      	orrs	r1, r3
 80008f0:	000c      	movs	r4, r1
 80008f2:	1e63      	subs	r3, r4, #1
 80008f4:	419c      	sbcs	r4, r3
 80008f6:	4643      	mov	r3, r8
 80008f8:	1b1c      	subs	r4, r3, r4
 80008fa:	45a0      	cmp	r8, r4
 80008fc:	419b      	sbcs	r3, r3
 80008fe:	4649      	mov	r1, r9
 8000900:	425b      	negs	r3, r3
 8000902:	1acb      	subs	r3, r1, r3
 8000904:	469a      	mov	sl, r3
 8000906:	4665      	mov	r5, ip
 8000908:	0016      	movs	r6, r2
 800090a:	e61b      	b.n	8000544 <__aeabi_dadd+0x98>
 800090c:	000c      	movs	r4, r1
 800090e:	431c      	orrs	r4, r3
 8000910:	d100      	bne.n	8000914 <__aeabi_dadd+0x468>
 8000912:	e0c7      	b.n	8000aa4 <__aeabi_dadd+0x5f8>
 8000914:	1e7c      	subs	r4, r7, #1
 8000916:	2f01      	cmp	r7, #1
 8000918:	d100      	bne.n	800091c <__aeabi_dadd+0x470>
 800091a:	e0f9      	b.n	8000b10 <__aeabi_dadd+0x664>
 800091c:	4e91      	ldr	r6, [pc, #580]	; (8000b64 <__aeabi_dadd+0x6b8>)
 800091e:	42b7      	cmp	r7, r6
 8000920:	d05c      	beq.n	80009dc <__aeabi_dadd+0x530>
 8000922:	0027      	movs	r7, r4
 8000924:	e740      	b.n	80007a8 <__aeabi_dadd+0x2fc>
 8000926:	2220      	movs	r2, #32
 8000928:	464c      	mov	r4, r9
 800092a:	4640      	mov	r0, r8
 800092c:	1bd2      	subs	r2, r2, r7
 800092e:	4094      	lsls	r4, r2
 8000930:	40f8      	lsrs	r0, r7
 8000932:	4304      	orrs	r4, r0
 8000934:	4640      	mov	r0, r8
 8000936:	4090      	lsls	r0, r2
 8000938:	1e42      	subs	r2, r0, #1
 800093a:	4190      	sbcs	r0, r2
 800093c:	464a      	mov	r2, r9
 800093e:	40fa      	lsrs	r2, r7
 8000940:	4304      	orrs	r4, r0
 8000942:	1889      	adds	r1, r1, r2
 8000944:	e6ee      	b.n	8000724 <__aeabi_dadd+0x278>
 8000946:	4c87      	ldr	r4, [pc, #540]	; (8000b64 <__aeabi_dadd+0x6b8>)
 8000948:	42a2      	cmp	r2, r4
 800094a:	d100      	bne.n	800094e <__aeabi_dadd+0x4a2>
 800094c:	e6f9      	b.n	8000742 <__aeabi_dadd+0x296>
 800094e:	1818      	adds	r0, r3, r0
 8000950:	4298      	cmp	r0, r3
 8000952:	419b      	sbcs	r3, r3
 8000954:	4449      	add	r1, r9
 8000956:	425b      	negs	r3, r3
 8000958:	18cb      	adds	r3, r1, r3
 800095a:	07dc      	lsls	r4, r3, #31
 800095c:	0840      	lsrs	r0, r0, #1
 800095e:	085b      	lsrs	r3, r3, #1
 8000960:	469a      	mov	sl, r3
 8000962:	0016      	movs	r6, r2
 8000964:	4304      	orrs	r4, r0
 8000966:	e6c6      	b.n	80006f6 <__aeabi_dadd+0x24a>
 8000968:	4642      	mov	r2, r8
 800096a:	1ad4      	subs	r4, r2, r3
 800096c:	45a0      	cmp	r8, r4
 800096e:	4180      	sbcs	r0, r0
 8000970:	464b      	mov	r3, r9
 8000972:	4240      	negs	r0, r0
 8000974:	1a59      	subs	r1, r3, r1
 8000976:	1a0b      	subs	r3, r1, r0
 8000978:	469a      	mov	sl, r3
 800097a:	4665      	mov	r5, ip
 800097c:	e5ea      	b.n	8000554 <__aeabi_dadd+0xa8>
 800097e:	464b      	mov	r3, r9
 8000980:	464a      	mov	r2, r9
 8000982:	08c0      	lsrs	r0, r0, #3
 8000984:	075b      	lsls	r3, r3, #29
 8000986:	4665      	mov	r5, ip
 8000988:	4303      	orrs	r3, r0
 800098a:	08d1      	lsrs	r1, r2, #3
 800098c:	e6bd      	b.n	800070a <__aeabi_dadd+0x25e>
 800098e:	2a00      	cmp	r2, #0
 8000990:	d000      	beq.n	8000994 <__aeabi_dadd+0x4e8>
 8000992:	e08e      	b.n	8000ab2 <__aeabi_dadd+0x606>
 8000994:	464b      	mov	r3, r9
 8000996:	4303      	orrs	r3, r0
 8000998:	d117      	bne.n	80009ca <__aeabi_dadd+0x51e>
 800099a:	2180      	movs	r1, #128	; 0x80
 800099c:	2500      	movs	r5, #0
 800099e:	0309      	lsls	r1, r1, #12
 80009a0:	e6da      	b.n	8000758 <__aeabi_dadd+0x2ac>
 80009a2:	074a      	lsls	r2, r1, #29
 80009a4:	08db      	lsrs	r3, r3, #3
 80009a6:	4313      	orrs	r3, r2
 80009a8:	08c9      	lsrs	r1, r1, #3
 80009aa:	e6d1      	b.n	8000750 <__aeabi_dadd+0x2a4>
 80009ac:	1a1c      	subs	r4, r3, r0
 80009ae:	464a      	mov	r2, r9
 80009b0:	42a3      	cmp	r3, r4
 80009b2:	419b      	sbcs	r3, r3
 80009b4:	1a89      	subs	r1, r1, r2
 80009b6:	425b      	negs	r3, r3
 80009b8:	1acb      	subs	r3, r1, r3
 80009ba:	469a      	mov	sl, r3
 80009bc:	2601      	movs	r6, #1
 80009be:	e5c1      	b.n	8000544 <__aeabi_dadd+0x98>
 80009c0:	074a      	lsls	r2, r1, #29
 80009c2:	08db      	lsrs	r3, r3, #3
 80009c4:	4313      	orrs	r3, r2
 80009c6:	08c9      	lsrs	r1, r1, #3
 80009c8:	e69f      	b.n	800070a <__aeabi_dadd+0x25e>
 80009ca:	4643      	mov	r3, r8
 80009cc:	08d8      	lsrs	r0, r3, #3
 80009ce:	464b      	mov	r3, r9
 80009d0:	464a      	mov	r2, r9
 80009d2:	075b      	lsls	r3, r3, #29
 80009d4:	4665      	mov	r5, ip
 80009d6:	4303      	orrs	r3, r0
 80009d8:	08d1      	lsrs	r1, r2, #3
 80009da:	e6b9      	b.n	8000750 <__aeabi_dadd+0x2a4>
 80009dc:	4643      	mov	r3, r8
 80009de:	08d8      	lsrs	r0, r3, #3
 80009e0:	464b      	mov	r3, r9
 80009e2:	464a      	mov	r2, r9
 80009e4:	075b      	lsls	r3, r3, #29
 80009e6:	4303      	orrs	r3, r0
 80009e8:	08d1      	lsrs	r1, r2, #3
 80009ea:	e6b1      	b.n	8000750 <__aeabi_dadd+0x2a4>
 80009ec:	4319      	orrs	r1, r3
 80009ee:	000c      	movs	r4, r1
 80009f0:	1e63      	subs	r3, r4, #1
 80009f2:	419c      	sbcs	r4, r3
 80009f4:	e6eb      	b.n	80007ce <__aeabi_dadd+0x322>
 80009f6:	003c      	movs	r4, r7
 80009f8:	000d      	movs	r5, r1
 80009fa:	3c20      	subs	r4, #32
 80009fc:	40e5      	lsrs	r5, r4
 80009fe:	2f20      	cmp	r7, #32
 8000a00:	d003      	beq.n	8000a0a <__aeabi_dadd+0x55e>
 8000a02:	2440      	movs	r4, #64	; 0x40
 8000a04:	1be4      	subs	r4, r4, r7
 8000a06:	40a1      	lsls	r1, r4
 8000a08:	430b      	orrs	r3, r1
 8000a0a:	001c      	movs	r4, r3
 8000a0c:	1e63      	subs	r3, r4, #1
 8000a0e:	419c      	sbcs	r4, r3
 8000a10:	432c      	orrs	r4, r5
 8000a12:	e770      	b.n	80008f6 <__aeabi_dadd+0x44a>
 8000a14:	2a00      	cmp	r2, #0
 8000a16:	d0e1      	beq.n	80009dc <__aeabi_dadd+0x530>
 8000a18:	464a      	mov	r2, r9
 8000a1a:	4302      	orrs	r2, r0
 8000a1c:	d0c1      	beq.n	80009a2 <__aeabi_dadd+0x4f6>
 8000a1e:	074a      	lsls	r2, r1, #29
 8000a20:	08db      	lsrs	r3, r3, #3
 8000a22:	4313      	orrs	r3, r2
 8000a24:	2280      	movs	r2, #128	; 0x80
 8000a26:	08c9      	lsrs	r1, r1, #3
 8000a28:	0312      	lsls	r2, r2, #12
 8000a2a:	4211      	tst	r1, r2
 8000a2c:	d008      	beq.n	8000a40 <__aeabi_dadd+0x594>
 8000a2e:	4648      	mov	r0, r9
 8000a30:	08c4      	lsrs	r4, r0, #3
 8000a32:	4214      	tst	r4, r2
 8000a34:	d104      	bne.n	8000a40 <__aeabi_dadd+0x594>
 8000a36:	4643      	mov	r3, r8
 8000a38:	0021      	movs	r1, r4
 8000a3a:	08db      	lsrs	r3, r3, #3
 8000a3c:	0742      	lsls	r2, r0, #29
 8000a3e:	4313      	orrs	r3, r2
 8000a40:	0f5a      	lsrs	r2, r3, #29
 8000a42:	00db      	lsls	r3, r3, #3
 8000a44:	0752      	lsls	r2, r2, #29
 8000a46:	08db      	lsrs	r3, r3, #3
 8000a48:	4313      	orrs	r3, r2
 8000a4a:	e681      	b.n	8000750 <__aeabi_dadd+0x2a4>
 8000a4c:	464b      	mov	r3, r9
 8000a4e:	4303      	orrs	r3, r0
 8000a50:	d100      	bne.n	8000a54 <__aeabi_dadd+0x5a8>
 8000a52:	e714      	b.n	800087e <__aeabi_dadd+0x3d2>
 8000a54:	464b      	mov	r3, r9
 8000a56:	464a      	mov	r2, r9
 8000a58:	08c0      	lsrs	r0, r0, #3
 8000a5a:	075b      	lsls	r3, r3, #29
 8000a5c:	4665      	mov	r5, ip
 8000a5e:	4303      	orrs	r3, r0
 8000a60:	08d1      	lsrs	r1, r2, #3
 8000a62:	e655      	b.n	8000710 <__aeabi_dadd+0x264>
 8000a64:	1ac4      	subs	r4, r0, r3
 8000a66:	45a0      	cmp	r8, r4
 8000a68:	4180      	sbcs	r0, r0
 8000a6a:	464b      	mov	r3, r9
 8000a6c:	4240      	negs	r0, r0
 8000a6e:	1a59      	subs	r1, r3, r1
 8000a70:	1a0b      	subs	r3, r1, r0
 8000a72:	469a      	mov	sl, r3
 8000a74:	4665      	mov	r5, ip
 8000a76:	2601      	movs	r6, #1
 8000a78:	e564      	b.n	8000544 <__aeabi_dadd+0x98>
 8000a7a:	1a1c      	subs	r4, r3, r0
 8000a7c:	464a      	mov	r2, r9
 8000a7e:	42a3      	cmp	r3, r4
 8000a80:	4180      	sbcs	r0, r0
 8000a82:	1a8a      	subs	r2, r1, r2
 8000a84:	4240      	negs	r0, r0
 8000a86:	1a12      	subs	r2, r2, r0
 8000a88:	4692      	mov	sl, r2
 8000a8a:	0212      	lsls	r2, r2, #8
 8000a8c:	d549      	bpl.n	8000b22 <__aeabi_dadd+0x676>
 8000a8e:	4642      	mov	r2, r8
 8000a90:	1ad4      	subs	r4, r2, r3
 8000a92:	45a0      	cmp	r8, r4
 8000a94:	4180      	sbcs	r0, r0
 8000a96:	464b      	mov	r3, r9
 8000a98:	4240      	negs	r0, r0
 8000a9a:	1a59      	subs	r1, r3, r1
 8000a9c:	1a0b      	subs	r3, r1, r0
 8000a9e:	469a      	mov	sl, r3
 8000aa0:	4665      	mov	r5, ip
 8000aa2:	e57f      	b.n	80005a4 <__aeabi_dadd+0xf8>
 8000aa4:	464b      	mov	r3, r9
 8000aa6:	464a      	mov	r2, r9
 8000aa8:	08c0      	lsrs	r0, r0, #3
 8000aaa:	075b      	lsls	r3, r3, #29
 8000aac:	4303      	orrs	r3, r0
 8000aae:	08d1      	lsrs	r1, r2, #3
 8000ab0:	e62b      	b.n	800070a <__aeabi_dadd+0x25e>
 8000ab2:	464a      	mov	r2, r9
 8000ab4:	08db      	lsrs	r3, r3, #3
 8000ab6:	4302      	orrs	r2, r0
 8000ab8:	d138      	bne.n	8000b2c <__aeabi_dadd+0x680>
 8000aba:	074a      	lsls	r2, r1, #29
 8000abc:	4313      	orrs	r3, r2
 8000abe:	08c9      	lsrs	r1, r1, #3
 8000ac0:	e646      	b.n	8000750 <__aeabi_dadd+0x2a4>
 8000ac2:	464b      	mov	r3, r9
 8000ac4:	464a      	mov	r2, r9
 8000ac6:	08c0      	lsrs	r0, r0, #3
 8000ac8:	075b      	lsls	r3, r3, #29
 8000aca:	4303      	orrs	r3, r0
 8000acc:	08d1      	lsrs	r1, r2, #3
 8000ace:	e61f      	b.n	8000710 <__aeabi_dadd+0x264>
 8000ad0:	181c      	adds	r4, r3, r0
 8000ad2:	429c      	cmp	r4, r3
 8000ad4:	419b      	sbcs	r3, r3
 8000ad6:	4449      	add	r1, r9
 8000ad8:	468a      	mov	sl, r1
 8000ada:	425b      	negs	r3, r3
 8000adc:	449a      	add	sl, r3
 8000ade:	4653      	mov	r3, sl
 8000ae0:	021b      	lsls	r3, r3, #8
 8000ae2:	d400      	bmi.n	8000ae6 <__aeabi_dadd+0x63a>
 8000ae4:	e607      	b.n	80006f6 <__aeabi_dadd+0x24a>
 8000ae6:	4652      	mov	r2, sl
 8000ae8:	4b1f      	ldr	r3, [pc, #124]	; (8000b68 <__aeabi_dadd+0x6bc>)
 8000aea:	2601      	movs	r6, #1
 8000aec:	401a      	ands	r2, r3
 8000aee:	4692      	mov	sl, r2
 8000af0:	e601      	b.n	80006f6 <__aeabi_dadd+0x24a>
 8000af2:	003c      	movs	r4, r7
 8000af4:	000e      	movs	r6, r1
 8000af6:	3c20      	subs	r4, #32
 8000af8:	40e6      	lsrs	r6, r4
 8000afa:	2f20      	cmp	r7, #32
 8000afc:	d003      	beq.n	8000b06 <__aeabi_dadd+0x65a>
 8000afe:	2440      	movs	r4, #64	; 0x40
 8000b00:	1be4      	subs	r4, r4, r7
 8000b02:	40a1      	lsls	r1, r4
 8000b04:	430b      	orrs	r3, r1
 8000b06:	001c      	movs	r4, r3
 8000b08:	1e63      	subs	r3, r4, #1
 8000b0a:	419c      	sbcs	r4, r3
 8000b0c:	4334      	orrs	r4, r6
 8000b0e:	e65e      	b.n	80007ce <__aeabi_dadd+0x322>
 8000b10:	4443      	add	r3, r8
 8000b12:	4283      	cmp	r3, r0
 8000b14:	4180      	sbcs	r0, r0
 8000b16:	4449      	add	r1, r9
 8000b18:	468a      	mov	sl, r1
 8000b1a:	4240      	negs	r0, r0
 8000b1c:	001c      	movs	r4, r3
 8000b1e:	4482      	add	sl, r0
 8000b20:	e6bc      	b.n	800089c <__aeabi_dadd+0x3f0>
 8000b22:	4653      	mov	r3, sl
 8000b24:	4323      	orrs	r3, r4
 8000b26:	d100      	bne.n	8000b2a <__aeabi_dadd+0x67e>
 8000b28:	e6a9      	b.n	800087e <__aeabi_dadd+0x3d2>
 8000b2a:	e5e4      	b.n	80006f6 <__aeabi_dadd+0x24a>
 8000b2c:	074a      	lsls	r2, r1, #29
 8000b2e:	4313      	orrs	r3, r2
 8000b30:	2280      	movs	r2, #128	; 0x80
 8000b32:	08c9      	lsrs	r1, r1, #3
 8000b34:	0312      	lsls	r2, r2, #12
 8000b36:	4211      	tst	r1, r2
 8000b38:	d009      	beq.n	8000b4e <__aeabi_dadd+0x6a2>
 8000b3a:	4648      	mov	r0, r9
 8000b3c:	08c4      	lsrs	r4, r0, #3
 8000b3e:	4214      	tst	r4, r2
 8000b40:	d105      	bne.n	8000b4e <__aeabi_dadd+0x6a2>
 8000b42:	4643      	mov	r3, r8
 8000b44:	4665      	mov	r5, ip
 8000b46:	0021      	movs	r1, r4
 8000b48:	08db      	lsrs	r3, r3, #3
 8000b4a:	0742      	lsls	r2, r0, #29
 8000b4c:	4313      	orrs	r3, r2
 8000b4e:	0f5a      	lsrs	r2, r3, #29
 8000b50:	00db      	lsls	r3, r3, #3
 8000b52:	08db      	lsrs	r3, r3, #3
 8000b54:	0752      	lsls	r2, r2, #29
 8000b56:	4313      	orrs	r3, r2
 8000b58:	e5fa      	b.n	8000750 <__aeabi_dadd+0x2a4>
 8000b5a:	2300      	movs	r3, #0
 8000b5c:	4a01      	ldr	r2, [pc, #4]	; (8000b64 <__aeabi_dadd+0x6b8>)
 8000b5e:	001c      	movs	r4, r3
 8000b60:	e540      	b.n	80005e4 <__aeabi_dadd+0x138>
 8000b62:	46c0      	nop			; (mov r8, r8)
 8000b64:	000007ff 	.word	0x000007ff
 8000b68:	ff7fffff 	.word	0xff7fffff

08000b6c <__aeabi_ddiv>:
 8000b6c:	b5f0      	push	{r4, r5, r6, r7, lr}
 8000b6e:	4657      	mov	r7, sl
 8000b70:	464e      	mov	r6, r9
 8000b72:	4645      	mov	r5, r8
 8000b74:	46de      	mov	lr, fp
 8000b76:	b5e0      	push	{r5, r6, r7, lr}
 8000b78:	030c      	lsls	r4, r1, #12
 8000b7a:	001f      	movs	r7, r3
 8000b7c:	004b      	lsls	r3, r1, #1
 8000b7e:	4681      	mov	r9, r0
 8000b80:	4692      	mov	sl, r2
 8000b82:	0005      	movs	r5, r0
 8000b84:	b085      	sub	sp, #20
 8000b86:	0b24      	lsrs	r4, r4, #12
 8000b88:	0d5b      	lsrs	r3, r3, #21
 8000b8a:	0fce      	lsrs	r6, r1, #31
 8000b8c:	2b00      	cmp	r3, #0
 8000b8e:	d100      	bne.n	8000b92 <__aeabi_ddiv+0x26>
 8000b90:	e152      	b.n	8000e38 <__aeabi_ddiv+0x2cc>
 8000b92:	4ad2      	ldr	r2, [pc, #840]	; (8000edc <__aeabi_ddiv+0x370>)
 8000b94:	4293      	cmp	r3, r2
 8000b96:	d100      	bne.n	8000b9a <__aeabi_ddiv+0x2e>
 8000b98:	e16e      	b.n	8000e78 <__aeabi_ddiv+0x30c>
 8000b9a:	0f42      	lsrs	r2, r0, #29
 8000b9c:	00e4      	lsls	r4, r4, #3
 8000b9e:	4314      	orrs	r4, r2
 8000ba0:	2280      	movs	r2, #128	; 0x80
 8000ba2:	0412      	lsls	r2, r2, #16
 8000ba4:	4322      	orrs	r2, r4
 8000ba6:	4690      	mov	r8, r2
 8000ba8:	4acd      	ldr	r2, [pc, #820]	; (8000ee0 <__aeabi_ddiv+0x374>)
 8000baa:	00c5      	lsls	r5, r0, #3
 8000bac:	4693      	mov	fp, r2
 8000bae:	449b      	add	fp, r3
 8000bb0:	2300      	movs	r3, #0
 8000bb2:	4699      	mov	r9, r3
 8000bb4:	9300      	str	r3, [sp, #0]
 8000bb6:	033c      	lsls	r4, r7, #12
 8000bb8:	007b      	lsls	r3, r7, #1
 8000bba:	4650      	mov	r0, sl
 8000bbc:	0b24      	lsrs	r4, r4, #12
 8000bbe:	0d5b      	lsrs	r3, r3, #21
 8000bc0:	0fff      	lsrs	r7, r7, #31
 8000bc2:	2b00      	cmp	r3, #0
 8000bc4:	d100      	bne.n	8000bc8 <__aeabi_ddiv+0x5c>
 8000bc6:	e11a      	b.n	8000dfe <__aeabi_ddiv+0x292>
 8000bc8:	4ac4      	ldr	r2, [pc, #784]	; (8000edc <__aeabi_ddiv+0x370>)
 8000bca:	4293      	cmp	r3, r2
 8000bcc:	d100      	bne.n	8000bd0 <__aeabi_ddiv+0x64>
 8000bce:	e15e      	b.n	8000e8e <__aeabi_ddiv+0x322>
 8000bd0:	0f42      	lsrs	r2, r0, #29
 8000bd2:	00e4      	lsls	r4, r4, #3
 8000bd4:	4322      	orrs	r2, r4
 8000bd6:	2480      	movs	r4, #128	; 0x80
 8000bd8:	0424      	lsls	r4, r4, #16
 8000bda:	4314      	orrs	r4, r2
 8000bdc:	4ac0      	ldr	r2, [pc, #768]	; (8000ee0 <__aeabi_ddiv+0x374>)
 8000bde:	00c1      	lsls	r1, r0, #3
 8000be0:	4694      	mov	ip, r2
 8000be2:	465a      	mov	r2, fp
 8000be4:	4463      	add	r3, ip
 8000be6:	1ad3      	subs	r3, r2, r3
 8000be8:	469b      	mov	fp, r3
 8000bea:	2000      	movs	r0, #0
 8000bec:	0033      	movs	r3, r6
 8000bee:	407b      	eors	r3, r7
 8000bf0:	469a      	mov	sl, r3
 8000bf2:	464b      	mov	r3, r9
 8000bf4:	2b0f      	cmp	r3, #15
 8000bf6:	d827      	bhi.n	8000c48 <__aeabi_ddiv+0xdc>
 8000bf8:	4aba      	ldr	r2, [pc, #744]	; (8000ee4 <__aeabi_ddiv+0x378>)
 8000bfa:	009b      	lsls	r3, r3, #2
 8000bfc:	58d3      	ldr	r3, [r2, r3]
 8000bfe:	469f      	mov	pc, r3
 8000c00:	46b2      	mov	sl, r6
 8000c02:	9b00      	ldr	r3, [sp, #0]
 8000c04:	2b02      	cmp	r3, #2
 8000c06:	d016      	beq.n	8000c36 <__aeabi_ddiv+0xca>
 8000c08:	2b03      	cmp	r3, #3
 8000c0a:	d100      	bne.n	8000c0e <__aeabi_ddiv+0xa2>
 8000c0c:	e287      	b.n	800111e <__aeabi_ddiv+0x5b2>
 8000c0e:	2b01      	cmp	r3, #1
 8000c10:	d000      	beq.n	8000c14 <__aeabi_ddiv+0xa8>
 8000c12:	e0d5      	b.n	8000dc0 <__aeabi_ddiv+0x254>
 8000c14:	2300      	movs	r3, #0
 8000c16:	2200      	movs	r2, #0
 8000c18:	2500      	movs	r5, #0
 8000c1a:	051b      	lsls	r3, r3, #20
 8000c1c:	4313      	orrs	r3, r2
 8000c1e:	4652      	mov	r2, sl
 8000c20:	07d2      	lsls	r2, r2, #31
 8000c22:	4313      	orrs	r3, r2
 8000c24:	0028      	movs	r0, r5
 8000c26:	0019      	movs	r1, r3
 8000c28:	b005      	add	sp, #20
 8000c2a:	bcf0      	pop	{r4, r5, r6, r7}
 8000c2c:	46bb      	mov	fp, r7
 8000c2e:	46b2      	mov	sl, r6
 8000c30:	46a9      	mov	r9, r5
 8000c32:	46a0      	mov	r8, r4
 8000c34:	bdf0      	pop	{r4, r5, r6, r7, pc}
 8000c36:	2200      	movs	r2, #0
 8000c38:	2500      	movs	r5, #0
 8000c3a:	4ba8      	ldr	r3, [pc, #672]	; (8000edc <__aeabi_ddiv+0x370>)
 8000c3c:	e7ed      	b.n	8000c1a <__aeabi_ddiv+0xae>
 8000c3e:	46ba      	mov	sl, r7
 8000c40:	46a0      	mov	r8, r4
 8000c42:	000d      	movs	r5, r1
 8000c44:	9000      	str	r0, [sp, #0]
 8000c46:	e7dc      	b.n	8000c02 <__aeabi_ddiv+0x96>
 8000c48:	4544      	cmp	r4, r8
 8000c4a:	d200      	bcs.n	8000c4e <__aeabi_ddiv+0xe2>
 8000c4c:	e1c4      	b.n	8000fd8 <__aeabi_ddiv+0x46c>
 8000c4e:	d100      	bne.n	8000c52 <__aeabi_ddiv+0xe6>
 8000c50:	e1bf      	b.n	8000fd2 <__aeabi_ddiv+0x466>
 8000c52:	2301      	movs	r3, #1
 8000c54:	425b      	negs	r3, r3
 8000c56:	469c      	mov	ip, r3
 8000c58:	002e      	movs	r6, r5
 8000c5a:	4640      	mov	r0, r8
 8000c5c:	2500      	movs	r5, #0
 8000c5e:	44e3      	add	fp, ip
 8000c60:	0223      	lsls	r3, r4, #8
 8000c62:	0e0c      	lsrs	r4, r1, #24
 8000c64:	431c      	orrs	r4, r3
 8000c66:	0c1b      	lsrs	r3, r3, #16
 8000c68:	4699      	mov	r9, r3
 8000c6a:	0423      	lsls	r3, r4, #16
 8000c6c:	020a      	lsls	r2, r1, #8
 8000c6e:	0c1f      	lsrs	r7, r3, #16
 8000c70:	4649      	mov	r1, r9
 8000c72:	9200      	str	r2, [sp, #0]
 8000c74:	9701      	str	r7, [sp, #4]
 8000c76:	f7ff faeb 	bl	8000250 <__aeabi_uidivmod>
 8000c7a:	0002      	movs	r2, r0
 8000c7c:	437a      	muls	r2, r7
 8000c7e:	040b      	lsls	r3, r1, #16
 8000c80:	0c31      	lsrs	r1, r6, #16
 8000c82:	4680      	mov	r8, r0
 8000c84:	4319      	orrs	r1, r3
 8000c86:	428a      	cmp	r2, r1
 8000c88:	d907      	bls.n	8000c9a <__aeabi_ddiv+0x12e>
 8000c8a:	2301      	movs	r3, #1
 8000c8c:	425b      	negs	r3, r3
 8000c8e:	469c      	mov	ip, r3
 8000c90:	1909      	adds	r1, r1, r4
 8000c92:	44e0      	add	r8, ip
 8000c94:	428c      	cmp	r4, r1
 8000c96:	d800      	bhi.n	8000c9a <__aeabi_ddiv+0x12e>
 8000c98:	e201      	b.n	800109e <__aeabi_ddiv+0x532>
 8000c9a:	1a88      	subs	r0, r1, r2
 8000c9c:	4649      	mov	r1, r9
 8000c9e:	f7ff fad7 	bl	8000250 <__aeabi_uidivmod>
 8000ca2:	9a01      	ldr	r2, [sp, #4]
 8000ca4:	0436      	lsls	r6, r6, #16
 8000ca6:	4342      	muls	r2, r0
 8000ca8:	0409      	lsls	r1, r1, #16
 8000caa:	0c36      	lsrs	r6, r6, #16
 8000cac:	0003      	movs	r3, r0
 8000cae:	430e      	orrs	r6, r1
 8000cb0:	42b2      	cmp	r2, r6
 8000cb2:	d904      	bls.n	8000cbe <__aeabi_ddiv+0x152>
 8000cb4:	1936      	adds	r6, r6, r4
 8000cb6:	3b01      	subs	r3, #1
 8000cb8:	42b4      	cmp	r4, r6
 8000cba:	d800      	bhi.n	8000cbe <__aeabi_ddiv+0x152>
 8000cbc:	e1e9      	b.n	8001092 <__aeabi_ddiv+0x526>
 8000cbe:	1ab0      	subs	r0, r6, r2
 8000cc0:	4642      	mov	r2, r8
 8000cc2:	9e00      	ldr	r6, [sp, #0]
 8000cc4:	0412      	lsls	r2, r2, #16
 8000cc6:	431a      	orrs	r2, r3
 8000cc8:	0c33      	lsrs	r3, r6, #16
 8000cca:	001f      	movs	r7, r3
 8000ccc:	0c11      	lsrs	r1, r2, #16
 8000cce:	4690      	mov	r8, r2
 8000cd0:	9302      	str	r3, [sp, #8]
 8000cd2:	0413      	lsls	r3, r2, #16
 8000cd4:	0432      	lsls	r2, r6, #16
 8000cd6:	0c16      	lsrs	r6, r2, #16
 8000cd8:	0032      	movs	r2, r6
 8000cda:	0c1b      	lsrs	r3, r3, #16
 8000cdc:	435a      	muls	r2, r3
 8000cde:	9603      	str	r6, [sp, #12]
 8000ce0:	437b      	muls	r3, r7
 8000ce2:	434e      	muls	r6, r1
 8000ce4:	4379      	muls	r1, r7
 8000ce6:	0c17      	lsrs	r7, r2, #16
 8000ce8:	46bc      	mov	ip, r7
 8000cea:	199b      	adds	r3, r3, r6
 8000cec:	4463      	add	r3, ip
 8000cee:	429e      	cmp	r6, r3
 8000cf0:	d903      	bls.n	8000cfa <__aeabi_ddiv+0x18e>
 8000cf2:	2680      	movs	r6, #128	; 0x80
 8000cf4:	0276      	lsls	r6, r6, #9
 8000cf6:	46b4      	mov	ip, r6
 8000cf8:	4461      	add	r1, ip
 8000cfa:	0c1e      	lsrs	r6, r3, #16
 8000cfc:	1871      	adds	r1, r6, r1
 8000cfe:	0416      	lsls	r6, r2, #16
 8000d00:	041b      	lsls	r3, r3, #16
 8000d02:	0c36      	lsrs	r6, r6, #16
 8000d04:	199e      	adds	r6, r3, r6
 8000d06:	4288      	cmp	r0, r1
 8000d08:	d302      	bcc.n	8000d10 <__aeabi_ddiv+0x1a4>
 8000d0a:	d112      	bne.n	8000d32 <__aeabi_ddiv+0x1c6>
 8000d0c:	42b5      	cmp	r5, r6
 8000d0e:	d210      	bcs.n	8000d32 <__aeabi_ddiv+0x1c6>
 8000d10:	4643      	mov	r3, r8
 8000d12:	1e5a      	subs	r2, r3, #1
 8000d14:	9b00      	ldr	r3, [sp, #0]
 8000d16:	469c      	mov	ip, r3
 8000d18:	4465      	add	r5, ip
 8000d1a:	001f      	movs	r7, r3
 8000d1c:	429d      	cmp	r5, r3
 8000d1e:	419b      	sbcs	r3, r3
 8000d20:	425b      	negs	r3, r3
 8000d22:	191b      	adds	r3, r3, r4
 8000d24:	18c0      	adds	r0, r0, r3
 8000d26:	4284      	cmp	r4, r0
 8000d28:	d200      	bcs.n	8000d2c <__aeabi_ddiv+0x1c0>
 8000d2a:	e19e      	b.n	800106a <__aeabi_ddiv+0x4fe>
 8000d2c:	d100      	bne.n	8000d30 <__aeabi_ddiv+0x1c4>
 8000d2e:	e199      	b.n	8001064 <__aeabi_ddiv+0x4f8>
 8000d30:	4690      	mov	r8, r2
 8000d32:	1bae      	subs	r6, r5, r6
 8000d34:	42b5      	cmp	r5, r6
 8000d36:	41ad      	sbcs	r5, r5
 8000d38:	1a40      	subs	r0, r0, r1
 8000d3a:	426d      	negs	r5, r5
 8000d3c:	1b40      	subs	r0, r0, r5
 8000d3e:	4284      	cmp	r4, r0
 8000d40:	d100      	bne.n	8000d44 <__aeabi_ddiv+0x1d8>
 8000d42:	e1d2      	b.n	80010ea <__aeabi_ddiv+0x57e>
 8000d44:	4649      	mov	r1, r9
 8000d46:	f7ff fa83 	bl	8000250 <__aeabi_uidivmod>
 8000d4a:	9a01      	ldr	r2, [sp, #4]
 8000d4c:	040b      	lsls	r3, r1, #16
 8000d4e:	4342      	muls	r2, r0
 8000d50:	0c31      	lsrs	r1, r6, #16
 8000d52:	0005      	movs	r5, r0
 8000d54:	4319      	orrs	r1, r3
 8000d56:	428a      	cmp	r2, r1
 8000d58:	d900      	bls.n	8000d5c <__aeabi_ddiv+0x1f0>
 8000d5a:	e16c      	b.n	8001036 <__aeabi_ddiv+0x4ca>
 8000d5c:	1a88      	subs	r0, r1, r2
 8000d5e:	4649      	mov	r1, r9
 8000d60:	f7ff fa76 	bl	8000250 <__aeabi_uidivmod>
 8000d64:	9a01      	ldr	r2, [sp, #4]
 8000d66:	0436      	lsls	r6, r6, #16
 8000d68:	4342      	muls	r2, r0
 8000d6a:	0409      	lsls	r1, r1, #16
 8000d6c:	0c36      	lsrs	r6, r6, #16
 8000d6e:	0003      	movs	r3, r0
 8000d70:	430e      	orrs	r6, r1
 8000d72:	42b2      	cmp	r2, r6
 8000d74:	d900      	bls.n	8000d78 <__aeabi_ddiv+0x20c>
 8000d76:	e153      	b.n	8001020 <__aeabi_ddiv+0x4b4>
 8000d78:	9803      	ldr	r0, [sp, #12]
 8000d7a:	1ab6      	subs	r6, r6, r2
 8000d7c:	0002      	movs	r2, r0
 8000d7e:	042d      	lsls	r5, r5, #16
 8000d80:	431d      	orrs	r5, r3
 8000d82:	9f02      	ldr	r7, [sp, #8]
 8000d84:	042b      	lsls	r3, r5, #16
 8000d86:	0c1b      	lsrs	r3, r3, #16
 8000d88:	435a      	muls	r2, r3
 8000d8a:	437b      	muls	r3, r7
 8000d8c:	469c      	mov	ip, r3
 8000d8e:	0c29      	lsrs	r1, r5, #16
 8000d90:	4348      	muls	r0, r1
 8000d92:	0c13      	lsrs	r3, r2, #16
 8000d94:	4484      	add	ip, r0
 8000d96:	4463      	add	r3, ip
 8000d98:	4379      	muls	r1, r7
 8000d9a:	4298      	cmp	r0, r3
 8000d9c:	d903      	bls.n	8000da6 <__aeabi_ddiv+0x23a>
 8000d9e:	2080      	movs	r0, #128	; 0x80
 8000da0:	0240      	lsls	r0, r0, #9
 8000da2:	4684      	mov	ip, r0
 8000da4:	4461      	add	r1, ip
 8000da6:	0c18      	lsrs	r0, r3, #16
 8000da8:	0412      	lsls	r2, r2, #16
 8000daa:	041b      	lsls	r3, r3, #16
 8000dac:	0c12      	lsrs	r2, r2, #16
 8000dae:	1840      	adds	r0, r0, r1
 8000db0:	189b      	adds	r3, r3, r2
 8000db2:	4286      	cmp	r6, r0
 8000db4:	d200      	bcs.n	8000db8 <__aeabi_ddiv+0x24c>
 8000db6:	e100      	b.n	8000fba <__aeabi_ddiv+0x44e>
 8000db8:	d100      	bne.n	8000dbc <__aeabi_ddiv+0x250>
 8000dba:	e0fb      	b.n	8000fb4 <__aeabi_ddiv+0x448>
 8000dbc:	2301      	movs	r3, #1
 8000dbe:	431d      	orrs	r5, r3
 8000dc0:	4b49      	ldr	r3, [pc, #292]	; (8000ee8 <__aeabi_ddiv+0x37c>)
 8000dc2:	445b      	add	r3, fp
 8000dc4:	2b00      	cmp	r3, #0
 8000dc6:	dc00      	bgt.n	8000dca <__aeabi_ddiv+0x25e>
 8000dc8:	e0aa      	b.n	8000f20 <__aeabi_ddiv+0x3b4>
 8000dca:	076a      	lsls	r2, r5, #29
 8000dcc:	d000      	beq.n	8000dd0 <__aeabi_ddiv+0x264>
 8000dce:	e13d      	b.n	800104c <__aeabi_ddiv+0x4e0>
 8000dd0:	08e9      	lsrs	r1, r5, #3
 8000dd2:	4642      	mov	r2, r8
 8000dd4:	01d2      	lsls	r2, r2, #7
 8000dd6:	d506      	bpl.n	8000de6 <__aeabi_ddiv+0x27a>
 8000dd8:	4642      	mov	r2, r8
 8000dda:	4b44      	ldr	r3, [pc, #272]	; (8000eec <__aeabi_ddiv+0x380>)
 8000ddc:	401a      	ands	r2, r3
 8000dde:	2380      	movs	r3, #128	; 0x80
 8000de0:	4690      	mov	r8, r2
 8000de2:	00db      	lsls	r3, r3, #3
 8000de4:	445b      	add	r3, fp
 8000de6:	4a42      	ldr	r2, [pc, #264]	; (8000ef0 <__aeabi_ddiv+0x384>)
 8000de8:	4293      	cmp	r3, r2
 8000dea:	dd00      	ble.n	8000dee <__aeabi_ddiv+0x282>
 8000dec:	e723      	b.n	8000c36 <__aeabi_ddiv+0xca>
 8000dee:	4642      	mov	r2, r8
 8000df0:	055b      	lsls	r3, r3, #21
 8000df2:	0755      	lsls	r5, r2, #29
 8000df4:	0252      	lsls	r2, r2, #9
 8000df6:	430d      	orrs	r5, r1
 8000df8:	0b12      	lsrs	r2, r2, #12
 8000dfa:	0d5b      	lsrs	r3, r3, #21
 8000dfc:	e70d      	b.n	8000c1a <__aeabi_ddiv+0xae>
 8000dfe:	4651      	mov	r1, sl
 8000e00:	4321      	orrs	r1, r4
 8000e02:	d100      	bne.n	8000e06 <__aeabi_ddiv+0x29a>
 8000e04:	e07c      	b.n	8000f00 <__aeabi_ddiv+0x394>
 8000e06:	2c00      	cmp	r4, #0
 8000e08:	d100      	bne.n	8000e0c <__aeabi_ddiv+0x2a0>
 8000e0a:	e0fb      	b.n	8001004 <__aeabi_ddiv+0x498>
 8000e0c:	0020      	movs	r0, r4
 8000e0e:	f001 f96f 	bl	80020f0 <__clzsi2>
 8000e12:	0002      	movs	r2, r0
 8000e14:	3a0b      	subs	r2, #11
 8000e16:	231d      	movs	r3, #29
 8000e18:	1a9b      	subs	r3, r3, r2
 8000e1a:	4652      	mov	r2, sl
 8000e1c:	0001      	movs	r1, r0
 8000e1e:	40da      	lsrs	r2, r3
 8000e20:	4653      	mov	r3, sl
 8000e22:	3908      	subs	r1, #8
 8000e24:	408b      	lsls	r3, r1
 8000e26:	408c      	lsls	r4, r1
 8000e28:	0019      	movs	r1, r3
 8000e2a:	4314      	orrs	r4, r2
 8000e2c:	4b31      	ldr	r3, [pc, #196]	; (8000ef4 <__aeabi_ddiv+0x388>)
 8000e2e:	4458      	add	r0, fp
 8000e30:	469b      	mov	fp, r3
 8000e32:	4483      	add	fp, r0
 8000e34:	2000      	movs	r0, #0
 8000e36:	e6d9      	b.n	8000bec <__aeabi_ddiv+0x80>
 8000e38:	0003      	movs	r3, r0
 8000e3a:	4323      	orrs	r3, r4
 8000e3c:	4698      	mov	r8, r3
 8000e3e:	d044      	beq.n	8000eca <__aeabi_ddiv+0x35e>
 8000e40:	2c00      	cmp	r4, #0
 8000e42:	d100      	bne.n	8000e46 <__aeabi_ddiv+0x2da>
 8000e44:	e0cf      	b.n	8000fe6 <__aeabi_ddiv+0x47a>
 8000e46:	0020      	movs	r0, r4
 8000e48:	f001 f952 	bl	80020f0 <__clzsi2>
 8000e4c:	0001      	movs	r1, r0
 8000e4e:	0002      	movs	r2, r0
 8000e50:	390b      	subs	r1, #11
 8000e52:	231d      	movs	r3, #29
 8000e54:	1a5b      	subs	r3, r3, r1
 8000e56:	4649      	mov	r1, r9
 8000e58:	0010      	movs	r0, r2
 8000e5a:	40d9      	lsrs	r1, r3
 8000e5c:	3808      	subs	r0, #8
 8000e5e:	4084      	lsls	r4, r0
 8000e60:	000b      	movs	r3, r1
 8000e62:	464d      	mov	r5, r9
 8000e64:	4323      	orrs	r3, r4
 8000e66:	4698      	mov	r8, r3
 8000e68:	4085      	lsls	r5, r0
 8000e6a:	4b23      	ldr	r3, [pc, #140]	; (8000ef8 <__aeabi_ddiv+0x38c>)
 8000e6c:	1a9b      	subs	r3, r3, r2
 8000e6e:	469b      	mov	fp, r3
 8000e70:	2300      	movs	r3, #0
 8000e72:	4699      	mov	r9, r3
 8000e74:	9300      	str	r3, [sp, #0]
 8000e76:	e69e      	b.n	8000bb6 <__aeabi_ddiv+0x4a>
 8000e78:	0002      	movs	r2, r0
 8000e7a:	4322      	orrs	r2, r4
 8000e7c:	4690      	mov	r8, r2
 8000e7e:	d11d      	bne.n	8000ebc <__aeabi_ddiv+0x350>
 8000e80:	2208      	movs	r2, #8
 8000e82:	469b      	mov	fp, r3
 8000e84:	2302      	movs	r3, #2
 8000e86:	2500      	movs	r5, #0
 8000e88:	4691      	mov	r9, r2
 8000e8a:	9300      	str	r3, [sp, #0]
 8000e8c:	e693      	b.n	8000bb6 <__aeabi_ddiv+0x4a>
 8000e8e:	4651      	mov	r1, sl
 8000e90:	4321      	orrs	r1, r4
 8000e92:	d109      	bne.n	8000ea8 <__aeabi_ddiv+0x33c>
 8000e94:	2302      	movs	r3, #2
 8000e96:	464a      	mov	r2, r9
 8000e98:	431a      	orrs	r2, r3
 8000e9a:	4b18      	ldr	r3, [pc, #96]	; (8000efc <__aeabi_ddiv+0x390>)
 8000e9c:	4691      	mov	r9, r2
 8000e9e:	469c      	mov	ip, r3
 8000ea0:	2400      	movs	r4, #0
 8000ea2:	2002      	movs	r0, #2
 8000ea4:	44e3      	add	fp, ip
 8000ea6:	e6a1      	b.n	8000bec <__aeabi_ddiv+0x80>
 8000ea8:	2303      	movs	r3, #3
 8000eaa:	464a      	mov	r2, r9
 8000eac:	431a      	orrs	r2, r3
 8000eae:	4b13      	ldr	r3, [pc, #76]	; (8000efc <__aeabi_ddiv+0x390>)
 8000eb0:	4691      	mov	r9, r2
 8000eb2:	469c      	mov	ip, r3
 8000eb4:	4651      	mov	r1, sl
 8000eb6:	2003      	movs	r0, #3
 8000eb8:	44e3      	add	fp, ip
 8000eba:	e697      	b.n	8000bec <__aeabi_ddiv+0x80>
 8000ebc:	220c      	movs	r2, #12
 8000ebe:	469b      	mov	fp, r3
 8000ec0:	2303      	movs	r3, #3
 8000ec2:	46a0      	mov	r8, r4
 8000ec4:	4691      	mov	r9, r2
 8000ec6:	9300      	str	r3, [sp, #0]
 8000ec8:	e675      	b.n	8000bb6 <__aeabi_ddiv+0x4a>
 8000eca:	2304      	movs	r3, #4
 8000ecc:	4699      	mov	r9, r3
 8000ece:	2300      	movs	r3, #0
 8000ed0:	469b      	mov	fp, r3
 8000ed2:	3301      	adds	r3, #1
 8000ed4:	2500      	movs	r5, #0
 8000ed6:	9300      	str	r3, [sp, #0]
 8000ed8:	e66d      	b.n	8000bb6 <__aeabi_ddiv+0x4a>
 8000eda:	46c0      	nop			; (mov r8, r8)
 8000edc:	000007ff 	.word	0x000007ff
 8000ee0:	fffffc01 	.word	0xfffffc01
 8000ee4:	080067c0 	.word	0x080067c0
 8000ee8:	000003ff 	.word	0x000003ff
 8000eec:	feffffff 	.word	0xfeffffff
 8000ef0:	000007fe 	.word	0x000007fe
 8000ef4:	000003f3 	.word	0x000003f3
 8000ef8:	fffffc0d 	.word	0xfffffc0d
 8000efc:	fffff801 	.word	0xfffff801
 8000f00:	464a      	mov	r2, r9
 8000f02:	2301      	movs	r3, #1
 8000f04:	431a      	orrs	r2, r3
 8000f06:	4691      	mov	r9, r2
 8000f08:	2400      	movs	r4, #0
 8000f0a:	2001      	movs	r0, #1
 8000f0c:	e66e      	b.n	8000bec <__aeabi_ddiv+0x80>
 8000f0e:	2300      	movs	r3, #0
 8000f10:	2280      	movs	r2, #128	; 0x80
 8000f12:	469a      	mov	sl, r3
 8000f14:	2500      	movs	r5, #0
 8000f16:	4b88      	ldr	r3, [pc, #544]	; (8001138 <__aeabi_ddiv+0x5cc>)
 8000f18:	0312      	lsls	r2, r2, #12
 8000f1a:	e67e      	b.n	8000c1a <__aeabi_ddiv+0xae>
 8000f1c:	2501      	movs	r5, #1
 8000f1e:	426d      	negs	r5, r5
 8000f20:	2201      	movs	r2, #1
 8000f22:	1ad2      	subs	r2, r2, r3
 8000f24:	2a38      	cmp	r2, #56	; 0x38
 8000f26:	dd00      	ble.n	8000f2a <__aeabi_ddiv+0x3be>
 8000f28:	e674      	b.n	8000c14 <__aeabi_ddiv+0xa8>
 8000f2a:	2a1f      	cmp	r2, #31
 8000f2c:	dc00      	bgt.n	8000f30 <__aeabi_ddiv+0x3c4>
 8000f2e:	e0bd      	b.n	80010ac <__aeabi_ddiv+0x540>
 8000f30:	211f      	movs	r1, #31
 8000f32:	4249      	negs	r1, r1
 8000f34:	1acb      	subs	r3, r1, r3
 8000f36:	4641      	mov	r1, r8
 8000f38:	40d9      	lsrs	r1, r3
 8000f3a:	000b      	movs	r3, r1
 8000f3c:	2a20      	cmp	r2, #32
 8000f3e:	d004      	beq.n	8000f4a <__aeabi_ddiv+0x3de>
 8000f40:	4641      	mov	r1, r8
 8000f42:	4a7e      	ldr	r2, [pc, #504]	; (800113c <__aeabi_ddiv+0x5d0>)
 8000f44:	445a      	add	r2, fp
 8000f46:	4091      	lsls	r1, r2
 8000f48:	430d      	orrs	r5, r1
 8000f4a:	0029      	movs	r1, r5
 8000f4c:	1e4a      	subs	r2, r1, #1
 8000f4e:	4191      	sbcs	r1, r2
 8000f50:	4319      	orrs	r1, r3
 8000f52:	2307      	movs	r3, #7
 8000f54:	001d      	movs	r5, r3
 8000f56:	2200      	movs	r2, #0
 8000f58:	400d      	ands	r5, r1
 8000f5a:	420b      	tst	r3, r1
 8000f5c:	d100      	bne.n	8000f60 <__aeabi_ddiv+0x3f4>
 8000f5e:	e0d0      	b.n	8001102 <__aeabi_ddiv+0x596>
 8000f60:	220f      	movs	r2, #15
 8000f62:	2300      	movs	r3, #0
 8000f64:	400a      	ands	r2, r1
 8000f66:	2a04      	cmp	r2, #4
 8000f68:	d100      	bne.n	8000f6c <__aeabi_ddiv+0x400>
 8000f6a:	e0c7      	b.n	80010fc <__aeabi_ddiv+0x590>
 8000f6c:	1d0a      	adds	r2, r1, #4
 8000f6e:	428a      	cmp	r2, r1
 8000f70:	4189      	sbcs	r1, r1
 8000f72:	4249      	negs	r1, r1
 8000f74:	185b      	adds	r3, r3, r1
 8000f76:	0011      	movs	r1, r2
 8000f78:	021a      	lsls	r2, r3, #8
 8000f7a:	d400      	bmi.n	8000f7e <__aeabi_ddiv+0x412>
 8000f7c:	e0be      	b.n	80010fc <__aeabi_ddiv+0x590>
 8000f7e:	2301      	movs	r3, #1
 8000f80:	2200      	movs	r2, #0
 8000f82:	2500      	movs	r5, #0
 8000f84:	e649      	b.n	8000c1a <__aeabi_ddiv+0xae>
 8000f86:	2280      	movs	r2, #128	; 0x80
 8000f88:	4643      	mov	r3, r8
 8000f8a:	0312      	lsls	r2, r2, #12
 8000f8c:	4213      	tst	r3, r2
 8000f8e:	d008      	beq.n	8000fa2 <__aeabi_ddiv+0x436>
 8000f90:	4214      	tst	r4, r2
 8000f92:	d106      	bne.n	8000fa2 <__aeabi_ddiv+0x436>
 8000f94:	4322      	orrs	r2, r4
 8000f96:	0312      	lsls	r2, r2, #12
 8000f98:	46ba      	mov	sl, r7
 8000f9a:	000d      	movs	r5, r1
 8000f9c:	4b66      	ldr	r3, [pc, #408]	; (8001138 <__aeabi_ddiv+0x5cc>)
 8000f9e:	0b12      	lsrs	r2, r2, #12
 8000fa0:	e63b      	b.n	8000c1a <__aeabi_ddiv+0xae>
 8000fa2:	2280      	movs	r2, #128	; 0x80
 8000fa4:	4643      	mov	r3, r8
 8000fa6:	0312      	lsls	r2, r2, #12
 8000fa8:	431a      	orrs	r2, r3
 8000faa:	0312      	lsls	r2, r2, #12
 8000fac:	46b2      	mov	sl, r6
 8000fae:	4b62      	ldr	r3, [pc, #392]	; (8001138 <__aeabi_ddiv+0x5cc>)
 8000fb0:	0b12      	lsrs	r2, r2, #12
 8000fb2:	e632      	b.n	8000c1a <__aeabi_ddiv+0xae>
 8000fb4:	2b00      	cmp	r3, #0
 8000fb6:	d100      	bne.n	8000fba <__aeabi_ddiv+0x44e>
 8000fb8:	e702      	b.n	8000dc0 <__aeabi_ddiv+0x254>
 8000fba:	19a6      	adds	r6, r4, r6
 8000fbc:	1e6a      	subs	r2, r5, #1
 8000fbe:	42a6      	cmp	r6, r4
 8000fc0:	d200      	bcs.n	8000fc4 <__aeabi_ddiv+0x458>
 8000fc2:	e089      	b.n	80010d8 <__aeabi_ddiv+0x56c>
 8000fc4:	4286      	cmp	r6, r0
 8000fc6:	d200      	bcs.n	8000fca <__aeabi_ddiv+0x45e>
 8000fc8:	e09f      	b.n	800110a <__aeabi_ddiv+0x59e>
 8000fca:	d100      	bne.n	8000fce <__aeabi_ddiv+0x462>
 8000fcc:	e0af      	b.n	800112e <__aeabi_ddiv+0x5c2>
 8000fce:	0015      	movs	r5, r2
 8000fd0:	e6f4      	b.n	8000dbc <__aeabi_ddiv+0x250>
 8000fd2:	42a9      	cmp	r1, r5
 8000fd4:	d900      	bls.n	8000fd8 <__aeabi_ddiv+0x46c>
 8000fd6:	e63c      	b.n	8000c52 <__aeabi_ddiv+0xe6>
 8000fd8:	4643      	mov	r3, r8
 8000fda:	07de      	lsls	r6, r3, #31
 8000fdc:	0858      	lsrs	r0, r3, #1
 8000fde:	086b      	lsrs	r3, r5, #1
 8000fe0:	431e      	orrs	r6, r3
 8000fe2:	07ed      	lsls	r5, r5, #31
 8000fe4:	e63c      	b.n	8000c60 <__aeabi_ddiv+0xf4>
 8000fe6:	f001 f883 	bl	80020f0 <__clzsi2>
 8000fea:	0001      	movs	r1, r0
 8000fec:	0002      	movs	r2, r0
 8000fee:	3115      	adds	r1, #21
 8000ff0:	3220      	adds	r2, #32
 8000ff2:	291c      	cmp	r1, #28
 8000ff4:	dc00      	bgt.n	8000ff8 <__aeabi_ddiv+0x48c>
 8000ff6:	e72c      	b.n	8000e52 <__aeabi_ddiv+0x2e6>
 8000ff8:	464b      	mov	r3, r9
 8000ffa:	3808      	subs	r0, #8
 8000ffc:	4083      	lsls	r3, r0
 8000ffe:	2500      	movs	r5, #0
 8001000:	4698      	mov	r8, r3
 8001002:	e732      	b.n	8000e6a <__aeabi_ddiv+0x2fe>
 8001004:	f001 f874 	bl	80020f0 <__clzsi2>
 8001008:	0003      	movs	r3, r0
 800100a:	001a      	movs	r2, r3
 800100c:	3215      	adds	r2, #21
 800100e:	3020      	adds	r0, #32
 8001010:	2a1c      	cmp	r2, #28
 8001012:	dc00      	bgt.n	8001016 <__aeabi_ddiv+0x4aa>
 8001014:	e6ff      	b.n	8000e16 <__aeabi_ddiv+0x2aa>
 8001016:	4654      	mov	r4, sl
 8001018:	3b08      	subs	r3, #8
 800101a:	2100      	movs	r1, #0
 800101c:	409c      	lsls	r4, r3
 800101e:	e705      	b.n	8000e2c <__aeabi_ddiv+0x2c0>
 8001020:	1936      	adds	r6, r6, r4
 8001022:	3b01      	subs	r3, #1
 8001024:	42b4      	cmp	r4, r6
 8001026:	d900      	bls.n	800102a <__aeabi_ddiv+0x4be>
 8001028:	e6a6      	b.n	8000d78 <__aeabi_ddiv+0x20c>
 800102a:	42b2      	cmp	r2, r6
 800102c:	d800      	bhi.n	8001030 <__aeabi_ddiv+0x4c4>
 800102e:	e6a3      	b.n	8000d78 <__aeabi_ddiv+0x20c>
 8001030:	1e83      	subs	r3, r0, #2
 8001032:	1936      	adds	r6, r6, r4
 8001034:	e6a0      	b.n	8000d78 <__aeabi_ddiv+0x20c>
 8001036:	1909      	adds	r1, r1, r4
 8001038:	3d01      	subs	r5, #1
 800103a:	428c      	cmp	r4, r1
 800103c:	d900      	bls.n	8001040 <__aeabi_ddiv+0x4d4>
 800103e:	e68d      	b.n	8000d5c <__aeabi_ddiv+0x1f0>
 8001040:	428a      	cmp	r2, r1
 8001042:	d800      	bhi.n	8001046 <__aeabi_ddiv+0x4da>
 8001044:	e68a      	b.n	8000d5c <__aeabi_ddiv+0x1f0>
 8001046:	1e85      	subs	r5, r0, #2
 8001048:	1909      	adds	r1, r1, r4
 800104a:	e687      	b.n	8000d5c <__aeabi_ddiv+0x1f0>
 800104c:	220f      	movs	r2, #15
 800104e:	402a      	ands	r2, r5
 8001050:	2a04      	cmp	r2, #4
 8001052:	d100      	bne.n	8001056 <__aeabi_ddiv+0x4ea>
 8001054:	e6bc      	b.n	8000dd0 <__aeabi_ddiv+0x264>
 8001056:	1d29      	adds	r1, r5, #4
 8001058:	42a9      	cmp	r1, r5
 800105a:	41ad      	sbcs	r5, r5
 800105c:	426d      	negs	r5, r5
 800105e:	08c9      	lsrs	r1, r1, #3
 8001060:	44a8      	add	r8, r5
 8001062:	e6b6      	b.n	8000dd2 <__aeabi_ddiv+0x266>
 8001064:	42af      	cmp	r7, r5
 8001066:	d900      	bls.n	800106a <__aeabi_ddiv+0x4fe>
 8001068:	e662      	b.n	8000d30 <__aeabi_ddiv+0x1c4>
 800106a:	4281      	cmp	r1, r0
 800106c:	d804      	bhi.n	8001078 <__aeabi_ddiv+0x50c>
 800106e:	d000      	beq.n	8001072 <__aeabi_ddiv+0x506>
 8001070:	e65e      	b.n	8000d30 <__aeabi_ddiv+0x1c4>
 8001072:	42ae      	cmp	r6, r5
 8001074:	d800      	bhi.n	8001078 <__aeabi_ddiv+0x50c>
 8001076:	e65b      	b.n	8000d30 <__aeabi_ddiv+0x1c4>
 8001078:	2302      	movs	r3, #2
 800107a:	425b      	negs	r3, r3
 800107c:	469c      	mov	ip, r3
 800107e:	9b00      	ldr	r3, [sp, #0]
 8001080:	44e0      	add	r8, ip
 8001082:	469c      	mov	ip, r3
 8001084:	4465      	add	r5, ip
 8001086:	429d      	cmp	r5, r3
 8001088:	419b      	sbcs	r3, r3
 800108a:	425b      	negs	r3, r3
 800108c:	191b      	adds	r3, r3, r4
 800108e:	18c0      	adds	r0, r0, r3
 8001090:	e64f      	b.n	8000d32 <__aeabi_ddiv+0x1c6>
 8001092:	42b2      	cmp	r2, r6
 8001094:	d800      	bhi.n	8001098 <__aeabi_ddiv+0x52c>
 8001096:	e612      	b.n	8000cbe <__aeabi_ddiv+0x152>
 8001098:	1e83      	subs	r3, r0, #2
 800109a:	1936      	adds	r6, r6, r4
 800109c:	e60f      	b.n	8000cbe <__aeabi_ddiv+0x152>
 800109e:	428a      	cmp	r2, r1
 80010a0:	d800      	bhi.n	80010a4 <__aeabi_ddiv+0x538>
 80010a2:	e5fa      	b.n	8000c9a <__aeabi_ddiv+0x12e>
 80010a4:	1e83      	subs	r3, r0, #2
 80010a6:	4698      	mov	r8, r3
 80010a8:	1909      	adds	r1, r1, r4
 80010aa:	e5f6      	b.n	8000c9a <__aeabi_ddiv+0x12e>
 80010ac:	4b24      	ldr	r3, [pc, #144]	; (8001140 <__aeabi_ddiv+0x5d4>)
 80010ae:	0028      	movs	r0, r5
 80010b0:	445b      	add	r3, fp
 80010b2:	4641      	mov	r1, r8
 80010b4:	409d      	lsls	r5, r3
 80010b6:	4099      	lsls	r1, r3
 80010b8:	40d0      	lsrs	r0, r2
 80010ba:	1e6b      	subs	r3, r5, #1
 80010bc:	419d      	sbcs	r5, r3
 80010be:	4643      	mov	r3, r8
 80010c0:	4301      	orrs	r1, r0
 80010c2:	4329      	orrs	r1, r5
 80010c4:	40d3      	lsrs	r3, r2
 80010c6:	074a      	lsls	r2, r1, #29
 80010c8:	d100      	bne.n	80010cc <__aeabi_ddiv+0x560>
 80010ca:	e755      	b.n	8000f78 <__aeabi_ddiv+0x40c>
 80010cc:	220f      	movs	r2, #15
 80010ce:	400a      	ands	r2, r1
 80010d0:	2a04      	cmp	r2, #4
 80010d2:	d000      	beq.n	80010d6 <__aeabi_ddiv+0x56a>
 80010d4:	e74a      	b.n	8000f6c <__aeabi_ddiv+0x400>
 80010d6:	e74f      	b.n	8000f78 <__aeabi_ddiv+0x40c>
 80010d8:	0015      	movs	r5, r2
 80010da:	4286      	cmp	r6, r0
 80010dc:	d000      	beq.n	80010e0 <__aeabi_ddiv+0x574>
 80010de:	e66d      	b.n	8000dbc <__aeabi_ddiv+0x250>
 80010e0:	9a00      	ldr	r2, [sp, #0]
 80010e2:	429a      	cmp	r2, r3
 80010e4:	d000      	beq.n	80010e8 <__aeabi_ddiv+0x57c>
 80010e6:	e669      	b.n	8000dbc <__aeabi_ddiv+0x250>
 80010e8:	e66a      	b.n	8000dc0 <__aeabi_ddiv+0x254>
 80010ea:	4b16      	ldr	r3, [pc, #88]	; (8001144 <__aeabi_ddiv+0x5d8>)
 80010ec:	445b      	add	r3, fp
 80010ee:	2b00      	cmp	r3, #0
 80010f0:	dc00      	bgt.n	80010f4 <__aeabi_ddiv+0x588>
 80010f2:	e713      	b.n	8000f1c <__aeabi_ddiv+0x3b0>
 80010f4:	2501      	movs	r5, #1
 80010f6:	2100      	movs	r1, #0
 80010f8:	44a8      	add	r8, r5
 80010fa:	e66a      	b.n	8000dd2 <__aeabi_ddiv+0x266>
 80010fc:	075d      	lsls	r5, r3, #29
 80010fe:	025b      	lsls	r3, r3, #9
 8001100:	0b1a      	lsrs	r2, r3, #12
 8001102:	08c9      	lsrs	r1, r1, #3
 8001104:	2300      	movs	r3, #0
 8001106:	430d      	orrs	r5, r1
 8001108:	e587      	b.n	8000c1a <__aeabi_ddiv+0xae>
 800110a:	9900      	ldr	r1, [sp, #0]
 800110c:	3d02      	subs	r5, #2
 800110e:	004a      	lsls	r2, r1, #1
 8001110:	428a      	cmp	r2, r1
 8001112:	41bf      	sbcs	r7, r7
 8001114:	427f      	negs	r7, r7
 8001116:	193f      	adds	r7, r7, r4
 8001118:	19f6      	adds	r6, r6, r7
 800111a:	9200      	str	r2, [sp, #0]
 800111c:	e7dd      	b.n	80010da <__aeabi_ddiv+0x56e>
 800111e:	2280      	movs	r2, #128	; 0x80
 8001120:	4643      	mov	r3, r8
 8001122:	0312      	lsls	r2, r2, #12
 8001124:	431a      	orrs	r2, r3
 8001126:	0312      	lsls	r2, r2, #12
 8001128:	4b03      	ldr	r3, [pc, #12]	; (8001138 <__aeabi_ddiv+0x5cc>)
 800112a:	0b12      	lsrs	r2, r2, #12
 800112c:	e575      	b.n	8000c1a <__aeabi_ddiv+0xae>
 800112e:	9900      	ldr	r1, [sp, #0]
 8001130:	4299      	cmp	r1, r3
 8001132:	d3ea      	bcc.n	800110a <__aeabi_ddiv+0x59e>
 8001134:	0015      	movs	r5, r2
 8001136:	e7d3      	b.n	80010e0 <__aeabi_ddiv+0x574>
 8001138:	000007ff 	.word	0x000007ff
 800113c:	0000043e 	.word	0x0000043e
 8001140:	0000041e 	.word	0x0000041e
 8001144:	000003ff 	.word	0x000003ff

08001148 <__eqdf2>:
 8001148:	b5f0      	push	{r4, r5, r6, r7, lr}
 800114a:	464e      	mov	r6, r9
 800114c:	4645      	mov	r5, r8
 800114e:	46de      	mov	lr, fp
 8001150:	4657      	mov	r7, sl
 8001152:	4690      	mov	r8, r2
 8001154:	b5e0      	push	{r5, r6, r7, lr}
 8001156:	0017      	movs	r7, r2
 8001158:	031a      	lsls	r2, r3, #12
 800115a:	0b12      	lsrs	r2, r2, #12
 800115c:	0005      	movs	r5, r0
 800115e:	4684      	mov	ip, r0
 8001160:	4819      	ldr	r0, [pc, #100]	; (80011c8 <__eqdf2+0x80>)
 8001162:	030e      	lsls	r6, r1, #12
 8001164:	004c      	lsls	r4, r1, #1
 8001166:	4691      	mov	r9, r2
 8001168:	005a      	lsls	r2, r3, #1
 800116a:	0fdb      	lsrs	r3, r3, #31
 800116c:	469b      	mov	fp, r3
 800116e:	0b36      	lsrs	r6, r6, #12
 8001170:	0d64      	lsrs	r4, r4, #21
 8001172:	0fc9      	lsrs	r1, r1, #31
 8001174:	0d52      	lsrs	r2, r2, #21
 8001176:	4284      	cmp	r4, r0
 8001178:	d019      	beq.n	80011ae <__eqdf2+0x66>
 800117a:	4282      	cmp	r2, r0
 800117c:	d010      	beq.n	80011a0 <__eqdf2+0x58>
 800117e:	2001      	movs	r0, #1
 8001180:	4294      	cmp	r4, r2
 8001182:	d10e      	bne.n	80011a2 <__eqdf2+0x5a>
 8001184:	454e      	cmp	r6, r9
 8001186:	d10c      	bne.n	80011a2 <__eqdf2+0x5a>
 8001188:	2001      	movs	r0, #1
 800118a:	45c4      	cmp	ip, r8
 800118c:	d109      	bne.n	80011a2 <__eqdf2+0x5a>
 800118e:	4559      	cmp	r1, fp
 8001190:	d017      	beq.n	80011c2 <__eqdf2+0x7a>
 8001192:	2c00      	cmp	r4, #0
 8001194:	d105      	bne.n	80011a2 <__eqdf2+0x5a>
 8001196:	0030      	movs	r0, r6
 8001198:	4328      	orrs	r0, r5
 800119a:	1e43      	subs	r3, r0, #1
 800119c:	4198      	sbcs	r0, r3
 800119e:	e000      	b.n	80011a2 <__eqdf2+0x5a>
 80011a0:	2001      	movs	r0, #1
 80011a2:	bcf0      	pop	{r4, r5, r6, r7}
 80011a4:	46bb      	mov	fp, r7
 80011a6:	46b2      	mov	sl, r6
 80011a8:	46a9      	mov	r9, r5
 80011aa:	46a0      	mov	r8, r4
 80011ac:	bdf0      	pop	{r4, r5, r6, r7, pc}
 80011ae:	0033      	movs	r3, r6
 80011b0:	2001      	movs	r0, #1
 80011b2:	432b      	orrs	r3, r5
 80011b4:	d1f5      	bne.n	80011a2 <__eqdf2+0x5a>
 80011b6:	42a2      	cmp	r2, r4
 80011b8:	d1f3      	bne.n	80011a2 <__eqdf2+0x5a>
 80011ba:	464b      	mov	r3, r9
 80011bc:	433b      	orrs	r3, r7
 80011be:	d1f0      	bne.n	80011a2 <__eqdf2+0x5a>
 80011c0:	e7e2      	b.n	8001188 <__eqdf2+0x40>
 80011c2:	2000      	movs	r0, #0
 80011c4:	e7ed      	b.n	80011a2 <__eqdf2+0x5a>
 80011c6:	46c0      	nop			; (mov r8, r8)
 80011c8:	000007ff 	.word	0x000007ff

080011cc <__gedf2>:
 80011cc:	b5f0      	push	{r4, r5, r6, r7, lr}
 80011ce:	4647      	mov	r7, r8
 80011d0:	46ce      	mov	lr, r9
 80011d2:	0004      	movs	r4, r0
 80011d4:	0018      	movs	r0, r3
 80011d6:	0016      	movs	r6, r2
 80011d8:	031b      	lsls	r3, r3, #12
 80011da:	0b1b      	lsrs	r3, r3, #12
 80011dc:	4d2d      	ldr	r5, [pc, #180]	; (8001294 <__gedf2+0xc8>)
 80011de:	004a      	lsls	r2, r1, #1
 80011e0:	4699      	mov	r9, r3
 80011e2:	b580      	push	{r7, lr}
 80011e4:	0043      	lsls	r3, r0, #1
 80011e6:	030f      	lsls	r7, r1, #12
 80011e8:	46a4      	mov	ip, r4
 80011ea:	46b0      	mov	r8, r6
 80011ec:	0b3f      	lsrs	r7, r7, #12
 80011ee:	0d52      	lsrs	r2, r2, #21
 80011f0:	0fc9      	lsrs	r1, r1, #31
 80011f2:	0d5b      	lsrs	r3, r3, #21
 80011f4:	0fc0      	lsrs	r0, r0, #31
 80011f6:	42aa      	cmp	r2, r5
 80011f8:	d021      	beq.n	800123e <__gedf2+0x72>
 80011fa:	42ab      	cmp	r3, r5
 80011fc:	d013      	beq.n	8001226 <__gedf2+0x5a>
 80011fe:	2a00      	cmp	r2, #0
 8001200:	d122      	bne.n	8001248 <__gedf2+0x7c>
 8001202:	433c      	orrs	r4, r7
 8001204:	2b00      	cmp	r3, #0
 8001206:	d102      	bne.n	800120e <__gedf2+0x42>
 8001208:	464d      	mov	r5, r9
 800120a:	432e      	orrs	r6, r5
 800120c:	d022      	beq.n	8001254 <__gedf2+0x88>
 800120e:	2c00      	cmp	r4, #0
 8001210:	d010      	beq.n	8001234 <__gedf2+0x68>
 8001212:	4281      	cmp	r1, r0
 8001214:	d022      	beq.n	800125c <__gedf2+0x90>
 8001216:	2002      	movs	r0, #2
 8001218:	3901      	subs	r1, #1
 800121a:	4008      	ands	r0, r1
 800121c:	3801      	subs	r0, #1
 800121e:	bcc0      	pop	{r6, r7}
 8001220:	46b9      	mov	r9, r7
 8001222:	46b0      	mov	r8, r6
 8001224:	bdf0      	pop	{r4, r5, r6, r7, pc}
 8001226:	464d      	mov	r5, r9
 8001228:	432e      	orrs	r6, r5
 800122a:	d129      	bne.n	8001280 <__gedf2+0xb4>
 800122c:	2a00      	cmp	r2, #0
 800122e:	d1f0      	bne.n	8001212 <__gedf2+0x46>
 8001230:	433c      	orrs	r4, r7
 8001232:	d1ee      	bne.n	8001212 <__gedf2+0x46>
 8001234:	2800      	cmp	r0, #0
 8001236:	d1f2      	bne.n	800121e <__gedf2+0x52>
 8001238:	2001      	movs	r0, #1
 800123a:	4240      	negs	r0, r0
 800123c:	e7ef      	b.n	800121e <__gedf2+0x52>
 800123e:	003d      	movs	r5, r7
 8001240:	4325      	orrs	r5, r4
 8001242:	d11d      	bne.n	8001280 <__gedf2+0xb4>
 8001244:	4293      	cmp	r3, r2
 8001246:	d0ee      	beq.n	8001226 <__gedf2+0x5a>
 8001248:	2b00      	cmp	r3, #0
 800124a:	d1e2      	bne.n	8001212 <__gedf2+0x46>
 800124c:	464c      	mov	r4, r9
 800124e:	4326      	orrs	r6, r4
 8001250:	d1df      	bne.n	8001212 <__gedf2+0x46>
 8001252:	e7e0      	b.n	8001216 <__gedf2+0x4a>
 8001254:	2000      	movs	r0, #0
 8001256:	2c00      	cmp	r4, #0
 8001258:	d0e1      	beq.n	800121e <__gedf2+0x52>
 800125a:	e7dc      	b.n	8001216 <__gedf2+0x4a>
 800125c:	429a      	cmp	r2, r3
 800125e:	dc0a      	bgt.n	8001276 <__gedf2+0xaa>
 8001260:	dbe8      	blt.n	8001234 <__gedf2+0x68>
 8001262:	454f      	cmp	r7, r9
 8001264:	d8d7      	bhi.n	8001216 <__gedf2+0x4a>
 8001266:	d00e      	beq.n	8001286 <__gedf2+0xba>
 8001268:	2000      	movs	r0, #0
 800126a:	454f      	cmp	r7, r9
 800126c:	d2d7      	bcs.n	800121e <__gedf2+0x52>
 800126e:	2900      	cmp	r1, #0
 8001270:	d0e2      	beq.n	8001238 <__gedf2+0x6c>
 8001272:	0008      	movs	r0, r1
 8001274:	e7d3      	b.n	800121e <__gedf2+0x52>
 8001276:	4243      	negs	r3, r0
 8001278:	4158      	adcs	r0, r3
 800127a:	0040      	lsls	r0, r0, #1
 800127c:	3801      	subs	r0, #1
 800127e:	e7ce      	b.n	800121e <__gedf2+0x52>
 8001280:	2002      	movs	r0, #2
 8001282:	4240      	negs	r0, r0
 8001284:	e7cb      	b.n	800121e <__gedf2+0x52>
 8001286:	45c4      	cmp	ip, r8
 8001288:	d8c5      	bhi.n	8001216 <__gedf2+0x4a>
 800128a:	2000      	movs	r0, #0
 800128c:	45c4      	cmp	ip, r8
 800128e:	d2c6      	bcs.n	800121e <__gedf2+0x52>
 8001290:	e7ed      	b.n	800126e <__gedf2+0xa2>
 8001292:	46c0      	nop			; (mov r8, r8)
 8001294:	000007ff 	.word	0x000007ff

08001298 <__ledf2>:
 8001298:	b5f0      	push	{r4, r5, r6, r7, lr}
 800129a:	4647      	mov	r7, r8
 800129c:	46ce      	mov	lr, r9
 800129e:	0004      	movs	r4, r0
 80012a0:	0018      	movs	r0, r3
 80012a2:	0016      	movs	r6, r2
 80012a4:	031b      	lsls	r3, r3, #12
 80012a6:	0b1b      	lsrs	r3, r3, #12
 80012a8:	4d2c      	ldr	r5, [pc, #176]	; (800135c <__ledf2+0xc4>)
 80012aa:	004a      	lsls	r2, r1, #1
 80012ac:	4699      	mov	r9, r3
 80012ae:	b580      	push	{r7, lr}
 80012b0:	0043      	lsls	r3, r0, #1
 80012b2:	030f      	lsls	r7, r1, #12
 80012b4:	46a4      	mov	ip, r4
 80012b6:	46b0      	mov	r8, r6
 80012b8:	0b3f      	lsrs	r7, r7, #12
 80012ba:	0d52      	lsrs	r2, r2, #21
 80012bc:	0fc9      	lsrs	r1, r1, #31
 80012be:	0d5b      	lsrs	r3, r3, #21
 80012c0:	0fc0      	lsrs	r0, r0, #31
 80012c2:	42aa      	cmp	r2, r5
 80012c4:	d00d      	beq.n	80012e2 <__ledf2+0x4a>
 80012c6:	42ab      	cmp	r3, r5
 80012c8:	d010      	beq.n	80012ec <__ledf2+0x54>
 80012ca:	2a00      	cmp	r2, #0
 80012cc:	d127      	bne.n	800131e <__ledf2+0x86>
 80012ce:	433c      	orrs	r4, r7
 80012d0:	2b00      	cmp	r3, #0
 80012d2:	d111      	bne.n	80012f8 <__ledf2+0x60>
 80012d4:	464d      	mov	r5, r9
 80012d6:	432e      	orrs	r6, r5
 80012d8:	d10e      	bne.n	80012f8 <__ledf2+0x60>
 80012da:	2000      	movs	r0, #0
 80012dc:	2c00      	cmp	r4, #0
 80012de:	d015      	beq.n	800130c <__ledf2+0x74>
 80012e0:	e00e      	b.n	8001300 <__ledf2+0x68>
 80012e2:	003d      	movs	r5, r7
 80012e4:	4325      	orrs	r5, r4
 80012e6:	d110      	bne.n	800130a <__ledf2+0x72>
 80012e8:	4293      	cmp	r3, r2
 80012ea:	d118      	bne.n	800131e <__ledf2+0x86>
 80012ec:	464d      	mov	r5, r9
 80012ee:	432e      	orrs	r6, r5
 80012f0:	d10b      	bne.n	800130a <__ledf2+0x72>
 80012f2:	2a00      	cmp	r2, #0
 80012f4:	d102      	bne.n	80012fc <__ledf2+0x64>
 80012f6:	433c      	orrs	r4, r7
 80012f8:	2c00      	cmp	r4, #0
 80012fa:	d00b      	beq.n	8001314 <__ledf2+0x7c>
 80012fc:	4281      	cmp	r1, r0
 80012fe:	d014      	beq.n	800132a <__ledf2+0x92>
 8001300:	2002      	movs	r0, #2
 8001302:	3901      	subs	r1, #1
 8001304:	4008      	ands	r0, r1
 8001306:	3801      	subs	r0, #1
 8001308:	e000      	b.n	800130c <__ledf2+0x74>
 800130a:	2002      	movs	r0, #2
 800130c:	bcc0      	pop	{r6, r7}
 800130e:	46b9      	mov	r9, r7
 8001310:	46b0      	mov	r8, r6
 8001312:	bdf0      	pop	{r4, r5, r6, r7, pc}
 8001314:	2800      	cmp	r0, #0
 8001316:	d1f9      	bne.n	800130c <__ledf2+0x74>
 8001318:	2001      	movs	r0, #1
 800131a:	4240      	negs	r0, r0
 800131c:	e7f6      	b.n	800130c <__ledf2+0x74>
 800131e:	2b00      	cmp	r3, #0
 8001320:	d1ec      	bne.n	80012fc <__ledf2+0x64>
 8001322:	464c      	mov	r4, r9
 8001324:	4326      	orrs	r6, r4
 8001326:	d1e9      	bne.n	80012fc <__ledf2+0x64>
 8001328:	e7ea      	b.n	8001300 <__ledf2+0x68>
 800132a:	429a      	cmp	r2, r3
 800132c:	dd04      	ble.n	8001338 <__ledf2+0xa0>
 800132e:	4243      	negs	r3, r0
 8001330:	4158      	adcs	r0, r3
 8001332:	0040      	lsls	r0, r0, #1
 8001334:	3801      	subs	r0, #1
 8001336:	e7e9      	b.n	800130c <__ledf2+0x74>
 8001338:	429a      	cmp	r2, r3
 800133a:	dbeb      	blt.n	8001314 <__ledf2+0x7c>
 800133c:	454f      	cmp	r7, r9
 800133e:	d8df      	bhi.n	8001300 <__ledf2+0x68>
 8001340:	d006      	beq.n	8001350 <__ledf2+0xb8>
 8001342:	2000      	movs	r0, #0
 8001344:	454f      	cmp	r7, r9
 8001346:	d2e1      	bcs.n	800130c <__ledf2+0x74>
 8001348:	2900      	cmp	r1, #0
 800134a:	d0e5      	beq.n	8001318 <__ledf2+0x80>
 800134c:	0008      	movs	r0, r1
 800134e:	e7dd      	b.n	800130c <__ledf2+0x74>
 8001350:	45c4      	cmp	ip, r8
 8001352:	d8d5      	bhi.n	8001300 <__ledf2+0x68>
 8001354:	2000      	movs	r0, #0
 8001356:	45c4      	cmp	ip, r8
 8001358:	d2d8      	bcs.n	800130c <__ledf2+0x74>
 800135a:	e7f5      	b.n	8001348 <__ledf2+0xb0>
 800135c:	000007ff 	.word	0x000007ff

08001360 <__aeabi_dmul>:
 8001360:	b5f0      	push	{r4, r5, r6, r7, lr}
 8001362:	4645      	mov	r5, r8
 8001364:	46de      	mov	lr, fp
 8001366:	4657      	mov	r7, sl
 8001368:	464e      	mov	r6, r9
 800136a:	b5e0      	push	{r5, r6, r7, lr}
 800136c:	001f      	movs	r7, r3
 800136e:	030b      	lsls	r3, r1, #12
 8001370:	0b1b      	lsrs	r3, r3, #12
 8001372:	469b      	mov	fp, r3
 8001374:	004d      	lsls	r5, r1, #1
 8001376:	0fcb      	lsrs	r3, r1, #31
 8001378:	0004      	movs	r4, r0
 800137a:	4691      	mov	r9, r2
 800137c:	4698      	mov	r8, r3
 800137e:	b087      	sub	sp, #28
 8001380:	0d6d      	lsrs	r5, r5, #21
 8001382:	d100      	bne.n	8001386 <__aeabi_dmul+0x26>
 8001384:	e1cd      	b.n	8001722 <__aeabi_dmul+0x3c2>
 8001386:	4bce      	ldr	r3, [pc, #824]	; (80016c0 <__aeabi_dmul+0x360>)
 8001388:	429d      	cmp	r5, r3
 800138a:	d100      	bne.n	800138e <__aeabi_dmul+0x2e>
 800138c:	e1e9      	b.n	8001762 <__aeabi_dmul+0x402>
 800138e:	465a      	mov	r2, fp
 8001390:	0f43      	lsrs	r3, r0, #29
 8001392:	00d2      	lsls	r2, r2, #3
 8001394:	4313      	orrs	r3, r2
 8001396:	2280      	movs	r2, #128	; 0x80
 8001398:	0412      	lsls	r2, r2, #16
 800139a:	431a      	orrs	r2, r3
 800139c:	00c3      	lsls	r3, r0, #3
 800139e:	469a      	mov	sl, r3
 80013a0:	4bc8      	ldr	r3, [pc, #800]	; (80016c4 <__aeabi_dmul+0x364>)
 80013a2:	4693      	mov	fp, r2
 80013a4:	469c      	mov	ip, r3
 80013a6:	2300      	movs	r3, #0
 80013a8:	2600      	movs	r6, #0
 80013aa:	4465      	add	r5, ip
 80013ac:	9300      	str	r3, [sp, #0]
 80013ae:	033c      	lsls	r4, r7, #12
 80013b0:	007b      	lsls	r3, r7, #1
 80013b2:	4648      	mov	r0, r9
 80013b4:	0b24      	lsrs	r4, r4, #12
 80013b6:	0d5b      	lsrs	r3, r3, #21
 80013b8:	0fff      	lsrs	r7, r7, #31
 80013ba:	2b00      	cmp	r3, #0
 80013bc:	d100      	bne.n	80013c0 <__aeabi_dmul+0x60>
 80013be:	e189      	b.n	80016d4 <__aeabi_dmul+0x374>
 80013c0:	4abf      	ldr	r2, [pc, #764]	; (80016c0 <__aeabi_dmul+0x360>)
 80013c2:	4293      	cmp	r3, r2
 80013c4:	d019      	beq.n	80013fa <__aeabi_dmul+0x9a>
 80013c6:	0f42      	lsrs	r2, r0, #29
 80013c8:	00e4      	lsls	r4, r4, #3
 80013ca:	4322      	orrs	r2, r4
 80013cc:	2480      	movs	r4, #128	; 0x80
 80013ce:	0424      	lsls	r4, r4, #16
 80013d0:	4314      	orrs	r4, r2
 80013d2:	4abc      	ldr	r2, [pc, #752]	; (80016c4 <__aeabi_dmul+0x364>)
 80013d4:	2100      	movs	r1, #0
 80013d6:	4694      	mov	ip, r2
 80013d8:	4642      	mov	r2, r8
 80013da:	4463      	add	r3, ip
 80013dc:	195b      	adds	r3, r3, r5
 80013de:	9301      	str	r3, [sp, #4]
 80013e0:	9b01      	ldr	r3, [sp, #4]
 80013e2:	407a      	eors	r2, r7
 80013e4:	3301      	adds	r3, #1
 80013e6:	00c0      	lsls	r0, r0, #3
 80013e8:	b2d2      	uxtb	r2, r2
 80013ea:	9302      	str	r3, [sp, #8]
 80013ec:	2e0a      	cmp	r6, #10
 80013ee:	dd1c      	ble.n	800142a <__aeabi_dmul+0xca>
 80013f0:	003a      	movs	r2, r7
 80013f2:	2e0b      	cmp	r6, #11
 80013f4:	d05e      	beq.n	80014b4 <__aeabi_dmul+0x154>
 80013f6:	4647      	mov	r7, r8
 80013f8:	e056      	b.n	80014a8 <__aeabi_dmul+0x148>
 80013fa:	4649      	mov	r1, r9
 80013fc:	4bb0      	ldr	r3, [pc, #704]	; (80016c0 <__aeabi_dmul+0x360>)
 80013fe:	4321      	orrs	r1, r4
 8001400:	18eb      	adds	r3, r5, r3
 8001402:	9301      	str	r3, [sp, #4]
 8001404:	2900      	cmp	r1, #0
 8001406:	d12a      	bne.n	800145e <__aeabi_dmul+0xfe>
 8001408:	2080      	movs	r0, #128	; 0x80
 800140a:	2202      	movs	r2, #2
 800140c:	0100      	lsls	r0, r0, #4
 800140e:	002b      	movs	r3, r5
 8001410:	4684      	mov	ip, r0
 8001412:	4316      	orrs	r6, r2
 8001414:	4642      	mov	r2, r8
 8001416:	4463      	add	r3, ip
 8001418:	407a      	eors	r2, r7
 800141a:	b2d2      	uxtb	r2, r2
 800141c:	9302      	str	r3, [sp, #8]
 800141e:	2e0a      	cmp	r6, #10
 8001420:	dd00      	ble.n	8001424 <__aeabi_dmul+0xc4>
 8001422:	e231      	b.n	8001888 <__aeabi_dmul+0x528>
 8001424:	2000      	movs	r0, #0
 8001426:	2400      	movs	r4, #0
 8001428:	2102      	movs	r1, #2
 800142a:	2e02      	cmp	r6, #2
 800142c:	dc26      	bgt.n	800147c <__aeabi_dmul+0x11c>
 800142e:	3e01      	subs	r6, #1
 8001430:	2e01      	cmp	r6, #1
 8001432:	d852      	bhi.n	80014da <__aeabi_dmul+0x17a>
 8001434:	2902      	cmp	r1, #2
 8001436:	d04c      	beq.n	80014d2 <__aeabi_dmul+0x172>
 8001438:	2901      	cmp	r1, #1
 800143a:	d000      	beq.n	800143e <__aeabi_dmul+0xde>
 800143c:	e118      	b.n	8001670 <__aeabi_dmul+0x310>
 800143e:	2300      	movs	r3, #0
 8001440:	2400      	movs	r4, #0
 8001442:	2500      	movs	r5, #0
 8001444:	051b      	lsls	r3, r3, #20
 8001446:	4323      	orrs	r3, r4
 8001448:	07d2      	lsls	r2, r2, #31
 800144a:	4313      	orrs	r3, r2
 800144c:	0028      	movs	r0, r5
 800144e:	0019      	movs	r1, r3
 8001450:	b007      	add	sp, #28
 8001452:	bcf0      	pop	{r4, r5, r6, r7}
 8001454:	46bb      	mov	fp, r7
 8001456:	46b2      	mov	sl, r6
 8001458:	46a9      	mov	r9, r5
 800145a:	46a0      	mov	r8, r4
 800145c:	bdf0      	pop	{r4, r5, r6, r7, pc}
 800145e:	2180      	movs	r1, #128	; 0x80
 8001460:	2203      	movs	r2, #3
 8001462:	0109      	lsls	r1, r1, #4
 8001464:	002b      	movs	r3, r5
 8001466:	468c      	mov	ip, r1
 8001468:	4316      	orrs	r6, r2
 800146a:	4642      	mov	r2, r8
 800146c:	4463      	add	r3, ip
 800146e:	407a      	eors	r2, r7
 8001470:	b2d2      	uxtb	r2, r2
 8001472:	9302      	str	r3, [sp, #8]
 8001474:	2e0a      	cmp	r6, #10
 8001476:	dd00      	ble.n	800147a <__aeabi_dmul+0x11a>
 8001478:	e228      	b.n	80018cc <__aeabi_dmul+0x56c>
 800147a:	2103      	movs	r1, #3
 800147c:	2501      	movs	r5, #1
 800147e:	40b5      	lsls	r5, r6
 8001480:	46ac      	mov	ip, r5
 8001482:	26a6      	movs	r6, #166	; 0xa6
 8001484:	4663      	mov	r3, ip
 8001486:	00f6      	lsls	r6, r6, #3
 8001488:	4035      	ands	r5, r6
 800148a:	4233      	tst	r3, r6
 800148c:	d10b      	bne.n	80014a6 <__aeabi_dmul+0x146>
 800148e:	2690      	movs	r6, #144	; 0x90
 8001490:	00b6      	lsls	r6, r6, #2
 8001492:	4233      	tst	r3, r6
 8001494:	d118      	bne.n	80014c8 <__aeabi_dmul+0x168>
 8001496:	3eb9      	subs	r6, #185	; 0xb9
 8001498:	3eff      	subs	r6, #255	; 0xff
 800149a:	421e      	tst	r6, r3
 800149c:	d01d      	beq.n	80014da <__aeabi_dmul+0x17a>
 800149e:	46a3      	mov	fp, r4
 80014a0:	4682      	mov	sl, r0
 80014a2:	9100      	str	r1, [sp, #0]
 80014a4:	e000      	b.n	80014a8 <__aeabi_dmul+0x148>
 80014a6:	0017      	movs	r7, r2
 80014a8:	9900      	ldr	r1, [sp, #0]
 80014aa:	003a      	movs	r2, r7
 80014ac:	2902      	cmp	r1, #2
 80014ae:	d010      	beq.n	80014d2 <__aeabi_dmul+0x172>
 80014b0:	465c      	mov	r4, fp
 80014b2:	4650      	mov	r0, sl
 80014b4:	2903      	cmp	r1, #3
 80014b6:	d1bf      	bne.n	8001438 <__aeabi_dmul+0xd8>
 80014b8:	2380      	movs	r3, #128	; 0x80
 80014ba:	031b      	lsls	r3, r3, #12
 80014bc:	431c      	orrs	r4, r3
 80014be:	0324      	lsls	r4, r4, #12
 80014c0:	0005      	movs	r5, r0
 80014c2:	4b7f      	ldr	r3, [pc, #508]	; (80016c0 <__aeabi_dmul+0x360>)
 80014c4:	0b24      	lsrs	r4, r4, #12
 80014c6:	e7bd      	b.n	8001444 <__aeabi_dmul+0xe4>
 80014c8:	2480      	movs	r4, #128	; 0x80
 80014ca:	2200      	movs	r2, #0
 80014cc:	4b7c      	ldr	r3, [pc, #496]	; (80016c0 <__aeabi_dmul+0x360>)
 80014ce:	0324      	lsls	r4, r4, #12
 80014d0:	e7b8      	b.n	8001444 <__aeabi_dmul+0xe4>
 80014d2:	2400      	movs	r4, #0
 80014d4:	2500      	movs	r5, #0
 80014d6:	4b7a      	ldr	r3, [pc, #488]	; (80016c0 <__aeabi_dmul+0x360>)
 80014d8:	e7b4      	b.n	8001444 <__aeabi_dmul+0xe4>
 80014da:	4653      	mov	r3, sl
 80014dc:	041e      	lsls	r6, r3, #16
 80014de:	0c36      	lsrs	r6, r6, #16
 80014e0:	0c1f      	lsrs	r7, r3, #16
 80014e2:	0033      	movs	r3, r6
 80014e4:	0c01      	lsrs	r1, r0, #16
 80014e6:	0400      	lsls	r0, r0, #16
 80014e8:	0c00      	lsrs	r0, r0, #16
 80014ea:	4343      	muls	r3, r0
 80014ec:	4698      	mov	r8, r3
 80014ee:	0003      	movs	r3, r0
 80014f0:	437b      	muls	r3, r7
 80014f2:	4699      	mov	r9, r3
 80014f4:	0033      	movs	r3, r6
 80014f6:	434b      	muls	r3, r1
 80014f8:	469c      	mov	ip, r3
 80014fa:	4643      	mov	r3, r8
 80014fc:	000d      	movs	r5, r1
 80014fe:	0c1b      	lsrs	r3, r3, #16
 8001500:	469a      	mov	sl, r3
 8001502:	437d      	muls	r5, r7
 8001504:	44cc      	add	ip, r9
 8001506:	44d4      	add	ip, sl
 8001508:	9500      	str	r5, [sp, #0]
 800150a:	45e1      	cmp	r9, ip
 800150c:	d904      	bls.n	8001518 <__aeabi_dmul+0x1b8>
 800150e:	2380      	movs	r3, #128	; 0x80
 8001510:	025b      	lsls	r3, r3, #9
 8001512:	4699      	mov	r9, r3
 8001514:	444d      	add	r5, r9
 8001516:	9500      	str	r5, [sp, #0]
 8001518:	4663      	mov	r3, ip
 800151a:	0c1b      	lsrs	r3, r3, #16
 800151c:	001d      	movs	r5, r3
 800151e:	4663      	mov	r3, ip
 8001520:	041b      	lsls	r3, r3, #16
 8001522:	469c      	mov	ip, r3
 8001524:	4643      	mov	r3, r8
 8001526:	041b      	lsls	r3, r3, #16
 8001528:	0c1b      	lsrs	r3, r3, #16
 800152a:	4698      	mov	r8, r3
 800152c:	4663      	mov	r3, ip
 800152e:	4443      	add	r3, r8
 8001530:	9303      	str	r3, [sp, #12]
 8001532:	0c23      	lsrs	r3, r4, #16
 8001534:	4698      	mov	r8, r3
 8001536:	0033      	movs	r3, r6
 8001538:	0424      	lsls	r4, r4, #16
 800153a:	0c24      	lsrs	r4, r4, #16
 800153c:	4363      	muls	r3, r4
 800153e:	469c      	mov	ip, r3
 8001540:	0023      	movs	r3, r4
 8001542:	437b      	muls	r3, r7
 8001544:	4699      	mov	r9, r3
 8001546:	4643      	mov	r3, r8
 8001548:	435e      	muls	r6, r3
 800154a:	435f      	muls	r7, r3
 800154c:	444e      	add	r6, r9
 800154e:	4663      	mov	r3, ip
 8001550:	46b2      	mov	sl, r6
 8001552:	0c1e      	lsrs	r6, r3, #16
 8001554:	4456      	add	r6, sl
 8001556:	45b1      	cmp	r9, r6
 8001558:	d903      	bls.n	8001562 <__aeabi_dmul+0x202>
 800155a:	2380      	movs	r3, #128	; 0x80
 800155c:	025b      	lsls	r3, r3, #9
 800155e:	4699      	mov	r9, r3
 8001560:	444f      	add	r7, r9
 8001562:	0c33      	lsrs	r3, r6, #16
 8001564:	4699      	mov	r9, r3
 8001566:	003b      	movs	r3, r7
 8001568:	444b      	add	r3, r9
 800156a:	9305      	str	r3, [sp, #20]
 800156c:	4663      	mov	r3, ip
 800156e:	46ac      	mov	ip, r5
 8001570:	041f      	lsls	r7, r3, #16
 8001572:	0c3f      	lsrs	r7, r7, #16
 8001574:	0436      	lsls	r6, r6, #16
 8001576:	19f6      	adds	r6, r6, r7
 8001578:	44b4      	add	ip, r6
 800157a:	4663      	mov	r3, ip
 800157c:	9304      	str	r3, [sp, #16]
 800157e:	465b      	mov	r3, fp
 8001580:	0c1b      	lsrs	r3, r3, #16
 8001582:	469c      	mov	ip, r3
 8001584:	465b      	mov	r3, fp
 8001586:	041f      	lsls	r7, r3, #16
 8001588:	0c3f      	lsrs	r7, r7, #16
 800158a:	003b      	movs	r3, r7
 800158c:	4343      	muls	r3, r0
 800158e:	4699      	mov	r9, r3
 8001590:	4663      	mov	r3, ip
 8001592:	4343      	muls	r3, r0
 8001594:	469a      	mov	sl, r3
 8001596:	464b      	mov	r3, r9
 8001598:	4660      	mov	r0, ip
 800159a:	0c1b      	lsrs	r3, r3, #16
 800159c:	469b      	mov	fp, r3
 800159e:	4348      	muls	r0, r1
 80015a0:	4379      	muls	r1, r7
 80015a2:	4451      	add	r1, sl
 80015a4:	4459      	add	r1, fp
 80015a6:	458a      	cmp	sl, r1
 80015a8:	d903      	bls.n	80015b2 <__aeabi_dmul+0x252>
 80015aa:	2380      	movs	r3, #128	; 0x80
 80015ac:	025b      	lsls	r3, r3, #9
 80015ae:	469a      	mov	sl, r3
 80015b0:	4450      	add	r0, sl
 80015b2:	0c0b      	lsrs	r3, r1, #16
 80015b4:	469a      	mov	sl, r3
 80015b6:	464b      	mov	r3, r9
 80015b8:	041b      	lsls	r3, r3, #16
 80015ba:	0c1b      	lsrs	r3, r3, #16
 80015bc:	4699      	mov	r9, r3
 80015be:	003b      	movs	r3, r7
 80015c0:	4363      	muls	r3, r4
 80015c2:	0409      	lsls	r1, r1, #16
 80015c4:	4645      	mov	r5, r8
 80015c6:	4449      	add	r1, r9
 80015c8:	4699      	mov	r9, r3
 80015ca:	4663      	mov	r3, ip
 80015cc:	435c      	muls	r4, r3
 80015ce:	436b      	muls	r3, r5
 80015d0:	469c      	mov	ip, r3
 80015d2:	464b      	mov	r3, r9
 80015d4:	0c1b      	lsrs	r3, r3, #16
 80015d6:	4698      	mov	r8, r3
 80015d8:	436f      	muls	r7, r5
 80015da:	193f      	adds	r7, r7, r4
 80015dc:	4447      	add	r7, r8
 80015de:	4450      	add	r0, sl
 80015e0:	42bc      	cmp	r4, r7
 80015e2:	d903      	bls.n	80015ec <__aeabi_dmul+0x28c>
 80015e4:	2380      	movs	r3, #128	; 0x80
 80015e6:	025b      	lsls	r3, r3, #9
 80015e8:	4698      	mov	r8, r3
 80015ea:	44c4      	add	ip, r8
 80015ec:	9b04      	ldr	r3, [sp, #16]
 80015ee:	9d00      	ldr	r5, [sp, #0]
 80015f0:	4698      	mov	r8, r3
 80015f2:	4445      	add	r5, r8
 80015f4:	42b5      	cmp	r5, r6
 80015f6:	41b6      	sbcs	r6, r6
 80015f8:	4273      	negs	r3, r6
 80015fa:	4698      	mov	r8, r3
 80015fc:	464b      	mov	r3, r9
 80015fe:	041e      	lsls	r6, r3, #16
 8001600:	9b05      	ldr	r3, [sp, #20]
 8001602:	043c      	lsls	r4, r7, #16
 8001604:	4699      	mov	r9, r3
 8001606:	0c36      	lsrs	r6, r6, #16
 8001608:	19a4      	adds	r4, r4, r6
 800160a:	444c      	add	r4, r9
 800160c:	46a1      	mov	r9, r4
 800160e:	4683      	mov	fp, r0
 8001610:	186e      	adds	r6, r5, r1
 8001612:	44c1      	add	r9, r8
 8001614:	428e      	cmp	r6, r1
 8001616:	4189      	sbcs	r1, r1
 8001618:	44cb      	add	fp, r9
 800161a:	465d      	mov	r5, fp
 800161c:	4249      	negs	r1, r1
 800161e:	186d      	adds	r5, r5, r1
 8001620:	429c      	cmp	r4, r3
 8001622:	41a4      	sbcs	r4, r4
 8001624:	45c1      	cmp	r9, r8
 8001626:	419b      	sbcs	r3, r3
 8001628:	4583      	cmp	fp, r0
 800162a:	4180      	sbcs	r0, r0
 800162c:	428d      	cmp	r5, r1
 800162e:	4189      	sbcs	r1, r1
 8001630:	425b      	negs	r3, r3
 8001632:	4264      	negs	r4, r4
 8001634:	431c      	orrs	r4, r3
 8001636:	4240      	negs	r0, r0
 8001638:	9b03      	ldr	r3, [sp, #12]
 800163a:	4249      	negs	r1, r1
 800163c:	4301      	orrs	r1, r0
 800163e:	0270      	lsls	r0, r6, #9
 8001640:	0c3f      	lsrs	r7, r7, #16
 8001642:	4318      	orrs	r0, r3
 8001644:	19e4      	adds	r4, r4, r7
 8001646:	1e47      	subs	r7, r0, #1
 8001648:	41b8      	sbcs	r0, r7
 800164a:	1864      	adds	r4, r4, r1
 800164c:	4464      	add	r4, ip
 800164e:	0df6      	lsrs	r6, r6, #23
 8001650:	0261      	lsls	r1, r4, #9
 8001652:	4330      	orrs	r0, r6
 8001654:	0dec      	lsrs	r4, r5, #23
 8001656:	026e      	lsls	r6, r5, #9
 8001658:	430c      	orrs	r4, r1
 800165a:	4330      	orrs	r0, r6
 800165c:	01c9      	lsls	r1, r1, #7
 800165e:	d400      	bmi.n	8001662 <__aeabi_dmul+0x302>
 8001660:	e0f1      	b.n	8001846 <__aeabi_dmul+0x4e6>
 8001662:	2101      	movs	r1, #1
 8001664:	0843      	lsrs	r3, r0, #1
 8001666:	4001      	ands	r1, r0
 8001668:	430b      	orrs	r3, r1
 800166a:	07e0      	lsls	r0, r4, #31
 800166c:	4318      	orrs	r0, r3
 800166e:	0864      	lsrs	r4, r4, #1
 8001670:	4915      	ldr	r1, [pc, #84]	; (80016c8 <__aeabi_dmul+0x368>)
 8001672:	9b02      	ldr	r3, [sp, #8]
 8001674:	468c      	mov	ip, r1
 8001676:	4463      	add	r3, ip
 8001678:	2b00      	cmp	r3, #0
 800167a:	dc00      	bgt.n	800167e <__aeabi_dmul+0x31e>
 800167c:	e097      	b.n	80017ae <__aeabi_dmul+0x44e>
 800167e:	0741      	lsls	r1, r0, #29
 8001680:	d009      	beq.n	8001696 <__aeabi_dmul+0x336>
 8001682:	210f      	movs	r1, #15
 8001684:	4001      	ands	r1, r0
 8001686:	2904      	cmp	r1, #4
 8001688:	d005      	beq.n	8001696 <__aeabi_dmul+0x336>
 800168a:	1d01      	adds	r1, r0, #4
 800168c:	4281      	cmp	r1, r0
 800168e:	4180      	sbcs	r0, r0
 8001690:	4240      	negs	r0, r0
 8001692:	1824      	adds	r4, r4, r0
 8001694:	0008      	movs	r0, r1
 8001696:	01e1      	lsls	r1, r4, #7
 8001698:	d506      	bpl.n	80016a8 <__aeabi_dmul+0x348>
 800169a:	2180      	movs	r1, #128	; 0x80
 800169c:	00c9      	lsls	r1, r1, #3
 800169e:	468c      	mov	ip, r1
 80016a0:	4b0a      	ldr	r3, [pc, #40]	; (80016cc <__aeabi_dmul+0x36c>)
 80016a2:	401c      	ands	r4, r3
 80016a4:	9b02      	ldr	r3, [sp, #8]
 80016a6:	4463      	add	r3, ip
 80016a8:	4909      	ldr	r1, [pc, #36]	; (80016d0 <__aeabi_dmul+0x370>)
 80016aa:	428b      	cmp	r3, r1
 80016ac:	dd00      	ble.n	80016b0 <__aeabi_dmul+0x350>
 80016ae:	e710      	b.n	80014d2 <__aeabi_dmul+0x172>
 80016b0:	0761      	lsls	r1, r4, #29
 80016b2:	08c5      	lsrs	r5, r0, #3
 80016b4:	0264      	lsls	r4, r4, #9
 80016b6:	055b      	lsls	r3, r3, #21
 80016b8:	430d      	orrs	r5, r1
 80016ba:	0b24      	lsrs	r4, r4, #12
 80016bc:	0d5b      	lsrs	r3, r3, #21
 80016be:	e6c1      	b.n	8001444 <__aeabi_dmul+0xe4>
 80016c0:	000007ff 	.word	0x000007ff
 80016c4:	fffffc01 	.word	0xfffffc01
 80016c8:	000003ff 	.word	0x000003ff
 80016cc:	feffffff 	.word	0xfeffffff
 80016d0:	000007fe 	.word	0x000007fe
 80016d4:	464b      	mov	r3, r9
 80016d6:	4323      	orrs	r3, r4
 80016d8:	d059      	beq.n	800178e <__aeabi_dmul+0x42e>
 80016da:	2c00      	cmp	r4, #0
 80016dc:	d100      	bne.n	80016e0 <__aeabi_dmul+0x380>
 80016de:	e0a3      	b.n	8001828 <__aeabi_dmul+0x4c8>
 80016e0:	0020      	movs	r0, r4
 80016e2:	f000 fd05 	bl	80020f0 <__clzsi2>
 80016e6:	0001      	movs	r1, r0
 80016e8:	0003      	movs	r3, r0
 80016ea:	390b      	subs	r1, #11
 80016ec:	221d      	movs	r2, #29
 80016ee:	1a52      	subs	r2, r2, r1
 80016f0:	4649      	mov	r1, r9
 80016f2:	0018      	movs	r0, r3
 80016f4:	40d1      	lsrs	r1, r2
 80016f6:	464a      	mov	r2, r9
 80016f8:	3808      	subs	r0, #8
 80016fa:	4082      	lsls	r2, r0
 80016fc:	4084      	lsls	r4, r0
 80016fe:	0010      	movs	r0, r2
 8001700:	430c      	orrs	r4, r1
 8001702:	4a74      	ldr	r2, [pc, #464]	; (80018d4 <__aeabi_dmul+0x574>)
 8001704:	1aeb      	subs	r3, r5, r3
 8001706:	4694      	mov	ip, r2
 8001708:	4642      	mov	r2, r8
 800170a:	4463      	add	r3, ip
 800170c:	9301      	str	r3, [sp, #4]
 800170e:	9b01      	ldr	r3, [sp, #4]
 8001710:	407a      	eors	r2, r7
 8001712:	3301      	adds	r3, #1
 8001714:	2100      	movs	r1, #0
 8001716:	b2d2      	uxtb	r2, r2
 8001718:	9302      	str	r3, [sp, #8]
 800171a:	2e0a      	cmp	r6, #10
 800171c:	dd00      	ble.n	8001720 <__aeabi_dmul+0x3c0>
 800171e:	e667      	b.n	80013f0 <__aeabi_dmul+0x90>
 8001720:	e683      	b.n	800142a <__aeabi_dmul+0xca>
 8001722:	465b      	mov	r3, fp
 8001724:	4303      	orrs	r3, r0
 8001726:	469a      	mov	sl, r3
 8001728:	d02a      	beq.n	8001780 <__aeabi_dmul+0x420>
 800172a:	465b      	mov	r3, fp
 800172c:	2b00      	cmp	r3, #0
 800172e:	d06d      	beq.n	800180c <__aeabi_dmul+0x4ac>
 8001730:	4658      	mov	r0, fp
 8001732:	f000 fcdd 	bl	80020f0 <__clzsi2>
 8001736:	0001      	movs	r1, r0
 8001738:	0003      	movs	r3, r0
 800173a:	390b      	subs	r1, #11
 800173c:	221d      	movs	r2, #29
 800173e:	1a52      	subs	r2, r2, r1
 8001740:	0021      	movs	r1, r4
 8001742:	0018      	movs	r0, r3
 8001744:	465d      	mov	r5, fp
 8001746:	40d1      	lsrs	r1, r2
 8001748:	3808      	subs	r0, #8
 800174a:	4085      	lsls	r5, r0
 800174c:	000a      	movs	r2, r1
 800174e:	4084      	lsls	r4, r0
 8001750:	432a      	orrs	r2, r5
 8001752:	4693      	mov	fp, r2
 8001754:	46a2      	mov	sl, r4
 8001756:	4d5f      	ldr	r5, [pc, #380]	; (80018d4 <__aeabi_dmul+0x574>)
 8001758:	2600      	movs	r6, #0
 800175a:	1aed      	subs	r5, r5, r3
 800175c:	2300      	movs	r3, #0
 800175e:	9300      	str	r3, [sp, #0]
 8001760:	e625      	b.n	80013ae <__aeabi_dmul+0x4e>
 8001762:	465b      	mov	r3, fp
 8001764:	4303      	orrs	r3, r0
 8001766:	469a      	mov	sl, r3
 8001768:	d105      	bne.n	8001776 <__aeabi_dmul+0x416>
 800176a:	2300      	movs	r3, #0
 800176c:	469b      	mov	fp, r3
 800176e:	3302      	adds	r3, #2
 8001770:	2608      	movs	r6, #8
 8001772:	9300      	str	r3, [sp, #0]
 8001774:	e61b      	b.n	80013ae <__aeabi_dmul+0x4e>
 8001776:	2303      	movs	r3, #3
 8001778:	4682      	mov	sl, r0
 800177a:	260c      	movs	r6, #12
 800177c:	9300      	str	r3, [sp, #0]
 800177e:	e616      	b.n	80013ae <__aeabi_dmul+0x4e>
 8001780:	2300      	movs	r3, #0
 8001782:	469b      	mov	fp, r3
 8001784:	3301      	adds	r3, #1
 8001786:	2604      	movs	r6, #4
 8001788:	2500      	movs	r5, #0
 800178a:	9300      	str	r3, [sp, #0]
 800178c:	e60f      	b.n	80013ae <__aeabi_dmul+0x4e>
 800178e:	4642      	mov	r2, r8
 8001790:	3301      	adds	r3, #1
 8001792:	9501      	str	r5, [sp, #4]
 8001794:	431e      	orrs	r6, r3
 8001796:	9b01      	ldr	r3, [sp, #4]
 8001798:	407a      	eors	r2, r7
 800179a:	3301      	adds	r3, #1
 800179c:	2400      	movs	r4, #0
 800179e:	2000      	movs	r0, #0
 80017a0:	2101      	movs	r1, #1
 80017a2:	b2d2      	uxtb	r2, r2
 80017a4:	9302      	str	r3, [sp, #8]
 80017a6:	2e0a      	cmp	r6, #10
 80017a8:	dd00      	ble.n	80017ac <__aeabi_dmul+0x44c>
 80017aa:	e621      	b.n	80013f0 <__aeabi_dmul+0x90>
 80017ac:	e63d      	b.n	800142a <__aeabi_dmul+0xca>
 80017ae:	2101      	movs	r1, #1
 80017b0:	1ac9      	subs	r1, r1, r3
 80017b2:	2938      	cmp	r1, #56	; 0x38
 80017b4:	dd00      	ble.n	80017b8 <__aeabi_dmul+0x458>
 80017b6:	e642      	b.n	800143e <__aeabi_dmul+0xde>
 80017b8:	291f      	cmp	r1, #31
 80017ba:	dd47      	ble.n	800184c <__aeabi_dmul+0x4ec>
 80017bc:	261f      	movs	r6, #31
 80017be:	0025      	movs	r5, r4
 80017c0:	4276      	negs	r6, r6
 80017c2:	1af3      	subs	r3, r6, r3
 80017c4:	40dd      	lsrs	r5, r3
 80017c6:	002b      	movs	r3, r5
 80017c8:	2920      	cmp	r1, #32
 80017ca:	d005      	beq.n	80017d8 <__aeabi_dmul+0x478>
 80017cc:	4942      	ldr	r1, [pc, #264]	; (80018d8 <__aeabi_dmul+0x578>)
 80017ce:	9d02      	ldr	r5, [sp, #8]
 80017d0:	468c      	mov	ip, r1
 80017d2:	4465      	add	r5, ip
 80017d4:	40ac      	lsls	r4, r5
 80017d6:	4320      	orrs	r0, r4
 80017d8:	1e41      	subs	r1, r0, #1
 80017da:	4188      	sbcs	r0, r1
 80017dc:	4318      	orrs	r0, r3
 80017de:	2307      	movs	r3, #7
 80017e0:	001d      	movs	r5, r3
 80017e2:	2400      	movs	r4, #0
 80017e4:	4005      	ands	r5, r0
 80017e6:	4203      	tst	r3, r0
 80017e8:	d04a      	beq.n	8001880 <__aeabi_dmul+0x520>
 80017ea:	230f      	movs	r3, #15
 80017ec:	2400      	movs	r4, #0
 80017ee:	4003      	ands	r3, r0
 80017f0:	2b04      	cmp	r3, #4
 80017f2:	d042      	beq.n	800187a <__aeabi_dmul+0x51a>
 80017f4:	1d03      	adds	r3, r0, #4
 80017f6:	4283      	cmp	r3, r0
 80017f8:	4180      	sbcs	r0, r0
 80017fa:	4240      	negs	r0, r0
 80017fc:	1824      	adds	r4, r4, r0
 80017fe:	0018      	movs	r0, r3
 8001800:	0223      	lsls	r3, r4, #8
 8001802:	d53a      	bpl.n	800187a <__aeabi_dmul+0x51a>
 8001804:	2301      	movs	r3, #1
 8001806:	2400      	movs	r4, #0
 8001808:	2500      	movs	r5, #0
 800180a:	e61b      	b.n	8001444 <__aeabi_dmul+0xe4>
 800180c:	f000 fc70 	bl	80020f0 <__clzsi2>
 8001810:	0001      	movs	r1, r0
 8001812:	0003      	movs	r3, r0
 8001814:	3115      	adds	r1, #21
 8001816:	3320      	adds	r3, #32
 8001818:	291c      	cmp	r1, #28
 800181a:	dd8f      	ble.n	800173c <__aeabi_dmul+0x3dc>
 800181c:	3808      	subs	r0, #8
 800181e:	2200      	movs	r2, #0
 8001820:	4084      	lsls	r4, r0
 8001822:	4692      	mov	sl, r2
 8001824:	46a3      	mov	fp, r4
 8001826:	e796      	b.n	8001756 <__aeabi_dmul+0x3f6>
 8001828:	f000 fc62 	bl	80020f0 <__clzsi2>
 800182c:	0001      	movs	r1, r0
 800182e:	0003      	movs	r3, r0
 8001830:	3115      	adds	r1, #21
 8001832:	3320      	adds	r3, #32
 8001834:	291c      	cmp	r1, #28
 8001836:	dc00      	bgt.n	800183a <__aeabi_dmul+0x4da>
 8001838:	e758      	b.n	80016ec <__aeabi_dmul+0x38c>
 800183a:	0002      	movs	r2, r0
 800183c:	464c      	mov	r4, r9
 800183e:	3a08      	subs	r2, #8
 8001840:	2000      	movs	r0, #0
 8001842:	4094      	lsls	r4, r2
 8001844:	e75d      	b.n	8001702 <__aeabi_dmul+0x3a2>
 8001846:	9b01      	ldr	r3, [sp, #4]
 8001848:	9302      	str	r3, [sp, #8]
 800184a:	e711      	b.n	8001670 <__aeabi_dmul+0x310>
 800184c:	4b23      	ldr	r3, [pc, #140]	; (80018dc <__aeabi_dmul+0x57c>)
 800184e:	0026      	movs	r6, r4
 8001850:	469c      	mov	ip, r3
 8001852:	0003      	movs	r3, r0
 8001854:	9d02      	ldr	r5, [sp, #8]
 8001856:	40cb      	lsrs	r3, r1
 8001858:	4465      	add	r5, ip
 800185a:	40ae      	lsls	r6, r5
 800185c:	431e      	orrs	r6, r3
 800185e:	0003      	movs	r3, r0
 8001860:	40ab      	lsls	r3, r5
 8001862:	1e58      	subs	r0, r3, #1
 8001864:	4183      	sbcs	r3, r0
 8001866:	0030      	movs	r0, r6
 8001868:	4318      	orrs	r0, r3
 800186a:	40cc      	lsrs	r4, r1
 800186c:	0743      	lsls	r3, r0, #29
 800186e:	d0c7      	beq.n	8001800 <__aeabi_dmul+0x4a0>
 8001870:	230f      	movs	r3, #15
 8001872:	4003      	ands	r3, r0
 8001874:	2b04      	cmp	r3, #4
 8001876:	d1bd      	bne.n	80017f4 <__aeabi_dmul+0x494>
 8001878:	e7c2      	b.n	8001800 <__aeabi_dmul+0x4a0>
 800187a:	0765      	lsls	r5, r4, #29
 800187c:	0264      	lsls	r4, r4, #9
 800187e:	0b24      	lsrs	r4, r4, #12
 8001880:	08c0      	lsrs	r0, r0, #3
 8001882:	2300      	movs	r3, #0
 8001884:	4305      	orrs	r5, r0
 8001886:	e5dd      	b.n	8001444 <__aeabi_dmul+0xe4>
 8001888:	2500      	movs	r5, #0
 800188a:	2302      	movs	r3, #2
 800188c:	2e0f      	cmp	r6, #15
 800188e:	d10c      	bne.n	80018aa <__aeabi_dmul+0x54a>
 8001890:	2480      	movs	r4, #128	; 0x80
 8001892:	465b      	mov	r3, fp
 8001894:	0324      	lsls	r4, r4, #12
 8001896:	4223      	tst	r3, r4
 8001898:	d00e      	beq.n	80018b8 <__aeabi_dmul+0x558>
 800189a:	4221      	tst	r1, r4
 800189c:	d10c      	bne.n	80018b8 <__aeabi_dmul+0x558>
 800189e:	430c      	orrs	r4, r1
 80018a0:	0324      	lsls	r4, r4, #12
 80018a2:	003a      	movs	r2, r7
 80018a4:	4b0e      	ldr	r3, [pc, #56]	; (80018e0 <__aeabi_dmul+0x580>)
 80018a6:	0b24      	lsrs	r4, r4, #12
 80018a8:	e5cc      	b.n	8001444 <__aeabi_dmul+0xe4>
 80018aa:	2e0b      	cmp	r6, #11
 80018ac:	d000      	beq.n	80018b0 <__aeabi_dmul+0x550>
 80018ae:	e5a2      	b.n	80013f6 <__aeabi_dmul+0x96>
 80018b0:	468b      	mov	fp, r1
 80018b2:	46aa      	mov	sl, r5
 80018b4:	9300      	str	r3, [sp, #0]
 80018b6:	e5f7      	b.n	80014a8 <__aeabi_dmul+0x148>
 80018b8:	2480      	movs	r4, #128	; 0x80
 80018ba:	465b      	mov	r3, fp
 80018bc:	0324      	lsls	r4, r4, #12
 80018be:	431c      	orrs	r4, r3
 80018c0:	0324      	lsls	r4, r4, #12
 80018c2:	4642      	mov	r2, r8
 80018c4:	4655      	mov	r5, sl
 80018c6:	4b06      	ldr	r3, [pc, #24]	; (80018e0 <__aeabi_dmul+0x580>)
 80018c8:	0b24      	lsrs	r4, r4, #12
 80018ca:	e5bb      	b.n	8001444 <__aeabi_dmul+0xe4>
 80018cc:	464d      	mov	r5, r9
 80018ce:	0021      	movs	r1, r4
 80018d0:	2303      	movs	r3, #3
 80018d2:	e7db      	b.n	800188c <__aeabi_dmul+0x52c>
 80018d4:	fffffc0d 	.word	0xfffffc0d
 80018d8:	0000043e 	.word	0x0000043e
 80018dc:	0000041e 	.word	0x0000041e
 80018e0:	000007ff 	.word	0x000007ff

080018e4 <__aeabi_dsub>:
 80018e4:	b5f0      	push	{r4, r5, r6, r7, lr}
 80018e6:	4657      	mov	r7, sl
 80018e8:	464e      	mov	r6, r9
 80018ea:	4645      	mov	r5, r8
 80018ec:	46de      	mov	lr, fp
 80018ee:	b5e0      	push	{r5, r6, r7, lr}
 80018f0:	000d      	movs	r5, r1
 80018f2:	0004      	movs	r4, r0
 80018f4:	0019      	movs	r1, r3
 80018f6:	0010      	movs	r0, r2
 80018f8:	032b      	lsls	r3, r5, #12
 80018fa:	0a5b      	lsrs	r3, r3, #9
 80018fc:	0f62      	lsrs	r2, r4, #29
 80018fe:	431a      	orrs	r2, r3
 8001900:	00e3      	lsls	r3, r4, #3
 8001902:	030c      	lsls	r4, r1, #12
 8001904:	0a64      	lsrs	r4, r4, #9
 8001906:	0f47      	lsrs	r7, r0, #29
 8001908:	4327      	orrs	r7, r4
 800190a:	4cd0      	ldr	r4, [pc, #832]	; (8001c4c <__aeabi_dsub+0x368>)
 800190c:	006e      	lsls	r6, r5, #1
 800190e:	4691      	mov	r9, r2
 8001910:	b083      	sub	sp, #12
 8001912:	004a      	lsls	r2, r1, #1
 8001914:	00c0      	lsls	r0, r0, #3
 8001916:	4698      	mov	r8, r3
 8001918:	46a2      	mov	sl, r4
 800191a:	0d76      	lsrs	r6, r6, #21
 800191c:	0fed      	lsrs	r5, r5, #31
 800191e:	0d52      	lsrs	r2, r2, #21
 8001920:	0fc9      	lsrs	r1, r1, #31
 8001922:	9001      	str	r0, [sp, #4]
 8001924:	42a2      	cmp	r2, r4
 8001926:	d100      	bne.n	800192a <__aeabi_dsub+0x46>
 8001928:	e0b9      	b.n	8001a9e <__aeabi_dsub+0x1ba>
 800192a:	2401      	movs	r4, #1
 800192c:	4061      	eors	r1, r4
 800192e:	468b      	mov	fp, r1
 8001930:	428d      	cmp	r5, r1
 8001932:	d100      	bne.n	8001936 <__aeabi_dsub+0x52>
 8001934:	e08d      	b.n	8001a52 <__aeabi_dsub+0x16e>
 8001936:	1ab4      	subs	r4, r6, r2
 8001938:	46a4      	mov	ip, r4
 800193a:	2c00      	cmp	r4, #0
 800193c:	dc00      	bgt.n	8001940 <__aeabi_dsub+0x5c>
 800193e:	e0b7      	b.n	8001ab0 <__aeabi_dsub+0x1cc>
 8001940:	2a00      	cmp	r2, #0
 8001942:	d100      	bne.n	8001946 <__aeabi_dsub+0x62>
 8001944:	e0cb      	b.n	8001ade <__aeabi_dsub+0x1fa>
 8001946:	4ac1      	ldr	r2, [pc, #772]	; (8001c4c <__aeabi_dsub+0x368>)
 8001948:	4296      	cmp	r6, r2
 800194a:	d100      	bne.n	800194e <__aeabi_dsub+0x6a>
 800194c:	e186      	b.n	8001c5c <__aeabi_dsub+0x378>
 800194e:	2280      	movs	r2, #128	; 0x80
 8001950:	0412      	lsls	r2, r2, #16
 8001952:	4317      	orrs	r7, r2
 8001954:	4662      	mov	r2, ip
 8001956:	2a38      	cmp	r2, #56	; 0x38
 8001958:	dd00      	ble.n	800195c <__aeabi_dsub+0x78>
 800195a:	e1a4      	b.n	8001ca6 <__aeabi_dsub+0x3c2>
 800195c:	2a1f      	cmp	r2, #31
 800195e:	dd00      	ble.n	8001962 <__aeabi_dsub+0x7e>
 8001960:	e21d      	b.n	8001d9e <__aeabi_dsub+0x4ba>
 8001962:	4661      	mov	r1, ip
 8001964:	2220      	movs	r2, #32
 8001966:	003c      	movs	r4, r7
 8001968:	1a52      	subs	r2, r2, r1
 800196a:	0001      	movs	r1, r0
 800196c:	4090      	lsls	r0, r2
 800196e:	4094      	lsls	r4, r2
 8001970:	1e42      	subs	r2, r0, #1
 8001972:	4190      	sbcs	r0, r2
 8001974:	4662      	mov	r2, ip
 8001976:	46a0      	mov	r8, r4
 8001978:	4664      	mov	r4, ip
 800197a:	40d7      	lsrs	r7, r2
 800197c:	464a      	mov	r2, r9
 800197e:	40e1      	lsrs	r1, r4
 8001980:	4644      	mov	r4, r8
 8001982:	1bd2      	subs	r2, r2, r7
 8001984:	4691      	mov	r9, r2
 8001986:	430c      	orrs	r4, r1
 8001988:	4304      	orrs	r4, r0
 800198a:	1b1c      	subs	r4, r3, r4
 800198c:	42a3      	cmp	r3, r4
 800198e:	4192      	sbcs	r2, r2
 8001990:	464b      	mov	r3, r9
 8001992:	4252      	negs	r2, r2
 8001994:	1a9b      	subs	r3, r3, r2
 8001996:	469a      	mov	sl, r3
 8001998:	4653      	mov	r3, sl
 800199a:	021b      	lsls	r3, r3, #8
 800199c:	d400      	bmi.n	80019a0 <__aeabi_dsub+0xbc>
 800199e:	e12b      	b.n	8001bf8 <__aeabi_dsub+0x314>
 80019a0:	4653      	mov	r3, sl
 80019a2:	025a      	lsls	r2, r3, #9
 80019a4:	0a53      	lsrs	r3, r2, #9
 80019a6:	469a      	mov	sl, r3
 80019a8:	4653      	mov	r3, sl
 80019aa:	2b00      	cmp	r3, #0
 80019ac:	d100      	bne.n	80019b0 <__aeabi_dsub+0xcc>
 80019ae:	e166      	b.n	8001c7e <__aeabi_dsub+0x39a>
 80019b0:	4650      	mov	r0, sl
 80019b2:	f000 fb9d 	bl	80020f0 <__clzsi2>
 80019b6:	0003      	movs	r3, r0
 80019b8:	3b08      	subs	r3, #8
 80019ba:	2220      	movs	r2, #32
 80019bc:	0020      	movs	r0, r4
 80019be:	1ad2      	subs	r2, r2, r3
 80019c0:	4651      	mov	r1, sl
 80019c2:	40d0      	lsrs	r0, r2
 80019c4:	4099      	lsls	r1, r3
 80019c6:	0002      	movs	r2, r0
 80019c8:	409c      	lsls	r4, r3
 80019ca:	430a      	orrs	r2, r1
 80019cc:	429e      	cmp	r6, r3
 80019ce:	dd00      	ble.n	80019d2 <__aeabi_dsub+0xee>
 80019d0:	e164      	b.n	8001c9c <__aeabi_dsub+0x3b8>
 80019d2:	1b9b      	subs	r3, r3, r6
 80019d4:	1c59      	adds	r1, r3, #1
 80019d6:	291f      	cmp	r1, #31
 80019d8:	dd00      	ble.n	80019dc <__aeabi_dsub+0xf8>
 80019da:	e0fe      	b.n	8001bda <__aeabi_dsub+0x2f6>
 80019dc:	2320      	movs	r3, #32
 80019de:	0010      	movs	r0, r2
 80019e0:	0026      	movs	r6, r4
 80019e2:	1a5b      	subs	r3, r3, r1
 80019e4:	409c      	lsls	r4, r3
 80019e6:	4098      	lsls	r0, r3
 80019e8:	40ce      	lsrs	r6, r1
 80019ea:	40ca      	lsrs	r2, r1
 80019ec:	1e63      	subs	r3, r4, #1
 80019ee:	419c      	sbcs	r4, r3
 80019f0:	4330      	orrs	r0, r6
 80019f2:	4692      	mov	sl, r2
 80019f4:	2600      	movs	r6, #0
 80019f6:	4304      	orrs	r4, r0
 80019f8:	0763      	lsls	r3, r4, #29
 80019fa:	d009      	beq.n	8001a10 <__aeabi_dsub+0x12c>
 80019fc:	230f      	movs	r3, #15
 80019fe:	4023      	ands	r3, r4
 8001a00:	2b04      	cmp	r3, #4
 8001a02:	d005      	beq.n	8001a10 <__aeabi_dsub+0x12c>
 8001a04:	1d23      	adds	r3, r4, #4
 8001a06:	42a3      	cmp	r3, r4
 8001a08:	41a4      	sbcs	r4, r4
 8001a0a:	4264      	negs	r4, r4
 8001a0c:	44a2      	add	sl, r4
 8001a0e:	001c      	movs	r4, r3
 8001a10:	4653      	mov	r3, sl
 8001a12:	021b      	lsls	r3, r3, #8
 8001a14:	d400      	bmi.n	8001a18 <__aeabi_dsub+0x134>
 8001a16:	e0f2      	b.n	8001bfe <__aeabi_dsub+0x31a>
 8001a18:	4b8c      	ldr	r3, [pc, #560]	; (8001c4c <__aeabi_dsub+0x368>)
 8001a1a:	3601      	adds	r6, #1
 8001a1c:	429e      	cmp	r6, r3
 8001a1e:	d100      	bne.n	8001a22 <__aeabi_dsub+0x13e>
 8001a20:	e10f      	b.n	8001c42 <__aeabi_dsub+0x35e>
 8001a22:	4653      	mov	r3, sl
 8001a24:	498a      	ldr	r1, [pc, #552]	; (8001c50 <__aeabi_dsub+0x36c>)
 8001a26:	08e4      	lsrs	r4, r4, #3
 8001a28:	400b      	ands	r3, r1
 8001a2a:	0019      	movs	r1, r3
 8001a2c:	075b      	lsls	r3, r3, #29
 8001a2e:	4323      	orrs	r3, r4
 8001a30:	0572      	lsls	r2, r6, #21
 8001a32:	024c      	lsls	r4, r1, #9
 8001a34:	0b24      	lsrs	r4, r4, #12
 8001a36:	0d52      	lsrs	r2, r2, #21
 8001a38:	0512      	lsls	r2, r2, #20
 8001a3a:	4322      	orrs	r2, r4
 8001a3c:	07ed      	lsls	r5, r5, #31
 8001a3e:	432a      	orrs	r2, r5
 8001a40:	0018      	movs	r0, r3
 8001a42:	0011      	movs	r1, r2
 8001a44:	b003      	add	sp, #12
 8001a46:	bcf0      	pop	{r4, r5, r6, r7}
 8001a48:	46bb      	mov	fp, r7
 8001a4a:	46b2      	mov	sl, r6
 8001a4c:	46a9      	mov	r9, r5
 8001a4e:	46a0      	mov	r8, r4
 8001a50:	bdf0      	pop	{r4, r5, r6, r7, pc}
 8001a52:	1ab4      	subs	r4, r6, r2
 8001a54:	46a4      	mov	ip, r4
 8001a56:	2c00      	cmp	r4, #0
 8001a58:	dd59      	ble.n	8001b0e <__aeabi_dsub+0x22a>
 8001a5a:	2a00      	cmp	r2, #0
 8001a5c:	d100      	bne.n	8001a60 <__aeabi_dsub+0x17c>
 8001a5e:	e0b0      	b.n	8001bc2 <__aeabi_dsub+0x2de>
 8001a60:	4556      	cmp	r6, sl
 8001a62:	d100      	bne.n	8001a66 <__aeabi_dsub+0x182>
 8001a64:	e0fa      	b.n	8001c5c <__aeabi_dsub+0x378>
 8001a66:	2280      	movs	r2, #128	; 0x80
 8001a68:	0412      	lsls	r2, r2, #16
 8001a6a:	4317      	orrs	r7, r2
 8001a6c:	4662      	mov	r2, ip
 8001a6e:	2a38      	cmp	r2, #56	; 0x38
 8001a70:	dd00      	ble.n	8001a74 <__aeabi_dsub+0x190>
 8001a72:	e0d4      	b.n	8001c1e <__aeabi_dsub+0x33a>
 8001a74:	2a1f      	cmp	r2, #31
 8001a76:	dc00      	bgt.n	8001a7a <__aeabi_dsub+0x196>
 8001a78:	e1c0      	b.n	8001dfc <__aeabi_dsub+0x518>
 8001a7a:	0039      	movs	r1, r7
 8001a7c:	3a20      	subs	r2, #32
 8001a7e:	40d1      	lsrs	r1, r2
 8001a80:	4662      	mov	r2, ip
 8001a82:	2a20      	cmp	r2, #32
 8001a84:	d006      	beq.n	8001a94 <__aeabi_dsub+0x1b0>
 8001a86:	4664      	mov	r4, ip
 8001a88:	2240      	movs	r2, #64	; 0x40
 8001a8a:	1b12      	subs	r2, r2, r4
 8001a8c:	003c      	movs	r4, r7
 8001a8e:	4094      	lsls	r4, r2
 8001a90:	4304      	orrs	r4, r0
 8001a92:	9401      	str	r4, [sp, #4]
 8001a94:	9c01      	ldr	r4, [sp, #4]
 8001a96:	1e62      	subs	r2, r4, #1
 8001a98:	4194      	sbcs	r4, r2
 8001a9a:	430c      	orrs	r4, r1
 8001a9c:	e0c3      	b.n	8001c26 <__aeabi_dsub+0x342>
 8001a9e:	003c      	movs	r4, r7
 8001aa0:	4304      	orrs	r4, r0
 8001aa2:	d02b      	beq.n	8001afc <__aeabi_dsub+0x218>
 8001aa4:	468b      	mov	fp, r1
 8001aa6:	428d      	cmp	r5, r1
 8001aa8:	d02e      	beq.n	8001b08 <__aeabi_dsub+0x224>
 8001aaa:	4c6a      	ldr	r4, [pc, #424]	; (8001c54 <__aeabi_dsub+0x370>)
 8001aac:	46a4      	mov	ip, r4
 8001aae:	44b4      	add	ip, r6
 8001ab0:	4664      	mov	r4, ip
 8001ab2:	2c00      	cmp	r4, #0
 8001ab4:	d05f      	beq.n	8001b76 <__aeabi_dsub+0x292>
 8001ab6:	1b94      	subs	r4, r2, r6
 8001ab8:	46a4      	mov	ip, r4
 8001aba:	2e00      	cmp	r6, #0
 8001abc:	d000      	beq.n	8001ac0 <__aeabi_dsub+0x1dc>
 8001abe:	e120      	b.n	8001d02 <__aeabi_dsub+0x41e>
 8001ac0:	464c      	mov	r4, r9
 8001ac2:	431c      	orrs	r4, r3
 8001ac4:	d100      	bne.n	8001ac8 <__aeabi_dsub+0x1e4>
 8001ac6:	e1c7      	b.n	8001e58 <__aeabi_dsub+0x574>
 8001ac8:	4661      	mov	r1, ip
 8001aca:	1e4c      	subs	r4, r1, #1
 8001acc:	2901      	cmp	r1, #1
 8001ace:	d100      	bne.n	8001ad2 <__aeabi_dsub+0x1ee>
 8001ad0:	e223      	b.n	8001f1a <__aeabi_dsub+0x636>
 8001ad2:	4d5e      	ldr	r5, [pc, #376]	; (8001c4c <__aeabi_dsub+0x368>)
 8001ad4:	45ac      	cmp	ip, r5
 8001ad6:	d100      	bne.n	8001ada <__aeabi_dsub+0x1f6>
 8001ad8:	e1d8      	b.n	8001e8c <__aeabi_dsub+0x5a8>
 8001ada:	46a4      	mov	ip, r4
 8001adc:	e11a      	b.n	8001d14 <__aeabi_dsub+0x430>
 8001ade:	003a      	movs	r2, r7
 8001ae0:	4302      	orrs	r2, r0
 8001ae2:	d100      	bne.n	8001ae6 <__aeabi_dsub+0x202>
 8001ae4:	e0e4      	b.n	8001cb0 <__aeabi_dsub+0x3cc>
 8001ae6:	0022      	movs	r2, r4
 8001ae8:	3a01      	subs	r2, #1
 8001aea:	2c01      	cmp	r4, #1
 8001aec:	d100      	bne.n	8001af0 <__aeabi_dsub+0x20c>
 8001aee:	e1c3      	b.n	8001e78 <__aeabi_dsub+0x594>
 8001af0:	4956      	ldr	r1, [pc, #344]	; (8001c4c <__aeabi_dsub+0x368>)
 8001af2:	428c      	cmp	r4, r1
 8001af4:	d100      	bne.n	8001af8 <__aeabi_dsub+0x214>
 8001af6:	e0b1      	b.n	8001c5c <__aeabi_dsub+0x378>
 8001af8:	4694      	mov	ip, r2
 8001afa:	e72b      	b.n	8001954 <__aeabi_dsub+0x70>
 8001afc:	2401      	movs	r4, #1
 8001afe:	4061      	eors	r1, r4
 8001b00:	468b      	mov	fp, r1
 8001b02:	428d      	cmp	r5, r1
 8001b04:	d000      	beq.n	8001b08 <__aeabi_dsub+0x224>
 8001b06:	e716      	b.n	8001936 <__aeabi_dsub+0x52>
 8001b08:	4952      	ldr	r1, [pc, #328]	; (8001c54 <__aeabi_dsub+0x370>)
 8001b0a:	468c      	mov	ip, r1
 8001b0c:	44b4      	add	ip, r6
 8001b0e:	4664      	mov	r4, ip
 8001b10:	2c00      	cmp	r4, #0
 8001b12:	d100      	bne.n	8001b16 <__aeabi_dsub+0x232>
 8001b14:	e0d3      	b.n	8001cbe <__aeabi_dsub+0x3da>
 8001b16:	1b91      	subs	r1, r2, r6
 8001b18:	468c      	mov	ip, r1
 8001b1a:	2e00      	cmp	r6, #0
 8001b1c:	d100      	bne.n	8001b20 <__aeabi_dsub+0x23c>
 8001b1e:	e15e      	b.n	8001dde <__aeabi_dsub+0x4fa>
 8001b20:	494a      	ldr	r1, [pc, #296]	; (8001c4c <__aeabi_dsub+0x368>)
 8001b22:	428a      	cmp	r2, r1
 8001b24:	d100      	bne.n	8001b28 <__aeabi_dsub+0x244>
 8001b26:	e1be      	b.n	8001ea6 <__aeabi_dsub+0x5c2>
 8001b28:	2180      	movs	r1, #128	; 0x80
 8001b2a:	464c      	mov	r4, r9
 8001b2c:	0409      	lsls	r1, r1, #16
 8001b2e:	430c      	orrs	r4, r1
 8001b30:	46a1      	mov	r9, r4
 8001b32:	4661      	mov	r1, ip
 8001b34:	2938      	cmp	r1, #56	; 0x38
 8001b36:	dd00      	ble.n	8001b3a <__aeabi_dsub+0x256>
 8001b38:	e1ba      	b.n	8001eb0 <__aeabi_dsub+0x5cc>
 8001b3a:	291f      	cmp	r1, #31
 8001b3c:	dd00      	ble.n	8001b40 <__aeabi_dsub+0x25c>
 8001b3e:	e227      	b.n	8001f90 <__aeabi_dsub+0x6ac>
 8001b40:	2420      	movs	r4, #32
 8001b42:	1a64      	subs	r4, r4, r1
 8001b44:	4649      	mov	r1, r9
 8001b46:	40a1      	lsls	r1, r4
 8001b48:	001e      	movs	r6, r3
 8001b4a:	4688      	mov	r8, r1
 8001b4c:	4661      	mov	r1, ip
 8001b4e:	40a3      	lsls	r3, r4
 8001b50:	40ce      	lsrs	r6, r1
 8001b52:	4641      	mov	r1, r8
 8001b54:	1e5c      	subs	r4, r3, #1
 8001b56:	41a3      	sbcs	r3, r4
 8001b58:	4331      	orrs	r1, r6
 8001b5a:	4319      	orrs	r1, r3
 8001b5c:	000c      	movs	r4, r1
 8001b5e:	4663      	mov	r3, ip
 8001b60:	4649      	mov	r1, r9
 8001b62:	40d9      	lsrs	r1, r3
 8001b64:	187f      	adds	r7, r7, r1
 8001b66:	1824      	adds	r4, r4, r0
 8001b68:	4284      	cmp	r4, r0
 8001b6a:	419b      	sbcs	r3, r3
 8001b6c:	425b      	negs	r3, r3
 8001b6e:	469a      	mov	sl, r3
 8001b70:	0016      	movs	r6, r2
 8001b72:	44ba      	add	sl, r7
 8001b74:	e05d      	b.n	8001c32 <__aeabi_dsub+0x34e>
 8001b76:	4c38      	ldr	r4, [pc, #224]	; (8001c58 <__aeabi_dsub+0x374>)
 8001b78:	1c72      	adds	r2, r6, #1
 8001b7a:	4222      	tst	r2, r4
 8001b7c:	d000      	beq.n	8001b80 <__aeabi_dsub+0x29c>
 8001b7e:	e0df      	b.n	8001d40 <__aeabi_dsub+0x45c>
 8001b80:	464a      	mov	r2, r9
 8001b82:	431a      	orrs	r2, r3
 8001b84:	2e00      	cmp	r6, #0
 8001b86:	d000      	beq.n	8001b8a <__aeabi_dsub+0x2a6>
 8001b88:	e15c      	b.n	8001e44 <__aeabi_dsub+0x560>
 8001b8a:	2a00      	cmp	r2, #0
 8001b8c:	d100      	bne.n	8001b90 <__aeabi_dsub+0x2ac>
 8001b8e:	e1cf      	b.n	8001f30 <__aeabi_dsub+0x64c>
 8001b90:	003a      	movs	r2, r7
 8001b92:	4302      	orrs	r2, r0
 8001b94:	d100      	bne.n	8001b98 <__aeabi_dsub+0x2b4>
 8001b96:	e17f      	b.n	8001e98 <__aeabi_dsub+0x5b4>
 8001b98:	1a1c      	subs	r4, r3, r0
 8001b9a:	464a      	mov	r2, r9
 8001b9c:	42a3      	cmp	r3, r4
 8001b9e:	4189      	sbcs	r1, r1
 8001ba0:	1bd2      	subs	r2, r2, r7
 8001ba2:	4249      	negs	r1, r1
 8001ba4:	1a52      	subs	r2, r2, r1
 8001ba6:	4692      	mov	sl, r2
 8001ba8:	0212      	lsls	r2, r2, #8
 8001baa:	d400      	bmi.n	8001bae <__aeabi_dsub+0x2ca>
 8001bac:	e20a      	b.n	8001fc4 <__aeabi_dsub+0x6e0>
 8001bae:	1ac4      	subs	r4, r0, r3
 8001bb0:	42a0      	cmp	r0, r4
 8001bb2:	4180      	sbcs	r0, r0
 8001bb4:	464b      	mov	r3, r9
 8001bb6:	4240      	negs	r0, r0
 8001bb8:	1aff      	subs	r7, r7, r3
 8001bba:	1a3b      	subs	r3, r7, r0
 8001bbc:	469a      	mov	sl, r3
 8001bbe:	465d      	mov	r5, fp
 8001bc0:	e71a      	b.n	80019f8 <__aeabi_dsub+0x114>
 8001bc2:	003a      	movs	r2, r7
 8001bc4:	4302      	orrs	r2, r0
 8001bc6:	d073      	beq.n	8001cb0 <__aeabi_dsub+0x3cc>
 8001bc8:	0022      	movs	r2, r4
 8001bca:	3a01      	subs	r2, #1
 8001bcc:	2c01      	cmp	r4, #1
 8001bce:	d100      	bne.n	8001bd2 <__aeabi_dsub+0x2ee>
 8001bd0:	e0cb      	b.n	8001d6a <__aeabi_dsub+0x486>
 8001bd2:	4554      	cmp	r4, sl
 8001bd4:	d042      	beq.n	8001c5c <__aeabi_dsub+0x378>
 8001bd6:	4694      	mov	ip, r2
 8001bd8:	e748      	b.n	8001a6c <__aeabi_dsub+0x188>
 8001bda:	0010      	movs	r0, r2
 8001bdc:	3b1f      	subs	r3, #31
 8001bde:	40d8      	lsrs	r0, r3
 8001be0:	2920      	cmp	r1, #32
 8001be2:	d003      	beq.n	8001bec <__aeabi_dsub+0x308>
 8001be4:	2340      	movs	r3, #64	; 0x40
 8001be6:	1a5b      	subs	r3, r3, r1
 8001be8:	409a      	lsls	r2, r3
 8001bea:	4314      	orrs	r4, r2
 8001bec:	1e63      	subs	r3, r4, #1
 8001bee:	419c      	sbcs	r4, r3
 8001bf0:	2300      	movs	r3, #0
 8001bf2:	2600      	movs	r6, #0
 8001bf4:	469a      	mov	sl, r3
 8001bf6:	4304      	orrs	r4, r0
 8001bf8:	0763      	lsls	r3, r4, #29
 8001bfa:	d000      	beq.n	8001bfe <__aeabi_dsub+0x31a>
 8001bfc:	e6fe      	b.n	80019fc <__aeabi_dsub+0x118>
 8001bfe:	4652      	mov	r2, sl
 8001c00:	08e3      	lsrs	r3, r4, #3
 8001c02:	0752      	lsls	r2, r2, #29
 8001c04:	4313      	orrs	r3, r2
 8001c06:	4652      	mov	r2, sl
 8001c08:	46b4      	mov	ip, r6
 8001c0a:	08d2      	lsrs	r2, r2, #3
 8001c0c:	490f      	ldr	r1, [pc, #60]	; (8001c4c <__aeabi_dsub+0x368>)
 8001c0e:	458c      	cmp	ip, r1
 8001c10:	d02a      	beq.n	8001c68 <__aeabi_dsub+0x384>
 8001c12:	0312      	lsls	r2, r2, #12
 8001c14:	0b14      	lsrs	r4, r2, #12
 8001c16:	4662      	mov	r2, ip
 8001c18:	0552      	lsls	r2, r2, #21
 8001c1a:	0d52      	lsrs	r2, r2, #21
 8001c1c:	e70c      	b.n	8001a38 <__aeabi_dsub+0x154>
 8001c1e:	003c      	movs	r4, r7
 8001c20:	4304      	orrs	r4, r0
 8001c22:	1e62      	subs	r2, r4, #1
 8001c24:	4194      	sbcs	r4, r2
 8001c26:	18e4      	adds	r4, r4, r3
 8001c28:	429c      	cmp	r4, r3
 8001c2a:	4192      	sbcs	r2, r2
 8001c2c:	4252      	negs	r2, r2
 8001c2e:	444a      	add	r2, r9
 8001c30:	4692      	mov	sl, r2
 8001c32:	4653      	mov	r3, sl
 8001c34:	021b      	lsls	r3, r3, #8
 8001c36:	d5df      	bpl.n	8001bf8 <__aeabi_dsub+0x314>
 8001c38:	4b04      	ldr	r3, [pc, #16]	; (8001c4c <__aeabi_dsub+0x368>)
 8001c3a:	3601      	adds	r6, #1
 8001c3c:	429e      	cmp	r6, r3
 8001c3e:	d000      	beq.n	8001c42 <__aeabi_dsub+0x35e>
 8001c40:	e0a0      	b.n	8001d84 <__aeabi_dsub+0x4a0>
 8001c42:	0032      	movs	r2, r6
 8001c44:	2400      	movs	r4, #0
 8001c46:	2300      	movs	r3, #0
 8001c48:	e6f6      	b.n	8001a38 <__aeabi_dsub+0x154>
 8001c4a:	46c0      	nop			; (mov r8, r8)
 8001c4c:	000007ff 	.word	0x000007ff
 8001c50:	ff7fffff 	.word	0xff7fffff
 8001c54:	fffff801 	.word	0xfffff801
 8001c58:	000007fe 	.word	0x000007fe
 8001c5c:	08db      	lsrs	r3, r3, #3
 8001c5e:	464a      	mov	r2, r9
 8001c60:	0752      	lsls	r2, r2, #29
 8001c62:	4313      	orrs	r3, r2
 8001c64:	464a      	mov	r2, r9
 8001c66:	08d2      	lsrs	r2, r2, #3
 8001c68:	0019      	movs	r1, r3
 8001c6a:	4311      	orrs	r1, r2
 8001c6c:	d100      	bne.n	8001c70 <__aeabi_dsub+0x38c>
 8001c6e:	e1b5      	b.n	8001fdc <__aeabi_dsub+0x6f8>
 8001c70:	2480      	movs	r4, #128	; 0x80
 8001c72:	0324      	lsls	r4, r4, #12
 8001c74:	4314      	orrs	r4, r2
 8001c76:	0324      	lsls	r4, r4, #12
 8001c78:	4ad5      	ldr	r2, [pc, #852]	; (8001fd0 <__aeabi_dsub+0x6ec>)
 8001c7a:	0b24      	lsrs	r4, r4, #12
 8001c7c:	e6dc      	b.n	8001a38 <__aeabi_dsub+0x154>
 8001c7e:	0020      	movs	r0, r4
 8001c80:	f000 fa36 	bl	80020f0 <__clzsi2>
 8001c84:	0003      	movs	r3, r0
 8001c86:	3318      	adds	r3, #24
 8001c88:	2b1f      	cmp	r3, #31
 8001c8a:	dc00      	bgt.n	8001c8e <__aeabi_dsub+0x3aa>
 8001c8c:	e695      	b.n	80019ba <__aeabi_dsub+0xd6>
 8001c8e:	0022      	movs	r2, r4
 8001c90:	3808      	subs	r0, #8
 8001c92:	4082      	lsls	r2, r0
 8001c94:	2400      	movs	r4, #0
 8001c96:	429e      	cmp	r6, r3
 8001c98:	dc00      	bgt.n	8001c9c <__aeabi_dsub+0x3b8>
 8001c9a:	e69a      	b.n	80019d2 <__aeabi_dsub+0xee>
 8001c9c:	1af6      	subs	r6, r6, r3
 8001c9e:	4bcd      	ldr	r3, [pc, #820]	; (8001fd4 <__aeabi_dsub+0x6f0>)
 8001ca0:	401a      	ands	r2, r3
 8001ca2:	4692      	mov	sl, r2
 8001ca4:	e6a8      	b.n	80019f8 <__aeabi_dsub+0x114>
 8001ca6:	003c      	movs	r4, r7
 8001ca8:	4304      	orrs	r4, r0
 8001caa:	1e62      	subs	r2, r4, #1
 8001cac:	4194      	sbcs	r4, r2
 8001cae:	e66c      	b.n	800198a <__aeabi_dsub+0xa6>
 8001cb0:	464a      	mov	r2, r9
 8001cb2:	08db      	lsrs	r3, r3, #3
 8001cb4:	0752      	lsls	r2, r2, #29
 8001cb6:	4313      	orrs	r3, r2
 8001cb8:	464a      	mov	r2, r9
 8001cba:	08d2      	lsrs	r2, r2, #3
 8001cbc:	e7a6      	b.n	8001c0c <__aeabi_dsub+0x328>
 8001cbe:	4cc6      	ldr	r4, [pc, #792]	; (8001fd8 <__aeabi_dsub+0x6f4>)
 8001cc0:	1c72      	adds	r2, r6, #1
 8001cc2:	4222      	tst	r2, r4
 8001cc4:	d000      	beq.n	8001cc8 <__aeabi_dsub+0x3e4>
 8001cc6:	e0ac      	b.n	8001e22 <__aeabi_dsub+0x53e>
 8001cc8:	464a      	mov	r2, r9
 8001cca:	431a      	orrs	r2, r3
 8001ccc:	2e00      	cmp	r6, #0
 8001cce:	d000      	beq.n	8001cd2 <__aeabi_dsub+0x3ee>
 8001cd0:	e105      	b.n	8001ede <__aeabi_dsub+0x5fa>
 8001cd2:	2a00      	cmp	r2, #0
 8001cd4:	d100      	bne.n	8001cd8 <__aeabi_dsub+0x3f4>
 8001cd6:	e156      	b.n	8001f86 <__aeabi_dsub+0x6a2>
 8001cd8:	003a      	movs	r2, r7
 8001cda:	4302      	orrs	r2, r0
 8001cdc:	d100      	bne.n	8001ce0 <__aeabi_dsub+0x3fc>
 8001cde:	e0db      	b.n	8001e98 <__aeabi_dsub+0x5b4>
 8001ce0:	181c      	adds	r4, r3, r0
 8001ce2:	429c      	cmp	r4, r3
 8001ce4:	419b      	sbcs	r3, r3
 8001ce6:	444f      	add	r7, r9
 8001ce8:	46ba      	mov	sl, r7
 8001cea:	425b      	negs	r3, r3
 8001cec:	449a      	add	sl, r3
 8001cee:	4653      	mov	r3, sl
 8001cf0:	021b      	lsls	r3, r3, #8
 8001cf2:	d400      	bmi.n	8001cf6 <__aeabi_dsub+0x412>
 8001cf4:	e780      	b.n	8001bf8 <__aeabi_dsub+0x314>
 8001cf6:	4652      	mov	r2, sl
 8001cf8:	4bb6      	ldr	r3, [pc, #728]	; (8001fd4 <__aeabi_dsub+0x6f0>)
 8001cfa:	2601      	movs	r6, #1
 8001cfc:	401a      	ands	r2, r3
 8001cfe:	4692      	mov	sl, r2
 8001d00:	e77a      	b.n	8001bf8 <__aeabi_dsub+0x314>
 8001d02:	4cb3      	ldr	r4, [pc, #716]	; (8001fd0 <__aeabi_dsub+0x6ec>)
 8001d04:	42a2      	cmp	r2, r4
 8001d06:	d100      	bne.n	8001d0a <__aeabi_dsub+0x426>
 8001d08:	e0c0      	b.n	8001e8c <__aeabi_dsub+0x5a8>
 8001d0a:	2480      	movs	r4, #128	; 0x80
 8001d0c:	464d      	mov	r5, r9
 8001d0e:	0424      	lsls	r4, r4, #16
 8001d10:	4325      	orrs	r5, r4
 8001d12:	46a9      	mov	r9, r5
 8001d14:	4664      	mov	r4, ip
 8001d16:	2c38      	cmp	r4, #56	; 0x38
 8001d18:	dc53      	bgt.n	8001dc2 <__aeabi_dsub+0x4de>
 8001d1a:	4661      	mov	r1, ip
 8001d1c:	2c1f      	cmp	r4, #31
 8001d1e:	dd00      	ble.n	8001d22 <__aeabi_dsub+0x43e>
 8001d20:	e0cd      	b.n	8001ebe <__aeabi_dsub+0x5da>
 8001d22:	2520      	movs	r5, #32
 8001d24:	001e      	movs	r6, r3
 8001d26:	1b2d      	subs	r5, r5, r4
 8001d28:	464c      	mov	r4, r9
 8001d2a:	40ab      	lsls	r3, r5
 8001d2c:	40ac      	lsls	r4, r5
 8001d2e:	40ce      	lsrs	r6, r1
 8001d30:	1e5d      	subs	r5, r3, #1
 8001d32:	41ab      	sbcs	r3, r5
 8001d34:	4334      	orrs	r4, r6
 8001d36:	4323      	orrs	r3, r4
 8001d38:	464c      	mov	r4, r9
 8001d3a:	40cc      	lsrs	r4, r1
 8001d3c:	1b3f      	subs	r7, r7, r4
 8001d3e:	e045      	b.n	8001dcc <__aeabi_dsub+0x4e8>
 8001d40:	464a      	mov	r2, r9
 8001d42:	1a1c      	subs	r4, r3, r0
 8001d44:	1bd1      	subs	r1, r2, r7
 8001d46:	42a3      	cmp	r3, r4
 8001d48:	4192      	sbcs	r2, r2
 8001d4a:	4252      	negs	r2, r2
 8001d4c:	4692      	mov	sl, r2
 8001d4e:	000a      	movs	r2, r1
 8001d50:	4651      	mov	r1, sl
 8001d52:	1a52      	subs	r2, r2, r1
 8001d54:	4692      	mov	sl, r2
 8001d56:	0212      	lsls	r2, r2, #8
 8001d58:	d500      	bpl.n	8001d5c <__aeabi_dsub+0x478>
 8001d5a:	e083      	b.n	8001e64 <__aeabi_dsub+0x580>
 8001d5c:	4653      	mov	r3, sl
 8001d5e:	4323      	orrs	r3, r4
 8001d60:	d000      	beq.n	8001d64 <__aeabi_dsub+0x480>
 8001d62:	e621      	b.n	80019a8 <__aeabi_dsub+0xc4>
 8001d64:	2200      	movs	r2, #0
 8001d66:	2500      	movs	r5, #0
 8001d68:	e753      	b.n	8001c12 <__aeabi_dsub+0x32e>
 8001d6a:	181c      	adds	r4, r3, r0
 8001d6c:	429c      	cmp	r4, r3
 8001d6e:	419b      	sbcs	r3, r3
 8001d70:	444f      	add	r7, r9
 8001d72:	46ba      	mov	sl, r7
 8001d74:	425b      	negs	r3, r3
 8001d76:	449a      	add	sl, r3
 8001d78:	4653      	mov	r3, sl
 8001d7a:	2601      	movs	r6, #1
 8001d7c:	021b      	lsls	r3, r3, #8
 8001d7e:	d400      	bmi.n	8001d82 <__aeabi_dsub+0x49e>
 8001d80:	e73a      	b.n	8001bf8 <__aeabi_dsub+0x314>
 8001d82:	2602      	movs	r6, #2
 8001d84:	4652      	mov	r2, sl
 8001d86:	4b93      	ldr	r3, [pc, #588]	; (8001fd4 <__aeabi_dsub+0x6f0>)
 8001d88:	2101      	movs	r1, #1
 8001d8a:	401a      	ands	r2, r3
 8001d8c:	0013      	movs	r3, r2
 8001d8e:	4021      	ands	r1, r4
 8001d90:	0862      	lsrs	r2, r4, #1
 8001d92:	430a      	orrs	r2, r1
 8001d94:	07dc      	lsls	r4, r3, #31
 8001d96:	085b      	lsrs	r3, r3, #1
 8001d98:	469a      	mov	sl, r3
 8001d9a:	4314      	orrs	r4, r2
 8001d9c:	e62c      	b.n	80019f8 <__aeabi_dsub+0x114>
 8001d9e:	0039      	movs	r1, r7
 8001da0:	3a20      	subs	r2, #32
 8001da2:	40d1      	lsrs	r1, r2
 8001da4:	4662      	mov	r2, ip
 8001da6:	2a20      	cmp	r2, #32
 8001da8:	d006      	beq.n	8001db8 <__aeabi_dsub+0x4d4>
 8001daa:	4664      	mov	r4, ip
 8001dac:	2240      	movs	r2, #64	; 0x40
 8001dae:	1b12      	subs	r2, r2, r4
 8001db0:	003c      	movs	r4, r7
 8001db2:	4094      	lsls	r4, r2
 8001db4:	4304      	orrs	r4, r0
 8001db6:	9401      	str	r4, [sp, #4]
 8001db8:	9c01      	ldr	r4, [sp, #4]
 8001dba:	1e62      	subs	r2, r4, #1
 8001dbc:	4194      	sbcs	r4, r2
 8001dbe:	430c      	orrs	r4, r1
 8001dc0:	e5e3      	b.n	800198a <__aeabi_dsub+0xa6>
 8001dc2:	4649      	mov	r1, r9
 8001dc4:	4319      	orrs	r1, r3
 8001dc6:	000b      	movs	r3, r1
 8001dc8:	1e5c      	subs	r4, r3, #1
 8001dca:	41a3      	sbcs	r3, r4
 8001dcc:	1ac4      	subs	r4, r0, r3
 8001dce:	42a0      	cmp	r0, r4
 8001dd0:	419b      	sbcs	r3, r3
 8001dd2:	425b      	negs	r3, r3
 8001dd4:	1afb      	subs	r3, r7, r3
 8001dd6:	469a      	mov	sl, r3
 8001dd8:	465d      	mov	r5, fp
 8001dda:	0016      	movs	r6, r2
 8001ddc:	e5dc      	b.n	8001998 <__aeabi_dsub+0xb4>
 8001dde:	4649      	mov	r1, r9
 8001de0:	4319      	orrs	r1, r3
 8001de2:	d100      	bne.n	8001de6 <__aeabi_dsub+0x502>
 8001de4:	e0ae      	b.n	8001f44 <__aeabi_dsub+0x660>
 8001de6:	4661      	mov	r1, ip
 8001de8:	4664      	mov	r4, ip
 8001dea:	3901      	subs	r1, #1
 8001dec:	2c01      	cmp	r4, #1
 8001dee:	d100      	bne.n	8001df2 <__aeabi_dsub+0x50e>
 8001df0:	e0e0      	b.n	8001fb4 <__aeabi_dsub+0x6d0>
 8001df2:	4c77      	ldr	r4, [pc, #476]	; (8001fd0 <__aeabi_dsub+0x6ec>)
 8001df4:	45a4      	cmp	ip, r4
 8001df6:	d056      	beq.n	8001ea6 <__aeabi_dsub+0x5c2>
 8001df8:	468c      	mov	ip, r1
 8001dfa:	e69a      	b.n	8001b32 <__aeabi_dsub+0x24e>
 8001dfc:	4661      	mov	r1, ip
 8001dfe:	2220      	movs	r2, #32
 8001e00:	003c      	movs	r4, r7
 8001e02:	1a52      	subs	r2, r2, r1
 8001e04:	4094      	lsls	r4, r2
 8001e06:	0001      	movs	r1, r0
 8001e08:	4090      	lsls	r0, r2
 8001e0a:	46a0      	mov	r8, r4
 8001e0c:	4664      	mov	r4, ip
 8001e0e:	1e42      	subs	r2, r0, #1
 8001e10:	4190      	sbcs	r0, r2
 8001e12:	4662      	mov	r2, ip
 8001e14:	40e1      	lsrs	r1, r4
 8001e16:	4644      	mov	r4, r8
 8001e18:	40d7      	lsrs	r7, r2
 8001e1a:	430c      	orrs	r4, r1
 8001e1c:	4304      	orrs	r4, r0
 8001e1e:	44b9      	add	r9, r7
 8001e20:	e701      	b.n	8001c26 <__aeabi_dsub+0x342>
 8001e22:	496b      	ldr	r1, [pc, #428]	; (8001fd0 <__aeabi_dsub+0x6ec>)
 8001e24:	428a      	cmp	r2, r1
 8001e26:	d100      	bne.n	8001e2a <__aeabi_dsub+0x546>
 8001e28:	e70c      	b.n	8001c44 <__aeabi_dsub+0x360>
 8001e2a:	1818      	adds	r0, r3, r0
 8001e2c:	4298      	cmp	r0, r3
 8001e2e:	419b      	sbcs	r3, r3
 8001e30:	444f      	add	r7, r9
 8001e32:	425b      	negs	r3, r3
 8001e34:	18fb      	adds	r3, r7, r3
 8001e36:	07dc      	lsls	r4, r3, #31
 8001e38:	0840      	lsrs	r0, r0, #1
 8001e3a:	085b      	lsrs	r3, r3, #1
 8001e3c:	469a      	mov	sl, r3
 8001e3e:	0016      	movs	r6, r2
 8001e40:	4304      	orrs	r4, r0
 8001e42:	e6d9      	b.n	8001bf8 <__aeabi_dsub+0x314>
 8001e44:	2a00      	cmp	r2, #0
 8001e46:	d000      	beq.n	8001e4a <__aeabi_dsub+0x566>
 8001e48:	e081      	b.n	8001f4e <__aeabi_dsub+0x66a>
 8001e4a:	003b      	movs	r3, r7
 8001e4c:	4303      	orrs	r3, r0
 8001e4e:	d11d      	bne.n	8001e8c <__aeabi_dsub+0x5a8>
 8001e50:	2280      	movs	r2, #128	; 0x80
 8001e52:	2500      	movs	r5, #0
 8001e54:	0312      	lsls	r2, r2, #12
 8001e56:	e70b      	b.n	8001c70 <__aeabi_dsub+0x38c>
 8001e58:	08c0      	lsrs	r0, r0, #3
 8001e5a:	077b      	lsls	r3, r7, #29
 8001e5c:	465d      	mov	r5, fp
 8001e5e:	4303      	orrs	r3, r0
 8001e60:	08fa      	lsrs	r2, r7, #3
 8001e62:	e6d3      	b.n	8001c0c <__aeabi_dsub+0x328>
 8001e64:	1ac4      	subs	r4, r0, r3
 8001e66:	42a0      	cmp	r0, r4
 8001e68:	4180      	sbcs	r0, r0
 8001e6a:	464b      	mov	r3, r9
 8001e6c:	4240      	negs	r0, r0
 8001e6e:	1aff      	subs	r7, r7, r3
 8001e70:	1a3b      	subs	r3, r7, r0
 8001e72:	469a      	mov	sl, r3
 8001e74:	465d      	mov	r5, fp
 8001e76:	e597      	b.n	80019a8 <__aeabi_dsub+0xc4>
 8001e78:	1a1c      	subs	r4, r3, r0
 8001e7a:	464a      	mov	r2, r9
 8001e7c:	42a3      	cmp	r3, r4
 8001e7e:	419b      	sbcs	r3, r3
 8001e80:	1bd7      	subs	r7, r2, r7
 8001e82:	425b      	negs	r3, r3
 8001e84:	1afb      	subs	r3, r7, r3
 8001e86:	469a      	mov	sl, r3
 8001e88:	2601      	movs	r6, #1
 8001e8a:	e585      	b.n	8001998 <__aeabi_dsub+0xb4>
 8001e8c:	08c0      	lsrs	r0, r0, #3
 8001e8e:	077b      	lsls	r3, r7, #29
 8001e90:	465d      	mov	r5, fp
 8001e92:	4303      	orrs	r3, r0
 8001e94:	08fa      	lsrs	r2, r7, #3
 8001e96:	e6e7      	b.n	8001c68 <__aeabi_dsub+0x384>
 8001e98:	464a      	mov	r2, r9
 8001e9a:	08db      	lsrs	r3, r3, #3
 8001e9c:	0752      	lsls	r2, r2, #29
 8001e9e:	4313      	orrs	r3, r2
 8001ea0:	464a      	mov	r2, r9
 8001ea2:	08d2      	lsrs	r2, r2, #3
 8001ea4:	e6b5      	b.n	8001c12 <__aeabi_dsub+0x32e>
 8001ea6:	08c0      	lsrs	r0, r0, #3
 8001ea8:	077b      	lsls	r3, r7, #29
 8001eaa:	4303      	orrs	r3, r0
 8001eac:	08fa      	lsrs	r2, r7, #3
 8001eae:	e6db      	b.n	8001c68 <__aeabi_dsub+0x384>
 8001eb0:	4649      	mov	r1, r9
 8001eb2:	4319      	orrs	r1, r3
 8001eb4:	000b      	movs	r3, r1
 8001eb6:	1e59      	subs	r1, r3, #1
 8001eb8:	418b      	sbcs	r3, r1
 8001eba:	001c      	movs	r4, r3
 8001ebc:	e653      	b.n	8001b66 <__aeabi_dsub+0x282>
 8001ebe:	464d      	mov	r5, r9
 8001ec0:	3c20      	subs	r4, #32
 8001ec2:	40e5      	lsrs	r5, r4
 8001ec4:	2920      	cmp	r1, #32
 8001ec6:	d005      	beq.n	8001ed4 <__aeabi_dsub+0x5f0>
 8001ec8:	2440      	movs	r4, #64	; 0x40
 8001eca:	1a64      	subs	r4, r4, r1
 8001ecc:	4649      	mov	r1, r9
 8001ece:	40a1      	lsls	r1, r4
 8001ed0:	430b      	orrs	r3, r1
 8001ed2:	4698      	mov	r8, r3
 8001ed4:	4643      	mov	r3, r8
 8001ed6:	1e5c      	subs	r4, r3, #1
 8001ed8:	41a3      	sbcs	r3, r4
 8001eda:	432b      	orrs	r3, r5
 8001edc:	e776      	b.n	8001dcc <__aeabi_dsub+0x4e8>
 8001ede:	2a00      	cmp	r2, #0
 8001ee0:	d0e1      	beq.n	8001ea6 <__aeabi_dsub+0x5c2>
 8001ee2:	003a      	movs	r2, r7
 8001ee4:	08db      	lsrs	r3, r3, #3
 8001ee6:	4302      	orrs	r2, r0
 8001ee8:	d100      	bne.n	8001eec <__aeabi_dsub+0x608>
 8001eea:	e6b8      	b.n	8001c5e <__aeabi_dsub+0x37a>
 8001eec:	464a      	mov	r2, r9
 8001eee:	0752      	lsls	r2, r2, #29
 8001ef0:	2480      	movs	r4, #128	; 0x80
 8001ef2:	4313      	orrs	r3, r2
 8001ef4:	464a      	mov	r2, r9
 8001ef6:	0324      	lsls	r4, r4, #12
 8001ef8:	08d2      	lsrs	r2, r2, #3
 8001efa:	4222      	tst	r2, r4
 8001efc:	d007      	beq.n	8001f0e <__aeabi_dsub+0x62a>
 8001efe:	08fe      	lsrs	r6, r7, #3
 8001f00:	4226      	tst	r6, r4
 8001f02:	d104      	bne.n	8001f0e <__aeabi_dsub+0x62a>
 8001f04:	465d      	mov	r5, fp
 8001f06:	0032      	movs	r2, r6
 8001f08:	08c3      	lsrs	r3, r0, #3
 8001f0a:	077f      	lsls	r7, r7, #29
 8001f0c:	433b      	orrs	r3, r7
 8001f0e:	0f59      	lsrs	r1, r3, #29
 8001f10:	00db      	lsls	r3, r3, #3
 8001f12:	0749      	lsls	r1, r1, #29
 8001f14:	08db      	lsrs	r3, r3, #3
 8001f16:	430b      	orrs	r3, r1
 8001f18:	e6a6      	b.n	8001c68 <__aeabi_dsub+0x384>
 8001f1a:	1ac4      	subs	r4, r0, r3
 8001f1c:	42a0      	cmp	r0, r4
 8001f1e:	4180      	sbcs	r0, r0
 8001f20:	464b      	mov	r3, r9
 8001f22:	4240      	negs	r0, r0
 8001f24:	1aff      	subs	r7, r7, r3
 8001f26:	1a3b      	subs	r3, r7, r0
 8001f28:	469a      	mov	sl, r3
 8001f2a:	465d      	mov	r5, fp
 8001f2c:	2601      	movs	r6, #1
 8001f2e:	e533      	b.n	8001998 <__aeabi_dsub+0xb4>
 8001f30:	003b      	movs	r3, r7
 8001f32:	4303      	orrs	r3, r0
 8001f34:	d100      	bne.n	8001f38 <__aeabi_dsub+0x654>
 8001f36:	e715      	b.n	8001d64 <__aeabi_dsub+0x480>
 8001f38:	08c0      	lsrs	r0, r0, #3
 8001f3a:	077b      	lsls	r3, r7, #29
 8001f3c:	465d      	mov	r5, fp
 8001f3e:	4303      	orrs	r3, r0
 8001f40:	08fa      	lsrs	r2, r7, #3
 8001f42:	e666      	b.n	8001c12 <__aeabi_dsub+0x32e>
 8001f44:	08c0      	lsrs	r0, r0, #3
 8001f46:	077b      	lsls	r3, r7, #29
 8001f48:	4303      	orrs	r3, r0
 8001f4a:	08fa      	lsrs	r2, r7, #3
 8001f4c:	e65e      	b.n	8001c0c <__aeabi_dsub+0x328>
 8001f4e:	003a      	movs	r2, r7
 8001f50:	08db      	lsrs	r3, r3, #3
 8001f52:	4302      	orrs	r2, r0
 8001f54:	d100      	bne.n	8001f58 <__aeabi_dsub+0x674>
 8001f56:	e682      	b.n	8001c5e <__aeabi_dsub+0x37a>
 8001f58:	464a      	mov	r2, r9
 8001f5a:	0752      	lsls	r2, r2, #29
 8001f5c:	2480      	movs	r4, #128	; 0x80
 8001f5e:	4313      	orrs	r3, r2
 8001f60:	464a      	mov	r2, r9
 8001f62:	0324      	lsls	r4, r4, #12
 8001f64:	08d2      	lsrs	r2, r2, #3
 8001f66:	4222      	tst	r2, r4
 8001f68:	d007      	beq.n	8001f7a <__aeabi_dsub+0x696>
 8001f6a:	08fe      	lsrs	r6, r7, #3
 8001f6c:	4226      	tst	r6, r4
 8001f6e:	d104      	bne.n	8001f7a <__aeabi_dsub+0x696>
 8001f70:	465d      	mov	r5, fp
 8001f72:	0032      	movs	r2, r6
 8001f74:	08c3      	lsrs	r3, r0, #3
 8001f76:	077f      	lsls	r7, r7, #29
 8001f78:	433b      	orrs	r3, r7
 8001f7a:	0f59      	lsrs	r1, r3, #29
 8001f7c:	00db      	lsls	r3, r3, #3
 8001f7e:	08db      	lsrs	r3, r3, #3
 8001f80:	0749      	lsls	r1, r1, #29
 8001f82:	430b      	orrs	r3, r1
 8001f84:	e670      	b.n	8001c68 <__aeabi_dsub+0x384>
 8001f86:	08c0      	lsrs	r0, r0, #3
 8001f88:	077b      	lsls	r3, r7, #29
 8001f8a:	4303      	orrs	r3, r0
 8001f8c:	08fa      	lsrs	r2, r7, #3
 8001f8e:	e640      	b.n	8001c12 <__aeabi_dsub+0x32e>
 8001f90:	464c      	mov	r4, r9
 8001f92:	3920      	subs	r1, #32
 8001f94:	40cc      	lsrs	r4, r1
 8001f96:	4661      	mov	r1, ip
 8001f98:	2920      	cmp	r1, #32
 8001f9a:	d006      	beq.n	8001faa <__aeabi_dsub+0x6c6>
 8001f9c:	4666      	mov	r6, ip
 8001f9e:	2140      	movs	r1, #64	; 0x40
 8001fa0:	1b89      	subs	r1, r1, r6
 8001fa2:	464e      	mov	r6, r9
 8001fa4:	408e      	lsls	r6, r1
 8001fa6:	4333      	orrs	r3, r6
 8001fa8:	4698      	mov	r8, r3
 8001faa:	4643      	mov	r3, r8
 8001fac:	1e59      	subs	r1, r3, #1
 8001fae:	418b      	sbcs	r3, r1
 8001fb0:	431c      	orrs	r4, r3
 8001fb2:	e5d8      	b.n	8001b66 <__aeabi_dsub+0x282>
 8001fb4:	181c      	adds	r4, r3, r0
 8001fb6:	4284      	cmp	r4, r0
 8001fb8:	4180      	sbcs	r0, r0
 8001fba:	444f      	add	r7, r9
 8001fbc:	46ba      	mov	sl, r7
 8001fbe:	4240      	negs	r0, r0
 8001fc0:	4482      	add	sl, r0
 8001fc2:	e6d9      	b.n	8001d78 <__aeabi_dsub+0x494>
 8001fc4:	4653      	mov	r3, sl
 8001fc6:	4323      	orrs	r3, r4
 8001fc8:	d100      	bne.n	8001fcc <__aeabi_dsub+0x6e8>
 8001fca:	e6cb      	b.n	8001d64 <__aeabi_dsub+0x480>
 8001fcc:	e614      	b.n	8001bf8 <__aeabi_dsub+0x314>
 8001fce:	46c0      	nop			; (mov r8, r8)
 8001fd0:	000007ff 	.word	0x000007ff
 8001fd4:	ff7fffff 	.word	0xff7fffff
 8001fd8:	000007fe 	.word	0x000007fe
 8001fdc:	2300      	movs	r3, #0
 8001fde:	4a01      	ldr	r2, [pc, #4]	; (8001fe4 <__aeabi_dsub+0x700>)
 8001fe0:	001c      	movs	r4, r3
 8001fe2:	e529      	b.n	8001a38 <__aeabi_dsub+0x154>
 8001fe4:	000007ff 	.word	0x000007ff

08001fe8 <__aeabi_dcmpun>:
 8001fe8:	b570      	push	{r4, r5, r6, lr}
 8001fea:	0005      	movs	r5, r0
 8001fec:	480c      	ldr	r0, [pc, #48]	; (8002020 <__aeabi_dcmpun+0x38>)
 8001fee:	031c      	lsls	r4, r3, #12
 8001ff0:	0016      	movs	r6, r2
 8001ff2:	005b      	lsls	r3, r3, #1
 8001ff4:	030a      	lsls	r2, r1, #12
 8001ff6:	0049      	lsls	r1, r1, #1
 8001ff8:	0b12      	lsrs	r2, r2, #12
 8001ffa:	0d49      	lsrs	r1, r1, #21
 8001ffc:	0b24      	lsrs	r4, r4, #12
 8001ffe:	0d5b      	lsrs	r3, r3, #21
 8002000:	4281      	cmp	r1, r0
 8002002:	d008      	beq.n	8002016 <__aeabi_dcmpun+0x2e>
 8002004:	4a06      	ldr	r2, [pc, #24]	; (8002020 <__aeabi_dcmpun+0x38>)
 8002006:	2000      	movs	r0, #0
 8002008:	4293      	cmp	r3, r2
 800200a:	d103      	bne.n	8002014 <__aeabi_dcmpun+0x2c>
 800200c:	0020      	movs	r0, r4
 800200e:	4330      	orrs	r0, r6
 8002010:	1e43      	subs	r3, r0, #1
 8002012:	4198      	sbcs	r0, r3
 8002014:	bd70      	pop	{r4, r5, r6, pc}
 8002016:	2001      	movs	r0, #1
 8002018:	432a      	orrs	r2, r5
 800201a:	d1fb      	bne.n	8002014 <__aeabi_dcmpun+0x2c>
 800201c:	e7f2      	b.n	8002004 <__aeabi_dcmpun+0x1c>
 800201e:	46c0      	nop			; (mov r8, r8)
 8002020:	000007ff 	.word	0x000007ff

08002024 <__aeabi_d2iz>:
 8002024:	000a      	movs	r2, r1
 8002026:	b530      	push	{r4, r5, lr}
 8002028:	4c13      	ldr	r4, [pc, #76]	; (8002078 <__aeabi_d2iz+0x54>)
 800202a:	0053      	lsls	r3, r2, #1
 800202c:	0309      	lsls	r1, r1, #12
 800202e:	0005      	movs	r5, r0
 8002030:	0b09      	lsrs	r1, r1, #12
 8002032:	2000      	movs	r0, #0
 8002034:	0d5b      	lsrs	r3, r3, #21
 8002036:	0fd2      	lsrs	r2, r2, #31
 8002038:	42a3      	cmp	r3, r4
 800203a:	dd04      	ble.n	8002046 <__aeabi_d2iz+0x22>
 800203c:	480f      	ldr	r0, [pc, #60]	; (800207c <__aeabi_d2iz+0x58>)
 800203e:	4283      	cmp	r3, r0
 8002040:	dd02      	ble.n	8002048 <__aeabi_d2iz+0x24>
 8002042:	4b0f      	ldr	r3, [pc, #60]	; (8002080 <__aeabi_d2iz+0x5c>)
 8002044:	18d0      	adds	r0, r2, r3
 8002046:	bd30      	pop	{r4, r5, pc}
 8002048:	2080      	movs	r0, #128	; 0x80
 800204a:	0340      	lsls	r0, r0, #13
 800204c:	4301      	orrs	r1, r0
 800204e:	480d      	ldr	r0, [pc, #52]	; (8002084 <__aeabi_d2iz+0x60>)
 8002050:	1ac0      	subs	r0, r0, r3
 8002052:	281f      	cmp	r0, #31
 8002054:	dd08      	ble.n	8002068 <__aeabi_d2iz+0x44>
 8002056:	480c      	ldr	r0, [pc, #48]	; (8002088 <__aeabi_d2iz+0x64>)
 8002058:	1ac3      	subs	r3, r0, r3
 800205a:	40d9      	lsrs	r1, r3
 800205c:	000b      	movs	r3, r1
 800205e:	4258      	negs	r0, r3
 8002060:	2a00      	cmp	r2, #0
 8002062:	d1f0      	bne.n	8002046 <__aeabi_d2iz+0x22>
 8002064:	0018      	movs	r0, r3
 8002066:	e7ee      	b.n	8002046 <__aeabi_d2iz+0x22>
 8002068:	4c08      	ldr	r4, [pc, #32]	; (800208c <__aeabi_d2iz+0x68>)
 800206a:	40c5      	lsrs	r5, r0
 800206c:	46a4      	mov	ip, r4
 800206e:	4463      	add	r3, ip
 8002070:	4099      	lsls	r1, r3
 8002072:	000b      	movs	r3, r1
 8002074:	432b      	orrs	r3, r5
 8002076:	e7f2      	b.n	800205e <__aeabi_d2iz+0x3a>
 8002078:	000003fe 	.word	0x000003fe
 800207c:	0000041d 	.word	0x0000041d
 8002080:	7fffffff 	.word	0x7fffffff
 8002084:	00000433 	.word	0x00000433
 8002088:	00000413 	.word	0x00000413
 800208c:	fffffbed 	.word	0xfffffbed

08002090 <__aeabi_i2d>:
 8002090:	b570      	push	{r4, r5, r6, lr}
 8002092:	2800      	cmp	r0, #0
 8002094:	d016      	beq.n	80020c4 <__aeabi_i2d+0x34>
 8002096:	17c3      	asrs	r3, r0, #31
 8002098:	18c5      	adds	r5, r0, r3
 800209a:	405d      	eors	r5, r3
 800209c:	0fc4      	lsrs	r4, r0, #31
 800209e:	0028      	movs	r0, r5
 80020a0:	f000 f826 	bl	80020f0 <__clzsi2>
 80020a4:	4b11      	ldr	r3, [pc, #68]	; (80020ec <__aeabi_i2d+0x5c>)
 80020a6:	1a1b      	subs	r3, r3, r0
 80020a8:	280a      	cmp	r0, #10
 80020aa:	dc16      	bgt.n	80020da <__aeabi_i2d+0x4a>
 80020ac:	0002      	movs	r2, r0
 80020ae:	002e      	movs	r6, r5
 80020b0:	3215      	adds	r2, #21
 80020b2:	4096      	lsls	r6, r2
 80020b4:	220b      	movs	r2, #11
 80020b6:	1a12      	subs	r2, r2, r0
 80020b8:	40d5      	lsrs	r5, r2
 80020ba:	055b      	lsls	r3, r3, #21
 80020bc:	032d      	lsls	r5, r5, #12
 80020be:	0b2d      	lsrs	r5, r5, #12
 80020c0:	0d5b      	lsrs	r3, r3, #21
 80020c2:	e003      	b.n	80020cc <__aeabi_i2d+0x3c>
 80020c4:	2400      	movs	r4, #0
 80020c6:	2300      	movs	r3, #0
 80020c8:	2500      	movs	r5, #0
 80020ca:	2600      	movs	r6, #0
 80020cc:	051b      	lsls	r3, r3, #20
 80020ce:	432b      	orrs	r3, r5
 80020d0:	07e4      	lsls	r4, r4, #31
 80020d2:	4323      	orrs	r3, r4
 80020d4:	0030      	movs	r0, r6
 80020d6:	0019      	movs	r1, r3
 80020d8:	bd70      	pop	{r4, r5, r6, pc}
 80020da:	380b      	subs	r0, #11
 80020dc:	4085      	lsls	r5, r0
 80020de:	055b      	lsls	r3, r3, #21
 80020e0:	032d      	lsls	r5, r5, #12
 80020e2:	2600      	movs	r6, #0
 80020e4:	0b2d      	lsrs	r5, r5, #12
 80020e6:	0d5b      	lsrs	r3, r3, #21
 80020e8:	e7f0      	b.n	80020cc <__aeabi_i2d+0x3c>
 80020ea:	46c0      	nop			; (mov r8, r8)
 80020ec:	0000041e 	.word	0x0000041e

080020f0 <__clzsi2>:
 80020f0:	211c      	movs	r1, #28
 80020f2:	2301      	movs	r3, #1
 80020f4:	041b      	lsls	r3, r3, #16
 80020f6:	4298      	cmp	r0, r3
 80020f8:	d301      	bcc.n	80020fe <__clzsi2+0xe>
 80020fa:	0c00      	lsrs	r0, r0, #16
 80020fc:	3910      	subs	r1, #16
 80020fe:	0a1b      	lsrs	r3, r3, #8
 8002100:	4298      	cmp	r0, r3
 8002102:	d301      	bcc.n	8002108 <__clzsi2+0x18>
 8002104:	0a00      	lsrs	r0, r0, #8
 8002106:	3908      	subs	r1, #8
 8002108:	091b      	lsrs	r3, r3, #4
 800210a:	4298      	cmp	r0, r3
 800210c:	d301      	bcc.n	8002112 <__clzsi2+0x22>
 800210e:	0900      	lsrs	r0, r0, #4
 8002110:	3904      	subs	r1, #4
 8002112:	a202      	add	r2, pc, #8	; (adr r2, 800211c <__clzsi2+0x2c>)
 8002114:	5c10      	ldrb	r0, [r2, r0]
 8002116:	1840      	adds	r0, r0, r1
 8002118:	4770      	bx	lr
 800211a:	46c0      	nop			; (mov r8, r8)
 800211c:	02020304 	.word	0x02020304
 8002120:	01010101 	.word	0x01010101
	...

0800212c <itoa.part.0>:
 800212c:	b5f7      	push	{r0, r1, r2, r4, r5, r6, r7, lr}
 800212e:	000b      	movs	r3, r1
 8002130:	0005      	movs	r5, r0
 8002132:	000c      	movs	r4, r1
 8002134:	0017      	movs	r7, r2
 8002136:	4a12      	ldr	r2, [pc, #72]	; (8002180 <itoa.part.0+0x54>)
 8002138:	9201      	str	r2, [sp, #4]
 800213a:	0028      	movs	r0, r5
 800213c:	0039      	movs	r1, r7
 800213e:	001e      	movs	r6, r3
 8002140:	f7fe f970 	bl	8000424 <__aeabi_idivmod>
 8002144:	46ac      	mov	ip, r5
 8002146:	0005      	movs	r5, r0
 8002148:	9801      	ldr	r0, [sp, #4]
 800214a:	1c72      	adds	r2, r6, #1
 800214c:	1841      	adds	r1, r0, r1
 800214e:	3104      	adds	r1, #4
 8002150:	7fc9      	ldrb	r1, [r1, #31]
 8002152:	0013      	movs	r3, r2
 8002154:	7031      	strb	r1, [r6, #0]
 8002156:	2d00      	cmp	r5, #0
 8002158:	d1ef      	bne.n	800213a <itoa.part.0+0xe>
 800215a:	4663      	mov	r3, ip
 800215c:	2b00      	cmp	r3, #0
 800215e:	da02      	bge.n	8002166 <itoa.part.0+0x3a>
 8002160:	232d      	movs	r3, #45	; 0x2d
 8002162:	7013      	strb	r3, [r2, #0]
 8002164:	1cb2      	adds	r2, r6, #2
 8002166:	2100      	movs	r1, #0
 8002168:	1e53      	subs	r3, r2, #1
 800216a:	7011      	strb	r1, [r2, #0]
 800216c:	42a3      	cmp	r3, r4
 800216e:	d800      	bhi.n	8002172 <itoa.part.0+0x46>
 8002170:	bdf7      	pop	{r0, r1, r2, r4, r5, r6, r7, pc}
 8002172:	781a      	ldrb	r2, [r3, #0]
 8002174:	7821      	ldrb	r1, [r4, #0]
 8002176:	3b01      	subs	r3, #1
 8002178:	7059      	strb	r1, [r3, #1]
 800217a:	7022      	strb	r2, [r4, #0]
 800217c:	3401      	adds	r4, #1
 800217e:	e7f5      	b.n	800216c <itoa.part.0+0x40>
 8002180:	08006800 	.word	0x08006800

08002184 <bcdToDec>:
 8002184:	0902      	lsrs	r2, r0, #4
 8002186:	0003      	movs	r3, r0
 8002188:	200a      	movs	r0, #10
 800218a:	4350      	muls	r0, r2
 800218c:	220f      	movs	r2, #15
 800218e:	4013      	ands	r3, r2
 8002190:	18c0      	adds	r0, r0, r3
 8002192:	4770      	bx	lr

08002194 <Get_Time>:
 8002194:	23fa      	movs	r3, #250	; 0xfa
 8002196:	b5f0      	push	{r4, r5, r6, r7, lr}
 8002198:	009b      	lsls	r3, r3, #2
 800219a:	b087      	sub	sp, #28
 800219c:	9302      	str	r3, [sp, #8]
 800219e:	2307      	movs	r3, #7
 80021a0:	ac04      	add	r4, sp, #16
 80021a2:	9301      	str	r3, [sp, #4]
 80021a4:	0005      	movs	r5, r0
 80021a6:	2200      	movs	r2, #0
 80021a8:	0008      	movs	r0, r1
 80021aa:	9400      	str	r4, [sp, #0]
 80021ac:	21d0      	movs	r1, #208	; 0xd0
 80021ae:	3b06      	subs	r3, #6
 80021b0:	f001 f9ee 	bl	8003590 <HAL_I2C_Mem_Read>
 80021b4:	0006      	movs	r6, r0
 80021b6:	20ff      	movs	r0, #255	; 0xff
 80021b8:	2e00      	cmp	r6, #0
 80021ba:	d11e      	bne.n	80021fa <Get_Time+0x66>
 80021bc:	0027      	movs	r7, r4
 80021be:	2e05      	cmp	r6, #5
 80021c0:	d11d      	bne.n	80021fe <Get_Time+0x6a>
 80021c2:	231f      	movs	r3, #31
 80021c4:	7960      	ldrb	r0, [r4, #5]
 80021c6:	4018      	ands	r0, r3
 80021c8:	f7ff ffdc 	bl	8002184 <bcdToDec>
 80021cc:	7160      	strb	r0, [r4, #5]
 80021ce:	3601      	adds	r6, #1
 80021d0:	b2f6      	uxtb	r6, r6
 80021d2:	3701      	adds	r7, #1
 80021d4:	2e07      	cmp	r6, #7
 80021d6:	d1f2      	bne.n	80021be <Get_Time+0x2a>
 80021d8:	78a2      	ldrb	r2, [r4, #2]
 80021da:	2001      	movs	r0, #1
 80021dc:	70aa      	strb	r2, [r5, #2]
 80021de:	7922      	ldrb	r2, [r4, #4]
 80021e0:	79a3      	ldrb	r3, [r4, #6]
 80021e2:	70ea      	strb	r2, [r5, #3]
 80021e4:	7962      	ldrb	r2, [r4, #5]
 80021e6:	8821      	ldrh	r1, [r4, #0]
 80021e8:	712a      	strb	r2, [r5, #4]
 80021ea:	22fa      	movs	r2, #250	; 0xfa
 80021ec:	00d2      	lsls	r2, r2, #3
 80021ee:	189a      	adds	r2, r3, r2
 80021f0:	80ea      	strh	r2, [r5, #6]
 80021f2:	78e2      	ldrb	r2, [r4, #3]
 80021f4:	8029      	strh	r1, [r5, #0]
 80021f6:	722a      	strb	r2, [r5, #8]
 80021f8:	72eb      	strb	r3, [r5, #11]
 80021fa:	b007      	add	sp, #28
 80021fc:	bdf0      	pop	{r4, r5, r6, r7, pc}
 80021fe:	7838      	ldrb	r0, [r7, #0]
 8002200:	f7ff ffc0 	bl	8002184 <bcdToDec>
 8002204:	7038      	strb	r0, [r7, #0]
 8002206:	e7e2      	b.n	80021ce <Get_Time+0x3a>

08002208 <is_leap_year>:
 8002208:	b510      	push	{r4, lr}
 800220a:	0004      	movs	r4, r0
 800220c:	2000      	movs	r0, #0
 800220e:	07a3      	lsls	r3, r4, #30
 8002210:	d10d      	bne.n	800222e <is_leap_year+0x26>
 8002212:	2164      	movs	r1, #100	; 0x64
 8002214:	0020      	movs	r0, r4
 8002216:	f7fe f905 	bl	8000424 <__aeabi_idivmod>
 800221a:	2001      	movs	r0, #1
 800221c:	2900      	cmp	r1, #0
 800221e:	d106      	bne.n	800222e <is_leap_year+0x26>
 8002220:	3191      	adds	r1, #145	; 0x91
 8002222:	0020      	movs	r0, r4
 8002224:	31ff      	adds	r1, #255	; 0xff
 8002226:	f7fe f8fd 	bl	8000424 <__aeabi_idivmod>
 800222a:	4248      	negs	r0, r1
 800222c:	4148      	adcs	r0, r1
 800222e:	bd10      	pop	{r4, pc}

08002230 <sun_azimut>:
 8002230:	b5f0      	push	{r4, r5, r6, r7, lr}
 8002232:	b08b      	sub	sp, #44	; 0x2c
 8002234:	0005      	movs	r5, r0
 8002236:	9810      	ldr	r0, [sp, #64]	; 0x40
 8002238:	0014      	movs	r4, r2
 800223a:	9302      	str	r3, [sp, #8]
 800223c:	9100      	str	r1, [sp, #0]
 800223e:	f7ff ff27 	bl	8002090 <__aeabi_i2d>
 8002242:	2200      	movs	r2, #0
 8002244:	4b14      	ldr	r3, [pc, #80]	; (8002298 <sun_azimut+0x68>)
 8002246:	f7fe fc91 	bl	8000b6c <__aeabi_ddiv>
 800224a:	0006      	movs	r6, r0
 800224c:	9802      	ldr	r0, [sp, #8]
 800224e:	000f      	movs	r7, r1
 8002250:	f7ff ff1e 	bl	8002090 <__aeabi_i2d>
 8002254:	000b      	movs	r3, r1
 8002256:	0002      	movs	r2, r0
 8002258:	0039      	movs	r1, r7
 800225a:	0030      	movs	r0, r6
 800225c:	f7fe f926 	bl	80004ac <__aeabi_dadd>
 8002260:	0006      	movs	r6, r0
 8002262:	0028      	movs	r0, r5
 8002264:	000f      	movs	r7, r1
 8002266:	f7ff ffcf 	bl	8002208 <is_leap_year>
 800226a:	1e43      	subs	r3, r0, #1
 800226c:	4198      	sbcs	r0, r3
 800226e:	0003      	movs	r3, r0
 8002270:	9800      	ldr	r0, [sp, #0]
 8002272:	331c      	adds	r3, #28
 8002274:	3802      	subs	r0, #2
 8002276:	280a      	cmp	r0, #10
 8002278:	d811      	bhi.n	800229e <sun_azimut+0x6e>
 800227a:	341f      	adds	r4, #31
 800227c:	f7fd ff58 	bl	8000130 <__gnu_thumb1_case_uhi>
 8002280:	000e000f 	.word	0x000e000f
 8002284:	026b0268 	.word	0x026b0268
 8002288:	0271026e 	.word	0x0271026e
 800228c:	02770274 	.word	0x02770274
 8002290:	027d027a 	.word	0x027d027a
 8002294:	0280      	.short	0x0280
 8002296:	46c0      	nop			; (mov r8, r8)
 8002298:	404e0000 	.word	0x404e0000
 800229c:	18e4      	adds	r4, r4, r3
 800229e:	2200      	movs	r2, #0
 80022a0:	0030      	movs	r0, r6
 80022a2:	0039      	movs	r1, r7
 80022a4:	4bed      	ldr	r3, [pc, #948]	; (800265c <sun_azimut+0x42c>)
 80022a6:	f7ff fb1d 	bl	80018e4 <__aeabi_dsub>
 80022aa:	9006      	str	r0, [sp, #24]
 80022ac:	9107      	str	r1, [sp, #28]
 80022ae:	206e      	movs	r0, #110	; 0x6e
 80022b0:	2103      	movs	r1, #3
 80022b2:	4beb      	ldr	r3, [pc, #940]	; (8002660 <sun_azimut+0x430>)
 80022b4:	30ff      	adds	r0, #255	; 0xff
 80022b6:	18ea      	adds	r2, r5, r3
 80022b8:	4350      	muls	r0, r2
 80022ba:	17d3      	asrs	r3, r2, #31
 80022bc:	400b      	ands	r3, r1
 80022be:	189b      	adds	r3, r3, r2
 80022c0:	109b      	asrs	r3, r3, #2
 80022c2:	18c0      	adds	r0, r0, r3
 80022c4:	1900      	adds	r0, r0, r4
 80022c6:	f7ff fee3 	bl	8002090 <__aeabi_i2d>
 80022ca:	2200      	movs	r2, #0
 80022cc:	4be5      	ldr	r3, [pc, #916]	; (8002664 <sun_azimut+0x434>)
 80022ce:	f7fe f8ed 	bl	80004ac <__aeabi_dadd>
 80022d2:	2200      	movs	r2, #0
 80022d4:	0006      	movs	r6, r0
 80022d6:	000f      	movs	r7, r1
 80022d8:	9806      	ldr	r0, [sp, #24]
 80022da:	9907      	ldr	r1, [sp, #28]
 80022dc:	4be2      	ldr	r3, [pc, #904]	; (8002668 <sun_azimut+0x438>)
 80022de:	f7fe fc45 	bl	8000b6c <__aeabi_ddiv>
 80022e2:	0002      	movs	r2, r0
 80022e4:	000b      	movs	r3, r1
 80022e6:	0030      	movs	r0, r6
 80022e8:	0039      	movs	r1, r7
 80022ea:	f7fe f8df 	bl	80004ac <__aeabi_dadd>
 80022ee:	0006      	movs	r6, r0
 80022f0:	000f      	movs	r7, r1
 80022f2:	0028      	movs	r0, r5
 80022f4:	2164      	movs	r1, #100	; 0x64
 80022f6:	f7fe f895 	bl	8000424 <__aeabi_idivmod>
 80022fa:	2900      	cmp	r1, #0
 80022fc:	d10e      	bne.n	800231c <sun_azimut+0xec>
 80022fe:	3191      	adds	r1, #145	; 0x91
 8002300:	0028      	movs	r0, r5
 8002302:	31ff      	adds	r1, #255	; 0xff
 8002304:	f7fe f88e 	bl	8000424 <__aeabi_idivmod>
 8002308:	2900      	cmp	r1, #0
 800230a:	d007      	beq.n	800231c <sun_azimut+0xec>
 800230c:	0030      	movs	r0, r6
 800230e:	0039      	movs	r1, r7
 8002310:	2200      	movs	r2, #0
 8002312:	4bd2      	ldr	r3, [pc, #840]	; (800265c <sun_azimut+0x42c>)
 8002314:	f7ff fae6 	bl	80018e4 <__aeabi_dsub>
 8002318:	0006      	movs	r6, r0
 800231a:	000f      	movs	r7, r1
 800231c:	2200      	movs	r2, #0
 800231e:	0030      	movs	r0, r6
 8002320:	0039      	movs	r1, r7
 8002322:	4bd2      	ldr	r3, [pc, #840]	; (800266c <sun_azimut+0x43c>)
 8002324:	f7ff fade 	bl	80018e4 <__aeabi_dsub>
 8002328:	4ad1      	ldr	r2, [pc, #836]	; (8002670 <sun_azimut+0x440>)
 800232a:	4bd2      	ldr	r3, [pc, #840]	; (8002674 <sun_azimut+0x444>)
 800232c:	9002      	str	r0, [sp, #8]
 800232e:	9103      	str	r1, [sp, #12]
 8002330:	f7ff f816 	bl	8001360 <__aeabi_dmul>
 8002334:	4ad0      	ldr	r2, [pc, #832]	; (8002678 <sun_azimut+0x448>)
 8002336:	4bd1      	ldr	r3, [pc, #836]	; (800267c <sun_azimut+0x44c>)
 8002338:	f7fe f8b8 	bl	80004ac <__aeabi_dadd>
 800233c:	2200      	movs	r2, #0
 800233e:	4bd0      	ldr	r3, [pc, #832]	; (8002680 <sun_azimut+0x450>)
 8002340:	f002 fc30 	bl	8004ba4 <fmod>
 8002344:	2200      	movs	r2, #0
 8002346:	2300      	movs	r3, #0
 8002348:	0006      	movs	r6, r0
 800234a:	000f      	movs	r7, r1
 800234c:	f7fe f886 	bl	800045c <__aeabi_dcmplt>
 8002350:	2800      	cmp	r0, #0
 8002352:	d007      	beq.n	8002364 <sun_azimut+0x134>
 8002354:	0030      	movs	r0, r6
 8002356:	0039      	movs	r1, r7
 8002358:	2200      	movs	r2, #0
 800235a:	4bc9      	ldr	r3, [pc, #804]	; (8002680 <sun_azimut+0x450>)
 800235c:	f7fe f8a6 	bl	80004ac <__aeabi_dadd>
 8002360:	0006      	movs	r6, r0
 8002362:	000f      	movs	r7, r1
 8002364:	9802      	ldr	r0, [sp, #8]
 8002366:	9903      	ldr	r1, [sp, #12]
 8002368:	4ac6      	ldr	r2, [pc, #792]	; (8002684 <sun_azimut+0x454>)
 800236a:	4bc7      	ldr	r3, [pc, #796]	; (8002688 <sun_azimut+0x458>)
 800236c:	f7fe fff8 	bl	8001360 <__aeabi_dmul>
 8002370:	4ac6      	ldr	r2, [pc, #792]	; (800268c <sun_azimut+0x45c>)
 8002372:	4bc7      	ldr	r3, [pc, #796]	; (8002690 <sun_azimut+0x460>)
 8002374:	f7fe f89a 	bl	80004ac <__aeabi_dadd>
 8002378:	2200      	movs	r2, #0
 800237a:	4bc1      	ldr	r3, [pc, #772]	; (8002680 <sun_azimut+0x450>)
 800237c:	f002 fc12 	bl	8004ba4 <fmod>
 8002380:	2200      	movs	r2, #0
 8002382:	2300      	movs	r3, #0
 8002384:	0004      	movs	r4, r0
 8002386:	000d      	movs	r5, r1
 8002388:	f7fe f868 	bl	800045c <__aeabi_dcmplt>
 800238c:	2800      	cmp	r0, #0
 800238e:	d007      	beq.n	80023a0 <sun_azimut+0x170>
 8002390:	0020      	movs	r0, r4
 8002392:	0029      	movs	r1, r5
 8002394:	2200      	movs	r2, #0
 8002396:	4bba      	ldr	r3, [pc, #744]	; (8002680 <sun_azimut+0x450>)
 8002398:	f7fe f888 	bl	80004ac <__aeabi_dadd>
 800239c:	0004      	movs	r4, r0
 800239e:	000d      	movs	r5, r1
 80023a0:	4abc      	ldr	r2, [pc, #752]	; (8002694 <sun_azimut+0x464>)
 80023a2:	4bbd      	ldr	r3, [pc, #756]	; (8002698 <sun_azimut+0x468>)
 80023a4:	0020      	movs	r0, r4
 80023a6:	0029      	movs	r1, r5
 80023a8:	f7fe ffda 	bl	8001360 <__aeabi_dmul>
 80023ac:	0004      	movs	r4, r0
 80023ae:	000d      	movs	r5, r1
 80023b0:	f002 fde6 	bl	8004f80 <sin>
 80023b4:	0022      	movs	r2, r4
 80023b6:	002b      	movs	r3, r5
 80023b8:	9000      	str	r0, [sp, #0]
 80023ba:	9101      	str	r1, [sp, #4]
 80023bc:	0020      	movs	r0, r4
 80023be:	0029      	movs	r1, r5
 80023c0:	f7fe f874 	bl	80004ac <__aeabi_dadd>
 80023c4:	f002 fddc 	bl	8004f80 <sin>
 80023c8:	4ab4      	ldr	r2, [pc, #720]	; (800269c <sun_azimut+0x46c>)
 80023ca:	9004      	str	r0, [sp, #16]
 80023cc:	9105      	str	r1, [sp, #20]
 80023ce:	9800      	ldr	r0, [sp, #0]
 80023d0:	9901      	ldr	r1, [sp, #4]
 80023d2:	4bb3      	ldr	r3, [pc, #716]	; (80026a0 <sun_azimut+0x470>)
 80023d4:	f7fe ffc4 	bl	8001360 <__aeabi_dmul>
 80023d8:	0032      	movs	r2, r6
 80023da:	003b      	movs	r3, r7
 80023dc:	f7fe f866 	bl	80004ac <__aeabi_dadd>
 80023e0:	4ab0      	ldr	r2, [pc, #704]	; (80026a4 <sun_azimut+0x474>)
 80023e2:	0004      	movs	r4, r0
 80023e4:	000d      	movs	r5, r1
 80023e6:	9804      	ldr	r0, [sp, #16]
 80023e8:	9905      	ldr	r1, [sp, #20]
 80023ea:	4baf      	ldr	r3, [pc, #700]	; (80026a8 <sun_azimut+0x478>)
 80023ec:	f7fe ffb8 	bl	8001360 <__aeabi_dmul>
 80023f0:	0002      	movs	r2, r0
 80023f2:	000b      	movs	r3, r1
 80023f4:	0020      	movs	r0, r4
 80023f6:	0029      	movs	r1, r5
 80023f8:	f7fe f858 	bl	80004ac <__aeabi_dadd>
 80023fc:	2200      	movs	r2, #0
 80023fe:	4ba0      	ldr	r3, [pc, #640]	; (8002680 <sun_azimut+0x450>)
 8002400:	f002 fbd0 	bl	8004ba4 <fmod>
 8002404:	2200      	movs	r2, #0
 8002406:	2300      	movs	r3, #0
 8002408:	0004      	movs	r4, r0
 800240a:	000d      	movs	r5, r1
 800240c:	f7fe f826 	bl	800045c <__aeabi_dcmplt>
 8002410:	2800      	cmp	r0, #0
 8002412:	d007      	beq.n	8002424 <sun_azimut+0x1f4>
 8002414:	0020      	movs	r0, r4
 8002416:	0029      	movs	r1, r5
 8002418:	2200      	movs	r2, #0
 800241a:	4b99      	ldr	r3, [pc, #612]	; (8002680 <sun_azimut+0x450>)
 800241c:	f7fe f846 	bl	80004ac <__aeabi_dadd>
 8002420:	0004      	movs	r4, r0
 8002422:	000d      	movs	r5, r1
 8002424:	9802      	ldr	r0, [sp, #8]
 8002426:	9903      	ldr	r1, [sp, #12]
 8002428:	4aa0      	ldr	r2, [pc, #640]	; (80026ac <sun_azimut+0x47c>)
 800242a:	4ba1      	ldr	r3, [pc, #644]	; (80026b0 <sun_azimut+0x480>)
 800242c:	f7fe ff98 	bl	8001360 <__aeabi_dmul>
 8002430:	0002      	movs	r2, r0
 8002432:	000b      	movs	r3, r1
 8002434:	489f      	ldr	r0, [pc, #636]	; (80026b4 <sun_azimut+0x484>)
 8002436:	49a0      	ldr	r1, [pc, #640]	; (80026b8 <sun_azimut+0x488>)
 8002438:	f7ff fa54 	bl	80018e4 <__aeabi_dsub>
 800243c:	4a95      	ldr	r2, [pc, #596]	; (8002694 <sun_azimut+0x464>)
 800243e:	0006      	movs	r6, r0
 8002440:	000f      	movs	r7, r1
 8002442:	0020      	movs	r0, r4
 8002444:	0029      	movs	r1, r5
 8002446:	4b94      	ldr	r3, [pc, #592]	; (8002698 <sun_azimut+0x468>)
 8002448:	f7fe ff8a 	bl	8001360 <__aeabi_dmul>
 800244c:	4a91      	ldr	r2, [pc, #580]	; (8002694 <sun_azimut+0x464>)
 800244e:	0004      	movs	r4, r0
 8002450:	000d      	movs	r5, r1
 8002452:	4b91      	ldr	r3, [pc, #580]	; (8002698 <sun_azimut+0x468>)
 8002454:	0030      	movs	r0, r6
 8002456:	0039      	movs	r1, r7
 8002458:	f7fe ff82 	bl	8001360 <__aeabi_dmul>
 800245c:	9008      	str	r0, [sp, #32]
 800245e:	9109      	str	r1, [sp, #36]	; 0x24
 8002460:	f002 fd4a 	bl	8004ef8 <cos>
 8002464:	0006      	movs	r6, r0
 8002466:	000f      	movs	r7, r1
 8002468:	0020      	movs	r0, r4
 800246a:	0029      	movs	r1, r5
 800246c:	f002 fd88 	bl	8004f80 <sin>
 8002470:	0002      	movs	r2, r0
 8002472:	000b      	movs	r3, r1
 8002474:	9004      	str	r0, [sp, #16]
 8002476:	9105      	str	r1, [sp, #20]
 8002478:	0030      	movs	r0, r6
 800247a:	0039      	movs	r1, r7
 800247c:	f7fe ff70 	bl	8001360 <__aeabi_dmul>
 8002480:	0006      	movs	r6, r0
 8002482:	000f      	movs	r7, r1
 8002484:	0020      	movs	r0, r4
 8002486:	0029      	movs	r1, r5
 8002488:	f002 fd36 	bl	8004ef8 <cos>
 800248c:	0002      	movs	r2, r0
 800248e:	000b      	movs	r3, r1
 8002490:	0004      	movs	r4, r0
 8002492:	000d      	movs	r5, r1
 8002494:	0030      	movs	r0, r6
 8002496:	0039      	movs	r1, r7
 8002498:	f7fe fb68 	bl	8000b6c <__aeabi_ddiv>
 800249c:	f002 fbac 	bl	8004bf8 <atan>
 80024a0:	2200      	movs	r2, #0
 80024a2:	9000      	str	r0, [sp, #0]
 80024a4:	9101      	str	r1, [sp, #4]
 80024a6:	2300      	movs	r3, #0
 80024a8:	0020      	movs	r0, r4
 80024aa:	0029      	movs	r1, r5
 80024ac:	f7fd ffd6 	bl	800045c <__aeabi_dcmplt>
 80024b0:	2800      	cmp	r0, #0
 80024b2:	d100      	bne.n	80024b6 <sun_azimut+0x286>
 80024b4:	e168      	b.n	8002788 <sun_azimut+0x558>
 80024b6:	4a81      	ldr	r2, [pc, #516]	; (80026bc <sun_azimut+0x48c>)
 80024b8:	4b81      	ldr	r3, [pc, #516]	; (80026c0 <sun_azimut+0x490>)
 80024ba:	9800      	ldr	r0, [sp, #0]
 80024bc:	9901      	ldr	r1, [sp, #4]
 80024be:	f7fd fff5 	bl	80004ac <__aeabi_dadd>
 80024c2:	9000      	str	r0, [sp, #0]
 80024c4:	9101      	str	r1, [sp, #4]
 80024c6:	9808      	ldr	r0, [sp, #32]
 80024c8:	9909      	ldr	r1, [sp, #36]	; 0x24
 80024ca:	f002 fd59 	bl	8004f80 <sin>
 80024ce:	0002      	movs	r2, r0
 80024d0:	000b      	movs	r3, r1
 80024d2:	9804      	ldr	r0, [sp, #16]
 80024d4:	9905      	ldr	r1, [sp, #20]
 80024d6:	f7fe ff43 	bl	8001360 <__aeabi_dmul>
 80024da:	f002 fb39 	bl	8004b50 <asin>
 80024de:	4a79      	ldr	r2, [pc, #484]	; (80026c4 <sun_azimut+0x494>)
 80024e0:	4b79      	ldr	r3, [pc, #484]	; (80026c8 <sun_azimut+0x498>)
 80024e2:	0006      	movs	r6, r0
 80024e4:	000f      	movs	r7, r1
 80024e6:	9802      	ldr	r0, [sp, #8]
 80024e8:	9903      	ldr	r1, [sp, #12]
 80024ea:	f7fe ff39 	bl	8001360 <__aeabi_dmul>
 80024ee:	4a77      	ldr	r2, [pc, #476]	; (80026cc <sun_azimut+0x49c>)
 80024f0:	4b77      	ldr	r3, [pc, #476]	; (80026d0 <sun_azimut+0x4a0>)
 80024f2:	f7fd ffdb 	bl	80004ac <__aeabi_dadd>
 80024f6:	9a06      	ldr	r2, [sp, #24]
 80024f8:	9b07      	ldr	r3, [sp, #28]
 80024fa:	f7fd ffd7 	bl	80004ac <__aeabi_dadd>
 80024fe:	2200      	movs	r2, #0
 8002500:	4b59      	ldr	r3, [pc, #356]	; (8002668 <sun_azimut+0x438>)
 8002502:	f002 fb4f 	bl	8004ba4 <fmod>
 8002506:	2200      	movs	r2, #0
 8002508:	2300      	movs	r3, #0
 800250a:	0004      	movs	r4, r0
 800250c:	000d      	movs	r5, r1
 800250e:	f7fd ffa5 	bl	800045c <__aeabi_dcmplt>
 8002512:	2800      	cmp	r0, #0
 8002514:	d007      	beq.n	8002526 <sun_azimut+0x2f6>
 8002516:	0020      	movs	r0, r4
 8002518:	0029      	movs	r1, r5
 800251a:	2200      	movs	r2, #0
 800251c:	4b52      	ldr	r3, [pc, #328]	; (8002668 <sun_azimut+0x438>)
 800251e:	f7fd ffc5 	bl	80004ac <__aeabi_dadd>
 8002522:	0004      	movs	r4, r0
 8002524:	000d      	movs	r5, r1
 8002526:	0020      	movs	r0, r4
 8002528:	0029      	movs	r1, r5
 800252a:	4a6a      	ldr	r2, [pc, #424]	; (80026d4 <sun_azimut+0x4a4>)
 800252c:	4b6a      	ldr	r3, [pc, #424]	; (80026d8 <sun_azimut+0x4a8>)
 800252e:	f7fd ffbd 	bl	80004ac <__aeabi_dadd>
 8002532:	2200      	movs	r2, #0
 8002534:	4b4c      	ldr	r3, [pc, #304]	; (8002668 <sun_azimut+0x438>)
 8002536:	f002 fb35 	bl	8004ba4 <fmod>
 800253a:	2200      	movs	r2, #0
 800253c:	2300      	movs	r3, #0
 800253e:	0004      	movs	r4, r0
 8002540:	000d      	movs	r5, r1
 8002542:	f7fd ff8b 	bl	800045c <__aeabi_dcmplt>
 8002546:	2800      	cmp	r0, #0
 8002548:	d007      	beq.n	800255a <sun_azimut+0x32a>
 800254a:	0020      	movs	r0, r4
 800254c:	0029      	movs	r1, r5
 800254e:	2200      	movs	r2, #0
 8002550:	4b45      	ldr	r3, [pc, #276]	; (8002668 <sun_azimut+0x438>)
 8002552:	f7fd ffab 	bl	80004ac <__aeabi_dadd>
 8002556:	0004      	movs	r4, r0
 8002558:	000d      	movs	r5, r1
 800255a:	2200      	movs	r2, #0
 800255c:	0020      	movs	r0, r4
 800255e:	0029      	movs	r1, r5
 8002560:	4b5e      	ldr	r3, [pc, #376]	; (80026dc <sun_azimut+0x4ac>)
 8002562:	f7fe fefd 	bl	8001360 <__aeabi_dmul>
 8002566:	4a4b      	ldr	r2, [pc, #300]	; (8002694 <sun_azimut+0x464>)
 8002568:	4b4b      	ldr	r3, [pc, #300]	; (8002698 <sun_azimut+0x468>)
 800256a:	f7fe fef9 	bl	8001360 <__aeabi_dmul>
 800256e:	9a00      	ldr	r2, [sp, #0]
 8002570:	9b01      	ldr	r3, [sp, #4]
 8002572:	f7ff f9b7 	bl	80018e4 <__aeabi_dsub>
 8002576:	4a51      	ldr	r2, [pc, #324]	; (80026bc <sun_azimut+0x48c>)
 8002578:	4b59      	ldr	r3, [pc, #356]	; (80026e0 <sun_azimut+0x4b0>)
 800257a:	0004      	movs	r4, r0
 800257c:	000d      	movs	r5, r1
 800257e:	f7fd ff6d 	bl	800045c <__aeabi_dcmplt>
 8002582:	2800      	cmp	r0, #0
 8002584:	d007      	beq.n	8002596 <sun_azimut+0x366>
 8002586:	0020      	movs	r0, r4
 8002588:	0029      	movs	r1, r5
 800258a:	4a4c      	ldr	r2, [pc, #304]	; (80026bc <sun_azimut+0x48c>)
 800258c:	4b55      	ldr	r3, [pc, #340]	; (80026e4 <sun_azimut+0x4b4>)
 800258e:	f7fd ff8d 	bl	80004ac <__aeabi_dadd>
 8002592:	0004      	movs	r4, r0
 8002594:	000d      	movs	r5, r1
 8002596:	0020      	movs	r0, r4
 8002598:	0029      	movs	r1, r5
 800259a:	4a48      	ldr	r2, [pc, #288]	; (80026bc <sun_azimut+0x48c>)
 800259c:	4b48      	ldr	r3, [pc, #288]	; (80026c0 <sun_azimut+0x490>)
 800259e:	f7fd ff71 	bl	8000484 <__aeabi_dcmpgt>
 80025a2:	2800      	cmp	r0, #0
 80025a4:	d007      	beq.n	80025b6 <sun_azimut+0x386>
 80025a6:	0020      	movs	r0, r4
 80025a8:	0029      	movs	r1, r5
 80025aa:	4a44      	ldr	r2, [pc, #272]	; (80026bc <sun_azimut+0x48c>)
 80025ac:	4b4d      	ldr	r3, [pc, #308]	; (80026e4 <sun_azimut+0x4b4>)
 80025ae:	f7ff f999 	bl	80018e4 <__aeabi_dsub>
 80025b2:	0004      	movs	r4, r0
 80025b4:	000d      	movs	r5, r1
 80025b6:	0030      	movs	r0, r6
 80025b8:	0039      	movs	r1, r7
 80025ba:	f002 fce1 	bl	8004f80 <sin>
 80025be:	9000      	str	r0, [sp, #0]
 80025c0:	9101      	str	r1, [sp, #4]
 80025c2:	0030      	movs	r0, r6
 80025c4:	0039      	movs	r1, r7
 80025c6:	f002 fc97 	bl	8004ef8 <cos>
 80025ca:	9002      	str	r0, [sp, #8]
 80025cc:	9104      	str	r1, [sp, #16]
 80025ce:	0020      	movs	r0, r4
 80025d0:	0029      	movs	r1, r5
 80025d2:	f002 fc91 	bl	8004ef8 <cos>
 80025d6:	0006      	movs	r6, r0
 80025d8:	000f      	movs	r7, r1
 80025da:	4a43      	ldr	r2, [pc, #268]	; (80026e8 <sun_azimut+0x4b8>)
 80025dc:	4b43      	ldr	r3, [pc, #268]	; (80026ec <sun_azimut+0x4bc>)
 80025de:	9802      	ldr	r0, [sp, #8]
 80025e0:	9904      	ldr	r1, [sp, #16]
 80025e2:	f7fe febd 	bl	8001360 <__aeabi_dmul>
 80025e6:	0032      	movs	r2, r6
 80025e8:	003b      	movs	r3, r7
 80025ea:	f7fe feb9 	bl	8001360 <__aeabi_dmul>
 80025ee:	4a40      	ldr	r2, [pc, #256]	; (80026f0 <sun_azimut+0x4c0>)
 80025f0:	0006      	movs	r6, r0
 80025f2:	000f      	movs	r7, r1
 80025f4:	9800      	ldr	r0, [sp, #0]
 80025f6:	9901      	ldr	r1, [sp, #4]
 80025f8:	4b3e      	ldr	r3, [pc, #248]	; (80026f4 <sun_azimut+0x4c4>)
 80025fa:	f7fe feb1 	bl	8001360 <__aeabi_dmul>
 80025fe:	0002      	movs	r2, r0
 8002600:	000b      	movs	r3, r1
 8002602:	0030      	movs	r0, r6
 8002604:	0039      	movs	r1, r7
 8002606:	f7fd ff51 	bl	80004ac <__aeabi_dadd>
 800260a:	f002 faa1 	bl	8004b50 <asin>
 800260e:	0006      	movs	r6, r0
 8002610:	000f      	movs	r7, r1
 8002612:	0020      	movs	r0, r4
 8002614:	0029      	movs	r1, r5
 8002616:	f002 fcb3 	bl	8004f80 <sin>
 800261a:	000d      	movs	r5, r1
 800261c:	0004      	movs	r4, r0
 800261e:	0039      	movs	r1, r7
 8002620:	0030      	movs	r0, r6
 8002622:	f002 fc69 	bl	8004ef8 <cos>
 8002626:	002b      	movs	r3, r5
 8002628:	2580      	movs	r5, #128	; 0x80
 800262a:	062d      	lsls	r5, r5, #24
 800262c:	46ac      	mov	ip, r5
 800262e:	0022      	movs	r2, r4
 8002630:	9c04      	ldr	r4, [sp, #16]
 8002632:	9006      	str	r0, [sp, #24]
 8002634:	9107      	str	r1, [sp, #28]
 8002636:	4464      	add	r4, ip
 8002638:	0021      	movs	r1, r4
 800263a:	9802      	ldr	r0, [sp, #8]
 800263c:	f7fe fe90 	bl	8001360 <__aeabi_dmul>
 8002640:	9a06      	ldr	r2, [sp, #24]
 8002642:	9b07      	ldr	r3, [sp, #28]
 8002644:	f7fe fa92 	bl	8000b6c <__aeabi_ddiv>
 8002648:	f002 fa82 	bl	8004b50 <asin>
 800264c:	0004      	movs	r4, r0
 800264e:	000d      	movs	r5, r1
 8002650:	0030      	movs	r0, r6
 8002652:	0039      	movs	r1, r7
 8002654:	f002 fc94 	bl	8004f80 <sin>
 8002658:	e04e      	b.n	80026f8 <sun_azimut+0x4c8>
 800265a:	46c0      	nop			; (mov r8, r8)
 800265c:	3ff00000 	.word	0x3ff00000
 8002660:	fffff863 	.word	0xfffff863
 8002664:	40e01290 	.word	0x40e01290
 8002668:	40380000 	.word	0x40380000
 800266c:	40e92b20 	.word	0x40e92b20
 8002670:	6a8c65d4 	.word	0x6a8c65d4
 8002674:	3fef8a6c 	.word	0x3fef8a6c
 8002678:	28f5c28f 	.word	0x28f5c28f
 800267c:	4071875c 	.word	0x4071875c
 8002680:	40768000 	.word	0x40768000
 8002684:	a3edb072 	.word	0xa3edb072
 8002688:	3fef8a09 	.word	0x3fef8a09
 800268c:	b020c49c 	.word	0xb020c49c
 8002690:	40765872 	.word	0x40765872
 8002694:	a2529d39 	.word	0xa2529d39
 8002698:	3f91df46 	.word	0x3f91df46
 800269c:	0a3d70a4 	.word	0x0a3d70a4
 80026a0:	3ffea3d7 	.word	0x3ffea3d7
 80026a4:	47ae147b 	.word	0x47ae147b
 80026a8:	3f947ae1 	.word	0x3f947ae1
 80026ac:	9abcaf48 	.word	0x9abcaf48
 80026b0:	3e9ad7f2 	.word	0x3e9ad7f2
 80026b4:	4dd2f1aa 	.word	0x4dd2f1aa
 80026b8:	40377062 	.word	0x40377062
 80026bc:	54442d18 	.word	0x54442d18
 80026c0:	400921fb 	.word	0x400921fb
 80026c4:	e9f7044d 	.word	0xe9f7044d
 80026c8:	3fb0d25b 	.word	0x3fb0d25b
 80026cc:	ac083127 	.word	0xac083127
 80026d0:	401aca1c 	.word	0x401aca1c
 80026d4:	e83744c9 	.word	0xe83744c9
 80026d8:	3ff0a438 	.word	0x3ff0a438
 80026dc:	402e0000 	.word	0x402e0000
 80026e0:	c00921fb 	.word	0xc00921fb
 80026e4:	401921fb 	.word	0x401921fb
 80026e8:	0fac3274 	.word	0x0fac3274
 80026ec:	3fe5caa2 	.word	0x3fe5caa2
 80026f0:	f238ea75 	.word	0xf238ea75
 80026f4:	3fe76ef9 	.word	0x3fe76ef9
 80026f8:	4a2d      	ldr	r2, [pc, #180]	; (80027b0 <sun_azimut+0x580>)
 80026fa:	4b2e      	ldr	r3, [pc, #184]	; (80027b4 <sun_azimut+0x584>)
 80026fc:	f7fe fe30 	bl	8001360 <__aeabi_dmul>
 8002700:	0002      	movs	r2, r0
 8002702:	000b      	movs	r3, r1
 8002704:	9800      	ldr	r0, [sp, #0]
 8002706:	9901      	ldr	r1, [sp, #4]
 8002708:	f7ff f8ec 	bl	80018e4 <__aeabi_dsub>
 800270c:	2200      	movs	r2, #0
 800270e:	2300      	movs	r3, #0
 8002710:	f7fd fec2 	bl	8000498 <__aeabi_dcmpge>
 8002714:	2800      	cmp	r0, #0
 8002716:	d043      	beq.n	80027a0 <sun_azimut+0x570>
 8002718:	0020      	movs	r0, r4
 800271a:	0029      	movs	r1, r5
 800271c:	f002 fc30 	bl	8004f80 <sin>
 8002720:	2200      	movs	r2, #0
 8002722:	2300      	movs	r3, #0
 8002724:	f7fd fe9a 	bl	800045c <__aeabi_dcmplt>
 8002728:	2800      	cmp	r0, #0
 800272a:	d007      	beq.n	800273c <sun_azimut+0x50c>
 800272c:	0020      	movs	r0, r4
 800272e:	0029      	movs	r1, r5
 8002730:	4a21      	ldr	r2, [pc, #132]	; (80027b8 <sun_azimut+0x588>)
 8002732:	4b22      	ldr	r3, [pc, #136]	; (80027bc <sun_azimut+0x58c>)
 8002734:	f7fd feba 	bl	80004ac <__aeabi_dadd>
 8002738:	0004      	movs	r4, r0
 800273a:	000d      	movs	r5, r1
 800273c:	4a20      	ldr	r2, [pc, #128]	; (80027c0 <sun_azimut+0x590>)
 800273e:	4b21      	ldr	r3, [pc, #132]	; (80027c4 <sun_azimut+0x594>)
 8002740:	0020      	movs	r0, r4
 8002742:	0029      	movs	r1, r5
 8002744:	f7fe fa12 	bl	8000b6c <__aeabi_ddiv>
 8002748:	f7ff fc6c 	bl	8002024 <__aeabi_d2iz>
 800274c:	b00b      	add	sp, #44	; 0x2c
 800274e:	bdf0      	pop	{r4, r5, r6, r7, pc}
 8002750:	18e4      	adds	r4, r4, r3
 8002752:	341f      	adds	r4, #31
 8002754:	e5a3      	b.n	800229e <sun_azimut+0x6e>
 8002756:	18e4      	adds	r4, r4, r3
 8002758:	343d      	adds	r4, #61	; 0x3d
 800275a:	e5a0      	b.n	800229e <sun_azimut+0x6e>
 800275c:	18e4      	adds	r4, r4, r3
 800275e:	345c      	adds	r4, #92	; 0x5c
 8002760:	e59d      	b.n	800229e <sun_azimut+0x6e>
 8002762:	18e4      	adds	r4, r4, r3
 8002764:	347a      	adds	r4, #122	; 0x7a
 8002766:	e59a      	b.n	800229e <sun_azimut+0x6e>
 8002768:	18e4      	adds	r4, r4, r3
 800276a:	3499      	adds	r4, #153	; 0x99
 800276c:	e597      	b.n	800229e <sun_azimut+0x6e>
 800276e:	18e4      	adds	r4, r4, r3
 8002770:	34b8      	adds	r4, #184	; 0xb8
 8002772:	e594      	b.n	800229e <sun_azimut+0x6e>
 8002774:	18e4      	adds	r4, r4, r3
 8002776:	34d6      	adds	r4, #214	; 0xd6
 8002778:	e591      	b.n	800229e <sun_azimut+0x6e>
 800277a:	18e4      	adds	r4, r4, r3
 800277c:	34f5      	adds	r4, #245	; 0xf5
 800277e:	e58e      	b.n	800229e <sun_azimut+0x6e>
 8002780:	18e4      	adds	r4, r4, r3
 8002782:	3414      	adds	r4, #20
 8002784:	34ff      	adds	r4, #255	; 0xff
 8002786:	e58a      	b.n	800229e <sun_azimut+0x6e>
 8002788:	2200      	movs	r2, #0
 800278a:	2300      	movs	r3, #0
 800278c:	0030      	movs	r0, r6
 800278e:	0039      	movs	r1, r7
 8002790:	f7fd fe64 	bl	800045c <__aeabi_dcmplt>
 8002794:	2800      	cmp	r0, #0
 8002796:	d100      	bne.n	800279a <sun_azimut+0x56a>
 8002798:	e695      	b.n	80024c6 <sun_azimut+0x296>
 800279a:	4a07      	ldr	r2, [pc, #28]	; (80027b8 <sun_azimut+0x588>)
 800279c:	4b07      	ldr	r3, [pc, #28]	; (80027bc <sun_azimut+0x58c>)
 800279e:	e68c      	b.n	80024ba <sun_azimut+0x28a>
 80027a0:	0022      	movs	r2, r4
 80027a2:	002b      	movs	r3, r5
 80027a4:	4804      	ldr	r0, [pc, #16]	; (80027b8 <sun_azimut+0x588>)
 80027a6:	4908      	ldr	r1, [pc, #32]	; (80027c8 <sun_azimut+0x598>)
 80027a8:	f7ff f89c 	bl	80018e4 <__aeabi_dsub>
 80027ac:	e7c4      	b.n	8002738 <sun_azimut+0x508>
 80027ae:	46c0      	nop			; (mov r8, r8)
 80027b0:	f238ea75 	.word	0xf238ea75
 80027b4:	3fe76ef9 	.word	0x3fe76ef9
 80027b8:	54442d18 	.word	0x54442d18
 80027bc:	401921fb 	.word	0x401921fb
 80027c0:	a2529d39 	.word	0xa2529d39
 80027c4:	3f91df46 	.word	0x3f91df46
 80027c8:	400921fb 	.word	0x400921fb

080027cc <SystemClock_Config>:
 80027cc:	b570      	push	{r4, r5, r6, lr}
 80027ce:	2610      	movs	r6, #16
 80027d0:	b094      	sub	sp, #80	; 0x50
 80027d2:	222c      	movs	r2, #44	; 0x2c
 80027d4:	2100      	movs	r1, #0
 80027d6:	a809      	add	r0, sp, #36	; 0x24
 80027d8:	f003 ffb4 	bl	8006744 <memset>
 80027dc:	0032      	movs	r2, r6
 80027de:	2100      	movs	r1, #0
 80027e0:	4668      	mov	r0, sp
 80027e2:	f003 ffaf 	bl	8006744 <memset>
 80027e6:	0032      	movs	r2, r6
 80027e8:	2100      	movs	r1, #0
 80027ea:	a804      	add	r0, sp, #16
 80027ec:	f003 ffaa 	bl	8006744 <memset>
 80027f0:	23a0      	movs	r3, #160	; 0xa0
 80027f2:	2402      	movs	r4, #2
 80027f4:	2501      	movs	r5, #1
 80027f6:	039b      	lsls	r3, r3, #14
 80027f8:	a808      	add	r0, sp, #32
 80027fa:	9408      	str	r4, [sp, #32]
 80027fc:	950b      	str	r5, [sp, #44]	; 0x2c
 80027fe:	960c      	str	r6, [sp, #48]	; 0x30
 8002800:	9410      	str	r4, [sp, #64]	; 0x40
 8002802:	9312      	str	r3, [sp, #72]	; 0x48
 8002804:	f000 fff4 	bl	80037f0 <HAL_RCC_OscConfig>
 8002808:	2800      	cmp	r0, #0
 800280a:	d001      	beq.n	8002810 <SystemClock_Config+0x44>
 800280c:	b672      	cpsid	i
 800280e:	e7fe      	b.n	800280e <SystemClock_Config+0x42>
 8002810:	2307      	movs	r3, #7
 8002812:	9002      	str	r0, [sp, #8]
 8002814:	9003      	str	r0, [sp, #12]
 8002816:	0029      	movs	r1, r5
 8002818:	4668      	mov	r0, sp
 800281a:	9300      	str	r3, [sp, #0]
 800281c:	9401      	str	r4, [sp, #4]
 800281e:	f001 fa0b 	bl	8003c38 <HAL_RCC_ClockConfig>
 8002822:	2800      	cmp	r0, #0
 8002824:	d001      	beq.n	800282a <SystemClock_Config+0x5e>
 8002826:	b672      	cpsid	i
 8002828:	e7fe      	b.n	8002828 <SystemClock_Config+0x5c>
 800282a:	2321      	movs	r3, #33	; 0x21
 800282c:	9006      	str	r0, [sp, #24]
 800282e:	9007      	str	r0, [sp, #28]
 8002830:	a804      	add	r0, sp, #16
 8002832:	9304      	str	r3, [sp, #16]
 8002834:	f001 fa94 	bl	8003d60 <HAL_RCCEx_PeriphCLKConfig>
 8002838:	2800      	cmp	r0, #0
 800283a:	d001      	beq.n	8002840 <SystemClock_Config+0x74>
 800283c:	b672      	cpsid	i
 800283e:	e7fe      	b.n	800283e <SystemClock_Config+0x72>
 8002840:	b014      	add	sp, #80	; 0x50
 8002842:	bd70      	pop	{r4, r5, r6, pc}

08002844 <main>:
 8002844:	b5f0      	push	{r4, r5, r6, r7, lr}
 8002846:	b089      	sub	sp, #36	; 0x24
 8002848:	f000 fb98 	bl	8002f7c <HAL_Init>
 800284c:	f7ff ffbe 	bl	80027cc <SystemClock_Config>
 8002850:	2214      	movs	r2, #20
 8002852:	2100      	movs	r1, #0
 8002854:	a803      	add	r0, sp, #12
 8002856:	f003 ff75 	bl	8006744 <memset>
 800285a:	2180      	movs	r1, #128	; 0x80
 800285c:	4b72      	ldr	r3, [pc, #456]	; (8002a28 <main+0x1e4>)
 800285e:	03c9      	lsls	r1, r1, #15
 8002860:	695a      	ldr	r2, [r3, #20]
 8002862:	4872      	ldr	r0, [pc, #456]	; (8002a2c <main+0x1e8>)
 8002864:	430a      	orrs	r2, r1
 8002866:	615a      	str	r2, [r3, #20]
 8002868:	695a      	ldr	r2, [r3, #20]
 800286a:	2690      	movs	r6, #144	; 0x90
 800286c:	400a      	ands	r2, r1
 800286e:	2180      	movs	r1, #128	; 0x80
 8002870:	9200      	str	r2, [sp, #0]
 8002872:	9a00      	ldr	r2, [sp, #0]
 8002874:	695a      	ldr	r2, [r3, #20]
 8002876:	0289      	lsls	r1, r1, #10
 8002878:	430a      	orrs	r2, r1
 800287a:	615a      	str	r2, [r3, #20]
 800287c:	695a      	ldr	r2, [r3, #20]
 800287e:	0136      	lsls	r6, r6, #4
 8002880:	400a      	ands	r2, r1
 8002882:	2180      	movs	r1, #128	; 0x80
 8002884:	9201      	str	r2, [sp, #4]
 8002886:	9a01      	ldr	r2, [sp, #4]
 8002888:	695a      	ldr	r2, [r3, #20]
 800288a:	02c9      	lsls	r1, r1, #11
 800288c:	430a      	orrs	r2, r1
 800288e:	615a      	str	r2, [r3, #20]
 8002890:	695b      	ldr	r3, [r3, #20]
 8002892:	2200      	movs	r2, #0
 8002894:	400b      	ands	r3, r1
 8002896:	9302      	str	r3, [sp, #8]
 8002898:	213a      	movs	r1, #58	; 0x3a
 800289a:	9b02      	ldr	r3, [sp, #8]
 800289c:	f000 fcda 	bl	8003254 <HAL_GPIO_WritePin>
 80028a0:	2090      	movs	r0, #144	; 0x90
 80028a2:	2200      	movs	r2, #0
 80028a4:	0031      	movs	r1, r6
 80028a6:	05c0      	lsls	r0, r0, #23
 80028a8:	27c4      	movs	r7, #196	; 0xc4
 80028aa:	f000 fcd3 	bl	8003254 <HAL_GPIO_WritePin>
 80028ae:	2501      	movs	r5, #1
 80028b0:	2381      	movs	r3, #129	; 0x81
 80028b2:	485e      	ldr	r0, [pc, #376]	; (8002a2c <main+0x1e8>)
 80028b4:	03bf      	lsls	r7, r7, #14
 80028b6:	a903      	add	r1, sp, #12
 80028b8:	9303      	str	r3, [sp, #12]
 80028ba:	9704      	str	r7, [sp, #16]
 80028bc:	9505      	str	r5, [sp, #20]
 80028be:	f000 fc11 	bl	80030e4 <HAL_GPIO_Init>
 80028c2:	2302      	movs	r3, #2
 80028c4:	4859      	ldr	r0, [pc, #356]	; (8002a2c <main+0x1e8>)
 80028c6:	9303      	str	r3, [sp, #12]
 80028c8:	a903      	add	r1, sp, #12
 80028ca:	195b      	adds	r3, r3, r5
 80028cc:	9306      	str	r3, [sp, #24]
 80028ce:	9504      	str	r5, [sp, #16]
 80028d0:	9505      	str	r5, [sp, #20]
 80028d2:	f000 fc07 	bl	80030e4 <HAL_GPIO_Init>
 80028d6:	2090      	movs	r0, #144	; 0x90
 80028d8:	2400      	movs	r4, #0
 80028da:	a903      	add	r1, sp, #12
 80028dc:	05c0      	lsls	r0, r0, #23
 80028de:	9603      	str	r6, [sp, #12]
 80028e0:	9504      	str	r5, [sp, #16]
 80028e2:	9405      	str	r4, [sp, #20]
 80028e4:	9406      	str	r4, [sp, #24]
 80028e6:	f000 fbfd 	bl	80030e4 <HAL_GPIO_Init>
 80028ea:	2380      	movs	r3, #128	; 0x80
 80028ec:	2090      	movs	r0, #144	; 0x90
 80028ee:	015b      	lsls	r3, r3, #5
 80028f0:	a903      	add	r1, sp, #12
 80028f2:	05c0      	lsls	r0, r0, #23
 80028f4:	9303      	str	r3, [sp, #12]
 80028f6:	9704      	str	r7, [sp, #16]
 80028f8:	9505      	str	r5, [sp, #20]
 80028fa:	f000 fbf3 	bl	80030e4 <HAL_GPIO_Init>
 80028fe:	2338      	movs	r3, #56	; 0x38
 8002900:	484a      	ldr	r0, [pc, #296]	; (8002a2c <main+0x1e8>)
 8002902:	a903      	add	r1, sp, #12
 8002904:	9303      	str	r3, [sp, #12]
 8002906:	9504      	str	r5, [sp, #16]
 8002908:	9405      	str	r4, [sp, #20]
 800290a:	9406      	str	r4, [sp, #24]
 800290c:	f000 fbea 	bl	80030e4 <HAL_GPIO_Init>
 8002910:	2340      	movs	r3, #64	; 0x40
 8002912:	4846      	ldr	r0, [pc, #280]	; (8002a2c <main+0x1e8>)
 8002914:	a903      	add	r1, sp, #12
 8002916:	9303      	str	r3, [sp, #12]
 8002918:	9404      	str	r4, [sp, #16]
 800291a:	9505      	str	r5, [sp, #20]
 800291c:	f000 fbe2 	bl	80030e4 <HAL_GPIO_Init>
 8002920:	0022      	movs	r2, r4
 8002922:	0021      	movs	r1, r4
 8002924:	2005      	movs	r0, #5
 8002926:	f000 fb4b 	bl	8002fc0 <HAL_NVIC_SetPriority>
 800292a:	2005      	movs	r0, #5
 800292c:	f000 fb72 	bl	8003014 <HAL_NVIC_EnableIRQ>
 8002930:	0022      	movs	r2, r4
 8002932:	0021      	movs	r1, r4
 8002934:	2007      	movs	r0, #7
 8002936:	f000 fb43 	bl	8002fc0 <HAL_NVIC_SetPriority>
 800293a:	2007      	movs	r0, #7
 800293c:	f000 fb6a 	bl	8003014 <HAL_NVIC_EnableIRQ>
 8002940:	002a      	movs	r2, r5
 8002942:	2130      	movs	r1, #48	; 0x30
 8002944:	4839      	ldr	r0, [pc, #228]	; (8002a2c <main+0x1e8>)
 8002946:	f000 fc85 	bl	8003254 <HAL_GPIO_WritePin>
 800294a:	2090      	movs	r0, #144	; 0x90
 800294c:	0031      	movs	r1, r6
 800294e:	002a      	movs	r2, r5
 8002950:	05c0      	lsls	r0, r0, #23
 8002952:	f000 fc7f 	bl	8003254 <HAL_GPIO_WritePin>
 8002956:	4e36      	ldr	r6, [pc, #216]	; (8002a30 <main+0x1ec>)
 8002958:	4b36      	ldr	r3, [pc, #216]	; (8002a34 <main+0x1f0>)
 800295a:	0030      	movs	r0, r6
 800295c:	6033      	str	r3, [r6, #0]
 800295e:	4b36      	ldr	r3, [pc, #216]	; (8002a38 <main+0x1f4>)
 8002960:	60b4      	str	r4, [r6, #8]
 8002962:	6073      	str	r3, [r6, #4]
 8002964:	60f5      	str	r5, [r6, #12]
 8002966:	6134      	str	r4, [r6, #16]
 8002968:	6174      	str	r4, [r6, #20]
 800296a:	61b4      	str	r4, [r6, #24]
 800296c:	61f4      	str	r4, [r6, #28]
 800296e:	6234      	str	r4, [r6, #32]
 8002970:	f000 fdb8 	bl	80034e4 <HAL_I2C_Init>
 8002974:	0001      	movs	r1, r0
 8002976:	42a0      	cmp	r0, r4
 8002978:	d001      	beq.n	800297e <main+0x13a>
 800297a:	b672      	cpsid	i
 800297c:	e7fe      	b.n	800297c <main+0x138>
 800297e:	0030      	movs	r0, r6
 8002980:	f000 feec 	bl	800375c <HAL_I2CEx_ConfigAnalogFilter>
 8002984:	1e01      	subs	r1, r0, #0
 8002986:	d001      	beq.n	800298c <main+0x148>
 8002988:	b672      	cpsid	i
 800298a:	e7fe      	b.n	800298a <main+0x146>
 800298c:	0030      	movs	r0, r6
 800298e:	f000 ff0b 	bl	80037a8 <HAL_I2CEx_ConfigDigitalFilter>
 8002992:	2800      	cmp	r0, #0
 8002994:	d001      	beq.n	800299a <main+0x156>
 8002996:	b672      	cpsid	i
 8002998:	e7fe      	b.n	8002998 <main+0x154>
 800299a:	4c28      	ldr	r4, [pc, #160]	; (8002a3c <main+0x1f8>)
 800299c:	4b28      	ldr	r3, [pc, #160]	; (8002a40 <main+0x1fc>)
 800299e:	60a0      	str	r0, [r4, #8]
 80029a0:	6023      	str	r3, [r4, #0]
 80029a2:	2396      	movs	r3, #150	; 0x96
 80029a4:	021b      	lsls	r3, r3, #8
 80029a6:	6063      	str	r3, [r4, #4]
 80029a8:	230c      	movs	r3, #12
 80029aa:	60e0      	str	r0, [r4, #12]
 80029ac:	6120      	str	r0, [r4, #16]
 80029ae:	61a0      	str	r0, [r4, #24]
 80029b0:	61e0      	str	r0, [r4, #28]
 80029b2:	6220      	str	r0, [r4, #32]
 80029b4:	6260      	str	r0, [r4, #36]	; 0x24
 80029b6:	0020      	movs	r0, r4
 80029b8:	6163      	str	r3, [r4, #20]
 80029ba:	f002 f80b 	bl	80049d4 <HAL_UART_Init>
 80029be:	2800      	cmp	r0, #0
 80029c0:	d001      	beq.n	80029c6 <main+0x182>
 80029c2:	b672      	cpsid	i
 80029c4:	e7fe      	b.n	80029c4 <main+0x180>
 80029c6:	4f1f      	ldr	r7, [pc, #124]	; (8002a44 <main+0x200>)
 80029c8:	4b1f      	ldr	r3, [pc, #124]	; (8002a48 <main+0x204>)
 80029ca:	60b8      	str	r0, [r7, #8]
 80029cc:	603b      	str	r3, [r7, #0]
 80029ce:	4b1f      	ldr	r3, [pc, #124]	; (8002a4c <main+0x208>)
 80029d0:	6138      	str	r0, [r7, #16]
 80029d2:	607b      	str	r3, [r7, #4]
 80029d4:	4b1e      	ldr	r3, [pc, #120]	; (8002a50 <main+0x20c>)
 80029d6:	6178      	str	r0, [r7, #20]
 80029d8:	61b8      	str	r0, [r7, #24]
 80029da:	0038      	movs	r0, r7
 80029dc:	60fb      	str	r3, [r7, #12]
 80029de:	f001 fb61 	bl	80040a4 <HAL_TIM_Base_Init>
 80029e2:	2800      	cmp	r0, #0
 80029e4:	d001      	beq.n	80029ea <main+0x1a6>
 80029e6:	b672      	cpsid	i
 80029e8:	e7fe      	b.n	80029e8 <main+0x1a4>
 80029ea:	4e1a      	ldr	r6, [pc, #104]	; (8002a54 <main+0x210>)
 80029ec:	4b1a      	ldr	r3, [pc, #104]	; (8002a58 <main+0x214>)
 80029ee:	60b0      	str	r0, [r6, #8]
 80029f0:	6033      	str	r3, [r6, #0]
 80029f2:	4b16      	ldr	r3, [pc, #88]	; (8002a4c <main+0x208>)
 80029f4:	6130      	str	r0, [r6, #16]
 80029f6:	6073      	str	r3, [r6, #4]
 80029f8:	4b18      	ldr	r3, [pc, #96]	; (8002a5c <main+0x218>)
 80029fa:	61b0      	str	r0, [r6, #24]
 80029fc:	60f3      	str	r3, [r6, #12]
 80029fe:	2304      	movs	r3, #4
 8002a00:	0030      	movs	r0, r6
 8002a02:	6173      	str	r3, [r6, #20]
 8002a04:	f001 fb4e 	bl	80040a4 <HAL_TIM_Base_Init>
 8002a08:	2800      	cmp	r0, #0
 8002a0a:	d001      	beq.n	8002a10 <main+0x1cc>
 8002a0c:	b672      	cpsid	i
 8002a0e:	e7fe      	b.n	8002a0e <main+0x1ca>
 8002a10:	0038      	movs	r0, r7
 8002a12:	f001 fa2b 	bl	8003e6c <HAL_TIM_Base_Start_IT>
 8002a16:	0030      	movs	r0, r6
 8002a18:	f001 fa28 	bl	8003e6c <HAL_TIM_Base_Start_IT>
 8002a1c:	002a      	movs	r2, r5
 8002a1e:	0020      	movs	r0, r4
 8002a20:	490f      	ldr	r1, [pc, #60]	; (8002a60 <main+0x21c>)
 8002a22:	f002 f865 	bl	8004af0 <HAL_UART_Receive_IT>
 8002a26:	e7fe      	b.n	8002a26 <main+0x1e2>
 8002a28:	40021000 	.word	0x40021000
 8002a2c:	48000400 	.word	0x48000400
 8002a30:	20000098 	.word	0x20000098
 8002a34:	40005400 	.word	0x40005400
 8002a38:	2000090e 	.word	0x2000090e
 8002a3c:	2000017c 	.word	0x2000017c
 8002a40:	40013800 	.word	0x40013800
 8002a44:	200000ec 	.word	0x200000ec
 8002a48:	40014400 	.word	0x40014400
 8002a4c:	0000bb7f 	.word	0x0000bb7f
 8002a50:	000003e7 	.word	0x000003e7
 8002a54:	20000134 	.word	0x20000134
 8002a58:	40014800 	.word	0x40014800
 8002a5c:	0000ea5f 	.word	0x0000ea5f
 8002a60:	20000204 	.word	0x20000204

08002a64 <HAL_TIM_PeriodElapsedCallback>:
 8002a64:	4b11      	ldr	r3, [pc, #68]	; (8002aac <HAL_TIM_PeriodElapsedCallback+0x48>)
 8002a66:	b537      	push	{r0, r1, r2, r4, r5, lr}
 8002a68:	4298      	cmp	r0, r3
 8002a6a:	d108      	bne.n	8002a7e <HAL_TIM_PeriodElapsedCallback+0x1a>
 8002a6c:	2108      	movs	r1, #8
 8002a6e:	4810      	ldr	r0, [pc, #64]	; (8002ab0 <HAL_TIM_PeriodElapsedCallback+0x4c>)
 8002a70:	f000 fbf6 	bl	8003260 <HAL_GPIO_TogglePin>
 8002a74:	490f      	ldr	r1, [pc, #60]	; (8002ab4 <HAL_TIM_PeriodElapsedCallback+0x50>)
 8002a76:	4810      	ldr	r0, [pc, #64]	; (8002ab8 <HAL_TIM_PeriodElapsedCallback+0x54>)
 8002a78:	f7ff fb8c 	bl	8002194 <Get_Time>
 8002a7c:	bd37      	pop	{r0, r1, r2, r4, r5, pc}
 8002a7e:	4b0f      	ldr	r3, [pc, #60]	; (8002abc <HAL_TIM_PeriodElapsedCallback+0x58>)
 8002a80:	4298      	cmp	r0, r3
 8002a82:	d1fb      	bne.n	8002a7c <HAL_TIM_PeriodElapsedCallback+0x18>
 8002a84:	23fa      	movs	r3, #250	; 0xfa
 8002a86:	2207      	movs	r2, #7
 8002a88:	490d      	ldr	r1, [pc, #52]	; (8002ac0 <HAL_TIM_PeriodElapsedCallback+0x5c>)
 8002a8a:	009b      	lsls	r3, r3, #2
 8002a8c:	480d      	ldr	r0, [pc, #52]	; (8002ac4 <HAL_TIM_PeriodElapsedCallback+0x60>)
 8002a8e:	f001 feda 	bl	8004846 <HAL_UART_Transmit>
 8002a92:	4c09      	ldr	r4, [pc, #36]	; (8002ab8 <HAL_TIM_PeriodElapsedCallback+0x54>)
 8002a94:	78a3      	ldrb	r3, [r4, #2]
 8002a96:	78e2      	ldrb	r2, [r4, #3]
 8002a98:	7921      	ldrb	r1, [r4, #4]
 8002a9a:	2506      	movs	r5, #6
 8002a9c:	5f60      	ldrsh	r0, [r4, r5]
 8002a9e:	7864      	ldrb	r4, [r4, #1]
 8002aa0:	9400      	str	r4, [sp, #0]
 8002aa2:	f7ff fbc5 	bl	8002230 <sun_azimut>
 8002aa6:	4b08      	ldr	r3, [pc, #32]	; (8002ac8 <HAL_TIM_PeriodElapsedCallback+0x64>)
 8002aa8:	6018      	str	r0, [r3, #0]
 8002aaa:	e7e7      	b.n	8002a7c <HAL_TIM_PeriodElapsedCallback+0x18>
 8002aac:	200000ec 	.word	0x200000ec
 8002ab0:	48000400 	.word	0x48000400
 8002ab4:	20000098 	.word	0x20000098
 8002ab8:	2000008c 	.word	0x2000008c
 8002abc:	20000134 	.word	0x20000134
 8002ac0:	08006848 	.word	0x08006848
 8002ac4:	2000017c 	.word	0x2000017c
 8002ac8:	20000208 	.word	0x20000208

08002acc <HAL_GPIO_EXTI_Callback>:
 8002acc:	2380      	movs	r3, #128	; 0x80
 8002ace:	0001      	movs	r1, r0
 8002ad0:	b510      	push	{r4, lr}
 8002ad2:	015b      	lsls	r3, r3, #5
 8002ad4:	4298      	cmp	r0, r3
 8002ad6:	d10f      	bne.n	8002af8 <HAL_GPIO_EXTI_Callback+0x2c>
 8002ad8:	2090      	movs	r0, #144	; 0x90
 8002ada:	05c0      	lsls	r0, r0, #23
 8002adc:	f000 fbb4 	bl	8003248 <HAL_GPIO_ReadPin>
 8002ae0:	1e02      	subs	r2, r0, #0
 8002ae2:	d002      	beq.n	8002aea <HAL_GPIO_EXTI_Callback+0x1e>
 8002ae4:	2801      	cmp	r0, #1
 8002ae6:	d000      	beq.n	8002aea <HAL_GPIO_EXTI_Callback+0x1e>
 8002ae8:	bd10      	pop	{r4, pc}
 8002aea:	2180      	movs	r1, #128	; 0x80
 8002aec:	0049      	lsls	r1, r1, #1
 8002aee:	2090      	movs	r0, #144	; 0x90
 8002af0:	05c0      	lsls	r0, r0, #23
 8002af2:	f000 fbaf 	bl	8003254 <HAL_GPIO_WritePin>
 8002af6:	e7f7      	b.n	8002ae8 <HAL_GPIO_EXTI_Callback+0x1c>
 8002af8:	2801      	cmp	r0, #1
 8002afa:	d1f5      	bne.n	8002ae8 <HAL_GPIO_EXTI_Callback+0x1c>
 8002afc:	4804      	ldr	r0, [pc, #16]	; (8002b10 <HAL_GPIO_EXTI_Callback+0x44>)
 8002afe:	f000 fba3 	bl	8003248 <HAL_GPIO_ReadPin>
 8002b02:	1e02      	subs	r2, r0, #0
 8002b04:	d001      	beq.n	8002b0a <HAL_GPIO_EXTI_Callback+0x3e>
 8002b06:	2801      	cmp	r0, #1
 8002b08:	d1ee      	bne.n	8002ae8 <HAL_GPIO_EXTI_Callback+0x1c>
 8002b0a:	2180      	movs	r1, #128	; 0x80
 8002b0c:	0109      	lsls	r1, r1, #4
 8002b0e:	e7ee      	b.n	8002aee <HAL_GPIO_EXTI_Callback+0x22>
 8002b10:	48000400 	.word	0x48000400

08002b14 <USART1_IRQHandler>:
 8002b14:	b57f      	push	{r0, r1, r2, r3, r4, r5, r6, lr}
 8002b16:	4c74      	ldr	r4, [pc, #464]	; (8002ce8 <USART1_IRQHandler+0x1d4>)
 8002b18:	0020      	movs	r0, r4
 8002b1a:	f001 fb2b 	bl	8004174 <HAL_UART_IRQHandler>
 8002b1e:	4b73      	ldr	r3, [pc, #460]	; (8002cec <USART1_IRQHandler+0x1d8>)
 8002b20:	7818      	ldrb	r0, [r3, #0]
 8002b22:	2864      	cmp	r0, #100	; 0x64
 8002b24:	d100      	bne.n	8002b28 <USART1_IRQHandler+0x14>
 8002b26:	e078      	b.n	8002c1a <USART1_IRQHandler+0x106>
 8002b28:	d80b      	bhi.n	8002b42 <USART1_IRQHandler+0x2e>
 8002b2a:	0003      	movs	r3, r0
 8002b2c:	3b31      	subs	r3, #49	; 0x31
 8002b2e:	2b03      	cmp	r3, #3
 8002b30:	d810      	bhi.n	8002b54 <USART1_IRQHandler+0x40>
 8002b32:	3832      	subs	r0, #50	; 0x32
 8002b34:	2802      	cmp	r0, #2
 8002b36:	d900      	bls.n	8002b3a <USART1_IRQHandler+0x26>
 8002b38:	e0c7      	b.n	8002cca <USART1_IRQHandler+0x1b6>
 8002b3a:	f7fd faef 	bl	800011c <__gnu_thumb1_case_uqi>
 8002b3e:	d0cd      	.short	0xd0cd
 8002b40:	d3          	.byte	0xd3
 8002b41:	00          	.byte	0x00
 8002b42:	2873      	cmp	r0, #115	; 0x73
 8002b44:	d100      	bne.n	8002b48 <USART1_IRQHandler+0x34>
 8002b46:	e0af      	b.n	8002ca8 <USART1_IRQHandler+0x194>
 8002b48:	2874      	cmp	r0, #116	; 0x74
 8002b4a:	d009      	beq.n	8002b60 <USART1_IRQHandler+0x4c>
 8002b4c:	2108      	movs	r1, #8
 8002b4e:	286c      	cmp	r0, #108	; 0x6c
 8002b50:	d100      	bne.n	8002b54 <USART1_IRQHandler+0x40>
 8002b52:	e0c5      	b.n	8002ce0 <USART1_IRQHandler+0x1cc>
 8002b54:	2201      	movs	r2, #1
 8002b56:	0020      	movs	r0, r4
 8002b58:	4964      	ldr	r1, [pc, #400]	; (8002cec <USART1_IRQHandler+0x1d8>)
 8002b5a:	f001 ffc9 	bl	8004af0 <HAL_UART_Receive_IT>
 8002b5e:	bd7f      	pop	{r0, r1, r2, r3, r4, r5, r6, pc}
 8002b60:	23fa      	movs	r3, #250	; 0xfa
 8002b62:	4963      	ldr	r1, [pc, #396]	; (8002cf0 <USART1_IRQHandler+0x1dc>)
 8002b64:	2207      	movs	r2, #7
 8002b66:	0020      	movs	r0, r4
 8002b68:	009b      	lsls	r3, r3, #2
 8002b6a:	f001 fe6c 	bl	8004846 <HAL_UART_Transmit>
 8002b6e:	4d61      	ldr	r5, [pc, #388]	; (8002cf4 <USART1_IRQHandler+0x1e0>)
 8002b70:	4961      	ldr	r1, [pc, #388]	; (8002cf8 <USART1_IRQHandler+0x1e4>)
 8002b72:	0028      	movs	r0, r5
 8002b74:	f7ff fb0e 	bl	8002194 <Get_Time>
 8002b78:	28ff      	cmp	r0, #255	; 0xff
 8002b7a:	d107      	bne.n	8002b8c <USART1_IRQHandler+0x78>
 8002b7c:	23fa      	movs	r3, #250	; 0xfa
 8002b7e:	2208      	movs	r2, #8
 8002b80:	495e      	ldr	r1, [pc, #376]	; (8002cfc <USART1_IRQHandler+0x1e8>)
 8002b82:	009b      	lsls	r3, r3, #2
 8002b84:	0020      	movs	r0, r4
 8002b86:	f001 fe5e 	bl	8004846 <HAL_UART_Transmit>
 8002b8a:	e7e3      	b.n	8002b54 <USART1_IRQHandler+0x40>
 8002b8c:	220f      	movs	r2, #15
 8002b8e:	2100      	movs	r1, #0
 8002b90:	4668      	mov	r0, sp
 8002b92:	f003 fdd7 	bl	8006744 <memset>
 8002b96:	220a      	movs	r2, #10
 8002b98:	4669      	mov	r1, sp
 8002b9a:	78a8      	ldrb	r0, [r5, #2]
 8002b9c:	f7ff fac6 	bl	800212c <itoa.part.0>
 8002ba0:	23fa      	movs	r3, #250	; 0xfa
 8002ba2:	220f      	movs	r2, #15
 8002ba4:	4669      	mov	r1, sp
 8002ba6:	009b      	lsls	r3, r3, #2
 8002ba8:	0020      	movs	r0, r4
 8002baa:	f001 fe4c 	bl	8004846 <HAL_UART_Transmit>
 8002bae:	23fa      	movs	r3, #250	; 0xfa
 8002bb0:	4e53      	ldr	r6, [pc, #332]	; (8002d00 <USART1_IRQHandler+0x1ec>)
 8002bb2:	009b      	lsls	r3, r3, #2
 8002bb4:	2201      	movs	r2, #1
 8002bb6:	0031      	movs	r1, r6
 8002bb8:	0020      	movs	r0, r4
 8002bba:	f001 fe44 	bl	8004846 <HAL_UART_Transmit>
 8002bbe:	220f      	movs	r2, #15
 8002bc0:	2100      	movs	r1, #0
 8002bc2:	4668      	mov	r0, sp
 8002bc4:	f003 fdbe 	bl	8006744 <memset>
 8002bc8:	220a      	movs	r2, #10
 8002bca:	4669      	mov	r1, sp
 8002bcc:	7868      	ldrb	r0, [r5, #1]
 8002bce:	f7ff faad 	bl	800212c <itoa.part.0>
 8002bd2:	23fa      	movs	r3, #250	; 0xfa
 8002bd4:	220f      	movs	r2, #15
 8002bd6:	4669      	mov	r1, sp
 8002bd8:	009b      	lsls	r3, r3, #2
 8002bda:	0020      	movs	r0, r4
 8002bdc:	f001 fe33 	bl	8004846 <HAL_UART_Transmit>
 8002be0:	23fa      	movs	r3, #250	; 0xfa
 8002be2:	2201      	movs	r2, #1
 8002be4:	0031      	movs	r1, r6
 8002be6:	009b      	lsls	r3, r3, #2
 8002be8:	0020      	movs	r0, r4
 8002bea:	f001 fe2c 	bl	8004846 <HAL_UART_Transmit>
 8002bee:	220f      	movs	r2, #15
 8002bf0:	2100      	movs	r1, #0
 8002bf2:	4668      	mov	r0, sp
 8002bf4:	f003 fda6 	bl	8006744 <memset>
 8002bf8:	7828      	ldrb	r0, [r5, #0]
 8002bfa:	220a      	movs	r2, #10
 8002bfc:	4669      	mov	r1, sp
 8002bfe:	f7ff fa95 	bl	800212c <itoa.part.0>
 8002c02:	23fa      	movs	r3, #250	; 0xfa
 8002c04:	220f      	movs	r2, #15
 8002c06:	4669      	mov	r1, sp
 8002c08:	009b      	lsls	r3, r3, #2
 8002c0a:	0020      	movs	r0, r4
 8002c0c:	f001 fe1b 	bl	8004846 <HAL_UART_Transmit>
 8002c10:	23fa      	movs	r3, #250	; 0xfa
 8002c12:	2202      	movs	r2, #2
 8002c14:	493b      	ldr	r1, [pc, #236]	; (8002d04 <USART1_IRQHandler+0x1f0>)
 8002c16:	009b      	lsls	r3, r3, #2
 8002c18:	e7b4      	b.n	8002b84 <USART1_IRQHandler+0x70>
 8002c1a:	23fa      	movs	r3, #250	; 0xfa
 8002c1c:	493a      	ldr	r1, [pc, #232]	; (8002d08 <USART1_IRQHandler+0x1f4>)
 8002c1e:	2207      	movs	r2, #7
 8002c20:	0020      	movs	r0, r4
 8002c22:	009b      	lsls	r3, r3, #2
 8002c24:	f001 fe0f 	bl	8004846 <HAL_UART_Transmit>
 8002c28:	4d32      	ldr	r5, [pc, #200]	; (8002cf4 <USART1_IRQHandler+0x1e0>)
 8002c2a:	4933      	ldr	r1, [pc, #204]	; (8002cf8 <USART1_IRQHandler+0x1e4>)
 8002c2c:	0028      	movs	r0, r5
 8002c2e:	f7ff fab1 	bl	8002194 <Get_Time>
 8002c32:	28ff      	cmp	r0, #255	; 0xff
 8002c34:	d0a2      	beq.n	8002b7c <USART1_IRQHandler+0x68>
 8002c36:	220f      	movs	r2, #15
 8002c38:	2100      	movs	r1, #0
 8002c3a:	4668      	mov	r0, sp
 8002c3c:	f003 fd82 	bl	8006744 <memset>
 8002c40:	2306      	movs	r3, #6
 8002c42:	5ee8      	ldrsh	r0, [r5, r3]
 8002c44:	220a      	movs	r2, #10
 8002c46:	4669      	mov	r1, sp
 8002c48:	f7ff fa70 	bl	800212c <itoa.part.0>
 8002c4c:	23fa      	movs	r3, #250	; 0xfa
 8002c4e:	220f      	movs	r2, #15
 8002c50:	4669      	mov	r1, sp
 8002c52:	009b      	lsls	r3, r3, #2
 8002c54:	0020      	movs	r0, r4
 8002c56:	f001 fdf6 	bl	8004846 <HAL_UART_Transmit>
 8002c5a:	23fa      	movs	r3, #250	; 0xfa
 8002c5c:	4e2b      	ldr	r6, [pc, #172]	; (8002d0c <USART1_IRQHandler+0x1f8>)
 8002c5e:	009b      	lsls	r3, r3, #2
 8002c60:	2201      	movs	r2, #1
 8002c62:	0031      	movs	r1, r6
 8002c64:	0020      	movs	r0, r4
 8002c66:	f001 fdee 	bl	8004846 <HAL_UART_Transmit>
 8002c6a:	220f      	movs	r2, #15
 8002c6c:	2100      	movs	r1, #0
 8002c6e:	4668      	mov	r0, sp
 8002c70:	f003 fd68 	bl	8006744 <memset>
 8002c74:	220a      	movs	r2, #10
 8002c76:	4669      	mov	r1, sp
 8002c78:	7928      	ldrb	r0, [r5, #4]
 8002c7a:	f7ff fa57 	bl	800212c <itoa.part.0>
 8002c7e:	23fa      	movs	r3, #250	; 0xfa
 8002c80:	220f      	movs	r2, #15
 8002c82:	4669      	mov	r1, sp
 8002c84:	009b      	lsls	r3, r3, #2
 8002c86:	0020      	movs	r0, r4
 8002c88:	f001 fddd 	bl	8004846 <HAL_UART_Transmit>
 8002c8c:	23fa      	movs	r3, #250	; 0xfa
 8002c8e:	2201      	movs	r2, #1
 8002c90:	0031      	movs	r1, r6
 8002c92:	009b      	lsls	r3, r3, #2
 8002c94:	0020      	movs	r0, r4
 8002c96:	f001 fdd6 	bl	8004846 <HAL_UART_Transmit>
 8002c9a:	220f      	movs	r2, #15
 8002c9c:	2100      	movs	r1, #0
 8002c9e:	4668      	mov	r0, sp
 8002ca0:	f003 fd50 	bl	8006744 <memset>
 8002ca4:	78e8      	ldrb	r0, [r5, #3]
 8002ca6:	e7a8      	b.n	8002bfa <USART1_IRQHandler+0xe6>
 8002ca8:	23fa      	movs	r3, #250	; 0xfa
 8002caa:	220c      	movs	r2, #12
 8002cac:	009b      	lsls	r3, r3, #2
 8002cae:	4918      	ldr	r1, [pc, #96]	; (8002d10 <USART1_IRQHandler+0x1fc>)
 8002cb0:	0020      	movs	r0, r4
 8002cb2:	f001 fdc8 	bl	8004846 <HAL_UART_Transmit>
 8002cb6:	220f      	movs	r2, #15
 8002cb8:	2100      	movs	r1, #0
 8002cba:	4668      	mov	r0, sp
 8002cbc:	f003 fd42 	bl	8006744 <memset>
 8002cc0:	4b14      	ldr	r3, [pc, #80]	; (8002d14 <USART1_IRQHandler+0x200>)
 8002cc2:	220a      	movs	r2, #10
 8002cc4:	4669      	mov	r1, sp
 8002cc6:	6818      	ldr	r0, [r3, #0]
 8002cc8:	e799      	b.n	8002bfe <USART1_IRQHandler+0xea>
 8002cca:	2180      	movs	r1, #128	; 0x80
 8002ccc:	0049      	lsls	r1, r1, #1
 8002cce:	2090      	movs	r0, #144	; 0x90
 8002cd0:	05c0      	lsls	r0, r0, #23
 8002cd2:	f000 fac5 	bl	8003260 <HAL_GPIO_TogglePin>
 8002cd6:	e73d      	b.n	8002b54 <USART1_IRQHandler+0x40>
 8002cd8:	2180      	movs	r1, #128	; 0x80
 8002cda:	0109      	lsls	r1, r1, #4
 8002cdc:	e7f7      	b.n	8002cce <USART1_IRQHandler+0x1ba>
 8002cde:	2120      	movs	r1, #32
 8002ce0:	480d      	ldr	r0, [pc, #52]	; (8002d18 <USART1_IRQHandler+0x204>)
 8002ce2:	e7f6      	b.n	8002cd2 <USART1_IRQHandler+0x1be>
 8002ce4:	2110      	movs	r1, #16
 8002ce6:	e7fb      	b.n	8002ce0 <USART1_IRQHandler+0x1cc>
 8002ce8:	2000017c 	.word	0x2000017c
 8002cec:	20000204 	.word	0x20000204
 8002cf0:	08006850 	.word	0x08006850
 8002cf4:	2000008c 	.word	0x2000008c
 8002cf8:	20000098 	.word	0x20000098
 8002cfc:	08006858 	.word	0x08006858
 8002d00:	08006861 	.word	0x08006861
 8002d04:	0800684d 	.word	0x0800684d
 8002d08:	08006863 	.word	0x08006863
 8002d0c:	0800686b 	.word	0x0800686b
 8002d10:	0800686d 	.word	0x0800686d
 8002d14:	20000208 	.word	0x20000208
 8002d18:	48000400 	.word	0x48000400

08002d1c <HAL_MspInit>:
 8002d1c:	2101      	movs	r1, #1
 8002d1e:	4b0a      	ldr	r3, [pc, #40]	; (8002d48 <HAL_MspInit+0x2c>)
 8002d20:	b082      	sub	sp, #8
 8002d22:	699a      	ldr	r2, [r3, #24]
 8002d24:	430a      	orrs	r2, r1
 8002d26:	619a      	str	r2, [r3, #24]
 8002d28:	699a      	ldr	r2, [r3, #24]
 8002d2a:	400a      	ands	r2, r1
 8002d2c:	2180      	movs	r1, #128	; 0x80
 8002d2e:	9200      	str	r2, [sp, #0]
 8002d30:	9a00      	ldr	r2, [sp, #0]
 8002d32:	69da      	ldr	r2, [r3, #28]
 8002d34:	0549      	lsls	r1, r1, #21
 8002d36:	430a      	orrs	r2, r1
 8002d38:	61da      	str	r2, [r3, #28]
 8002d3a:	69db      	ldr	r3, [r3, #28]
 8002d3c:	400b      	ands	r3, r1
 8002d3e:	9301      	str	r3, [sp, #4]
 8002d40:	9b01      	ldr	r3, [sp, #4]
 8002d42:	b002      	add	sp, #8
 8002d44:	4770      	bx	lr
 8002d46:	46c0      	nop			; (mov r8, r8)
 8002d48:	40021000 	.word	0x40021000

08002d4c <HAL_I2C_MspInit>:
 8002d4c:	b510      	push	{r4, lr}
 8002d4e:	0004      	movs	r4, r0
 8002d50:	b088      	sub	sp, #32
 8002d52:	2214      	movs	r2, #20
 8002d54:	2100      	movs	r1, #0
 8002d56:	a803      	add	r0, sp, #12
 8002d58:	f003 fcf4 	bl	8006744 <memset>
 8002d5c:	4b13      	ldr	r3, [pc, #76]	; (8002dac <HAL_I2C_MspInit+0x60>)
 8002d5e:	6822      	ldr	r2, [r4, #0]
 8002d60:	429a      	cmp	r2, r3
 8002d62:	d120      	bne.n	8002da6 <HAL_I2C_MspInit+0x5a>
 8002d64:	2280      	movs	r2, #128	; 0x80
 8002d66:	4c12      	ldr	r4, [pc, #72]	; (8002db0 <HAL_I2C_MspInit+0x64>)
 8002d68:	0292      	lsls	r2, r2, #10
 8002d6a:	6963      	ldr	r3, [r4, #20]
 8002d6c:	2090      	movs	r0, #144	; 0x90
 8002d6e:	4313      	orrs	r3, r2
 8002d70:	6163      	str	r3, [r4, #20]
 8002d72:	6963      	ldr	r3, [r4, #20]
 8002d74:	a903      	add	r1, sp, #12
 8002d76:	4013      	ands	r3, r2
 8002d78:	9301      	str	r3, [sp, #4]
 8002d7a:	9b01      	ldr	r3, [sp, #4]
 8002d7c:	23c0      	movs	r3, #192	; 0xc0
 8002d7e:	00db      	lsls	r3, r3, #3
 8002d80:	9303      	str	r3, [sp, #12]
 8002d82:	2312      	movs	r3, #18
 8002d84:	9304      	str	r3, [sp, #16]
 8002d86:	3b0f      	subs	r3, #15
 8002d88:	9306      	str	r3, [sp, #24]
 8002d8a:	05c0      	lsls	r0, r0, #23
 8002d8c:	3301      	adds	r3, #1
 8002d8e:	9307      	str	r3, [sp, #28]
 8002d90:	f000 f9a8 	bl	80030e4 <HAL_GPIO_Init>
 8002d94:	2280      	movs	r2, #128	; 0x80
 8002d96:	69e3      	ldr	r3, [r4, #28]
 8002d98:	0392      	lsls	r2, r2, #14
 8002d9a:	4313      	orrs	r3, r2
 8002d9c:	61e3      	str	r3, [r4, #28]
 8002d9e:	69e3      	ldr	r3, [r4, #28]
 8002da0:	4013      	ands	r3, r2
 8002da2:	9302      	str	r3, [sp, #8]
 8002da4:	9b02      	ldr	r3, [sp, #8]
 8002da6:	b008      	add	sp, #32
 8002da8:	bd10      	pop	{r4, pc}
 8002daa:	46c0      	nop			; (mov r8, r8)
 8002dac:	40005400 	.word	0x40005400
 8002db0:	40021000 	.word	0x40021000

08002db4 <HAL_TIM_Base_MspInit>:
 8002db4:	b507      	push	{r0, r1, r2, lr}
 8002db6:	6803      	ldr	r3, [r0, #0]
 8002db8:	4a14      	ldr	r2, [pc, #80]	; (8002e0c <HAL_TIM_Base_MspInit+0x58>)
 8002dba:	4293      	cmp	r3, r2
 8002dbc:	d112      	bne.n	8002de4 <HAL_TIM_Base_MspInit+0x30>
 8002dbe:	2180      	movs	r1, #128	; 0x80
 8002dc0:	4b13      	ldr	r3, [pc, #76]	; (8002e10 <HAL_TIM_Base_MspInit+0x5c>)
 8002dc2:	0289      	lsls	r1, r1, #10
 8002dc4:	699a      	ldr	r2, [r3, #24]
 8002dc6:	2015      	movs	r0, #21
 8002dc8:	430a      	orrs	r2, r1
 8002dca:	619a      	str	r2, [r3, #24]
 8002dcc:	2200      	movs	r2, #0
 8002dce:	699b      	ldr	r3, [r3, #24]
 8002dd0:	400b      	ands	r3, r1
 8002dd2:	9300      	str	r3, [sp, #0]
 8002dd4:	0011      	movs	r1, r2
 8002dd6:	9b00      	ldr	r3, [sp, #0]
 8002dd8:	f000 f8f2 	bl	8002fc0 <HAL_NVIC_SetPriority>
 8002ddc:	2015      	movs	r0, #21
 8002dde:	f000 f919 	bl	8003014 <HAL_NVIC_EnableIRQ>
 8002de2:	bd07      	pop	{r0, r1, r2, pc}
 8002de4:	4a0b      	ldr	r2, [pc, #44]	; (8002e14 <HAL_TIM_Base_MspInit+0x60>)
 8002de6:	4293      	cmp	r3, r2
 8002de8:	d1fb      	bne.n	8002de2 <HAL_TIM_Base_MspInit+0x2e>
 8002dea:	2180      	movs	r1, #128	; 0x80
 8002dec:	4b08      	ldr	r3, [pc, #32]	; (8002e10 <HAL_TIM_Base_MspInit+0x5c>)
 8002dee:	02c9      	lsls	r1, r1, #11
 8002df0:	699a      	ldr	r2, [r3, #24]
 8002df2:	2016      	movs	r0, #22
 8002df4:	430a      	orrs	r2, r1
 8002df6:	619a      	str	r2, [r3, #24]
 8002df8:	2200      	movs	r2, #0
 8002dfa:	699b      	ldr	r3, [r3, #24]
 8002dfc:	400b      	ands	r3, r1
 8002dfe:	9301      	str	r3, [sp, #4]
 8002e00:	0011      	movs	r1, r2
 8002e02:	9b01      	ldr	r3, [sp, #4]
 8002e04:	f000 f8dc 	bl	8002fc0 <HAL_NVIC_SetPriority>
 8002e08:	2016      	movs	r0, #22
 8002e0a:	e7e8      	b.n	8002dde <HAL_TIM_Base_MspInit+0x2a>
 8002e0c:	40014400 	.word	0x40014400
 8002e10:	40021000 	.word	0x40021000
 8002e14:	40014800 	.word	0x40014800

08002e18 <HAL_UART_MspInit>:
 8002e18:	b510      	push	{r4, lr}
 8002e1a:	0004      	movs	r4, r0
 8002e1c:	b088      	sub	sp, #32
 8002e1e:	2214      	movs	r2, #20
 8002e20:	2100      	movs	r1, #0
 8002e22:	a803      	add	r0, sp, #12
 8002e24:	f003 fc8e 	bl	8006744 <memset>
 8002e28:	4b16      	ldr	r3, [pc, #88]	; (8002e84 <HAL_UART_MspInit+0x6c>)
 8002e2a:	6822      	ldr	r2, [r4, #0]
 8002e2c:	429a      	cmp	r2, r3
 8002e2e:	d127      	bne.n	8002e80 <HAL_UART_MspInit+0x68>
 8002e30:	2180      	movs	r1, #128	; 0x80
 8002e32:	4b15      	ldr	r3, [pc, #84]	; (8002e88 <HAL_UART_MspInit+0x70>)
 8002e34:	01c9      	lsls	r1, r1, #7
 8002e36:	699a      	ldr	r2, [r3, #24]
 8002e38:	2090      	movs	r0, #144	; 0x90
 8002e3a:	430a      	orrs	r2, r1
 8002e3c:	619a      	str	r2, [r3, #24]
 8002e3e:	699a      	ldr	r2, [r3, #24]
 8002e40:	05c0      	lsls	r0, r0, #23
 8002e42:	400a      	ands	r2, r1
 8002e44:	2180      	movs	r1, #128	; 0x80
 8002e46:	9201      	str	r2, [sp, #4]
 8002e48:	9a01      	ldr	r2, [sp, #4]
 8002e4a:	695a      	ldr	r2, [r3, #20]
 8002e4c:	0289      	lsls	r1, r1, #10
 8002e4e:	430a      	orrs	r2, r1
 8002e50:	615a      	str	r2, [r3, #20]
 8002e52:	695b      	ldr	r3, [r3, #20]
 8002e54:	400b      	ands	r3, r1
 8002e56:	9302      	str	r3, [sp, #8]
 8002e58:	9b02      	ldr	r3, [sp, #8]
 8002e5a:	4b0c      	ldr	r3, [pc, #48]	; (8002e8c <HAL_UART_MspInit+0x74>)
 8002e5c:	a903      	add	r1, sp, #12
 8002e5e:	9303      	str	r3, [sp, #12]
 8002e60:	2302      	movs	r3, #2
 8002e62:	9304      	str	r3, [sp, #16]
 8002e64:	3301      	adds	r3, #1
 8002e66:	9306      	str	r3, [sp, #24]
 8002e68:	3b02      	subs	r3, #2
 8002e6a:	9307      	str	r3, [sp, #28]
 8002e6c:	f000 f93a 	bl	80030e4 <HAL_GPIO_Init>
 8002e70:	2200      	movs	r2, #0
 8002e72:	201b      	movs	r0, #27
 8002e74:	0011      	movs	r1, r2
 8002e76:	f000 f8a3 	bl	8002fc0 <HAL_NVIC_SetPriority>
 8002e7a:	201b      	movs	r0, #27
 8002e7c:	f000 f8ca 	bl	8003014 <HAL_NVIC_EnableIRQ>
 8002e80:	b008      	add	sp, #32
 8002e82:	bd10      	pop	{r4, pc}
 8002e84:	40013800 	.word	0x40013800
 8002e88:	40021000 	.word	0x40021000
 8002e8c:	00008004 	.word	0x00008004

08002e90 <NMI_Handler>:
 8002e90:	e7fe      	b.n	8002e90 <NMI_Handler>

08002e92 <HardFault_Handler>:
 8002e92:	e7fe      	b.n	8002e92 <HardFault_Handler>

08002e94 <SVC_Handler>:
 8002e94:	4770      	bx	lr

08002e96 <PendSV_Handler>:
 8002e96:	4770      	bx	lr

08002e98 <SysTick_Handler>:
 8002e98:	b510      	push	{r4, lr}
 8002e9a:	f000 f87f 	bl	8002f9c <HAL_IncTick>
 8002e9e:	bd10      	pop	{r4, pc}

08002ea0 <EXTI0_1_IRQHandler>:
 8002ea0:	b510      	push	{r4, lr}
 8002ea2:	2001      	movs	r0, #1
 8002ea4:	f000 f9e4 	bl	8003270 <HAL_GPIO_EXTI_IRQHandler>
 8002ea8:	bd10      	pop	{r4, pc}

08002eaa <EXTI4_15_IRQHandler>:
 8002eaa:	b510      	push	{r4, lr}
 8002eac:	2080      	movs	r0, #128	; 0x80
 8002eae:	f000 f9df 	bl	8003270 <HAL_GPIO_EXTI_IRQHandler>
 8002eb2:	2080      	movs	r0, #128	; 0x80
 8002eb4:	0140      	lsls	r0, r0, #5
 8002eb6:	f000 f9db 	bl	8003270 <HAL_GPIO_EXTI_IRQHandler>
 8002eba:	bd10      	pop	{r4, pc}

08002ebc <TIM16_IRQHandler>:
 8002ebc:	b510      	push	{r4, lr}
 8002ebe:	4802      	ldr	r0, [pc, #8]	; (8002ec8 <TIM16_IRQHandler+0xc>)
 8002ec0:	f001 f804 	bl	8003ecc <HAL_TIM_IRQHandler>
 8002ec4:	bd10      	pop	{r4, pc}
 8002ec6:	46c0      	nop			; (mov r8, r8)
 8002ec8:	200000ec 	.word	0x200000ec

08002ecc <TIM17_IRQHandler>:
 8002ecc:	b510      	push	{r4, lr}
 8002ece:	4802      	ldr	r0, [pc, #8]	; (8002ed8 <TIM17_IRQHandler+0xc>)
 8002ed0:	f000 fffc 	bl	8003ecc <HAL_TIM_IRQHandler>
 8002ed4:	bd10      	pop	{r4, pc}
 8002ed6:	46c0      	nop			; (mov r8, r8)
 8002ed8:	20000134 	.word	0x20000134

08002edc <SystemInit>:
 8002edc:	4770      	bx	lr
	...

08002ee0 <Reset_Handler>:
 8002ee0:	480d      	ldr	r0, [pc, #52]	; (8002f18 <LoopForever+0x2>)
 8002ee2:	4685      	mov	sp, r0
 8002ee4:	f7ff fffa 	bl	8002edc <SystemInit>
 8002ee8:	480c      	ldr	r0, [pc, #48]	; (8002f1c <LoopForever+0x6>)
 8002eea:	490d      	ldr	r1, [pc, #52]	; (8002f20 <LoopForever+0xa>)
 8002eec:	4a0d      	ldr	r2, [pc, #52]	; (8002f24 <LoopForever+0xe>)
 8002eee:	2300      	movs	r3, #0
 8002ef0:	e002      	b.n	8002ef8 <LoopCopyDataInit>

08002ef2 <CopyDataInit>:
 8002ef2:	58d4      	ldr	r4, [r2, r3]
 8002ef4:	50c4      	str	r4, [r0, r3]
 8002ef6:	3304      	adds	r3, #4

08002ef8 <LoopCopyDataInit>:
 8002ef8:	18c4      	adds	r4, r0, r3
 8002efa:	428c      	cmp	r4, r1
 8002efc:	d3f9      	bcc.n	8002ef2 <CopyDataInit>
 8002efe:	4a0a      	ldr	r2, [pc, #40]	; (8002f28 <LoopForever+0x12>)
 8002f00:	4c0a      	ldr	r4, [pc, #40]	; (8002f2c <LoopForever+0x16>)
 8002f02:	2300      	movs	r3, #0
 8002f04:	e001      	b.n	8002f0a <LoopFillZerobss>

08002f06 <FillZerobss>:
 8002f06:	6013      	str	r3, [r2, #0]
 8002f08:	3204      	adds	r2, #4

08002f0a <LoopFillZerobss>:
 8002f0a:	42a2      	cmp	r2, r4
 8002f0c:	d3fb      	bcc.n	8002f06 <FillZerobss>
 8002f0e:	f003 fc27 	bl	8006760 <__libc_init_array>
 8002f12:	f7ff fc97 	bl	8002844 <main>

08002f16 <LoopForever>:
 8002f16:	e7fe      	b.n	8002f16 <LoopForever>
 8002f18:	20001000 	.word	0x20001000
 8002f1c:	20000000 	.word	0x20000000
 8002f20:	20000070 	.word	0x20000070
 8002f24:	08006ae8 	.word	0x08006ae8
 8002f28:	20000070 	.word	0x20000070
 8002f2c:	20000348 	.word	0x20000348

08002f30 <ADC1_IRQHandler>:
 8002f30:	e7fe      	b.n	8002f30 <ADC1_IRQHandler>
	...

08002f34 <HAL_InitTick>:
 8002f34:	b570      	push	{r4, r5, r6, lr}
 8002f36:	0005      	movs	r5, r0
 8002f38:	20fa      	movs	r0, #250	; 0xfa
 8002f3a:	4b0d      	ldr	r3, [pc, #52]	; (8002f70 <HAL_InitTick+0x3c>)
 8002f3c:	0080      	lsls	r0, r0, #2
 8002f3e:	7819      	ldrb	r1, [r3, #0]
 8002f40:	f7fd f900 	bl	8000144 <__udivsi3>
 8002f44:	4c0b      	ldr	r4, [pc, #44]	; (8002f74 <HAL_InitTick+0x40>)
 8002f46:	0001      	movs	r1, r0
 8002f48:	6820      	ldr	r0, [r4, #0]
 8002f4a:	f7fd f8fb 	bl	8000144 <__udivsi3>
 8002f4e:	f000 f86d 	bl	800302c <HAL_SYSTICK_Config>
 8002f52:	0004      	movs	r4, r0
 8002f54:	2001      	movs	r0, #1
 8002f56:	2c00      	cmp	r4, #0
 8002f58:	d109      	bne.n	8002f6e <HAL_InitTick+0x3a>
 8002f5a:	2d03      	cmp	r5, #3
 8002f5c:	d807      	bhi.n	8002f6e <HAL_InitTick+0x3a>
 8002f5e:	3802      	subs	r0, #2
 8002f60:	0022      	movs	r2, r4
 8002f62:	0029      	movs	r1, r5
 8002f64:	f000 f82c 	bl	8002fc0 <HAL_NVIC_SetPriority>
 8002f68:	0020      	movs	r0, r4
 8002f6a:	4b03      	ldr	r3, [pc, #12]	; (8002f78 <HAL_InitTick+0x44>)
 8002f6c:	601d      	str	r5, [r3, #0]
 8002f6e:	bd70      	pop	{r4, r5, r6, pc}
 8002f70:	20000004 	.word	0x20000004
 8002f74:	20000000 	.word	0x20000000
 8002f78:	20000008 	.word	0x20000008

08002f7c <HAL_Init>:
 8002f7c:	2310      	movs	r3, #16
 8002f7e:	4a06      	ldr	r2, [pc, #24]	; (8002f98 <HAL_Init+0x1c>)
 8002f80:	b510      	push	{r4, lr}
 8002f82:	6811      	ldr	r1, [r2, #0]
 8002f84:	2000      	movs	r0, #0
 8002f86:	430b      	orrs	r3, r1
 8002f88:	6013      	str	r3, [r2, #0]
 8002f8a:	f7ff ffd3 	bl	8002f34 <HAL_InitTick>
 8002f8e:	f7ff fec5 	bl	8002d1c <HAL_MspInit>
 8002f92:	2000      	movs	r0, #0
 8002f94:	bd10      	pop	{r4, pc}
 8002f96:	46c0      	nop			; (mov r8, r8)
 8002f98:	40022000 	.word	0x40022000

08002f9c <HAL_IncTick>:
 8002f9c:	4a03      	ldr	r2, [pc, #12]	; (8002fac <HAL_IncTick+0x10>)
 8002f9e:	4b04      	ldr	r3, [pc, #16]	; (8002fb0 <HAL_IncTick+0x14>)
 8002fa0:	6811      	ldr	r1, [r2, #0]
 8002fa2:	781b      	ldrb	r3, [r3, #0]
 8002fa4:	185b      	adds	r3, r3, r1
 8002fa6:	6013      	str	r3, [r2, #0]
 8002fa8:	4770      	bx	lr
 8002faa:	46c0      	nop			; (mov r8, r8)
 8002fac:	2000020c 	.word	0x2000020c
 8002fb0:	20000004 	.word	0x20000004

08002fb4 <HAL_GetTick>:
 8002fb4:	4b01      	ldr	r3, [pc, #4]	; (8002fbc <HAL_GetTick+0x8>)
 8002fb6:	6818      	ldr	r0, [r3, #0]
 8002fb8:	4770      	bx	lr
 8002fba:	46c0      	nop			; (mov r8, r8)
 8002fbc:	2000020c 	.word	0x2000020c

08002fc0 <HAL_NVIC_SetPriority>:
 8002fc0:	b530      	push	{r4, r5, lr}
 8002fc2:	25ff      	movs	r5, #255	; 0xff
 8002fc4:	2403      	movs	r4, #3
 8002fc6:	002a      	movs	r2, r5
 8002fc8:	4004      	ands	r4, r0
 8002fca:	00e4      	lsls	r4, r4, #3
 8002fcc:	40a2      	lsls	r2, r4
 8002fce:	0189      	lsls	r1, r1, #6
 8002fd0:	4029      	ands	r1, r5
 8002fd2:	43d2      	mvns	r2, r2
 8002fd4:	40a1      	lsls	r1, r4
 8002fd6:	b2c3      	uxtb	r3, r0
 8002fd8:	2800      	cmp	r0, #0
 8002fda:	db0a      	blt.n	8002ff2 <HAL_NVIC_SetPriority+0x32>
 8002fdc:	24c0      	movs	r4, #192	; 0xc0
 8002fde:	4b0b      	ldr	r3, [pc, #44]	; (800300c <HAL_NVIC_SetPriority+0x4c>)
 8002fe0:	0880      	lsrs	r0, r0, #2
 8002fe2:	0080      	lsls	r0, r0, #2
 8002fe4:	18c0      	adds	r0, r0, r3
 8002fe6:	00a4      	lsls	r4, r4, #2
 8002fe8:	5903      	ldr	r3, [r0, r4]
 8002fea:	4013      	ands	r3, r2
 8002fec:	430b      	orrs	r3, r1
 8002fee:	5103      	str	r3, [r0, r4]
 8002ff0:	bd30      	pop	{r4, r5, pc}
 8002ff2:	200f      	movs	r0, #15
 8002ff4:	4003      	ands	r3, r0
 8002ff6:	3b08      	subs	r3, #8
 8002ff8:	4805      	ldr	r0, [pc, #20]	; (8003010 <HAL_NVIC_SetPriority+0x50>)
 8002ffa:	089b      	lsrs	r3, r3, #2
 8002ffc:	009b      	lsls	r3, r3, #2
 8002ffe:	181b      	adds	r3, r3, r0
 8003000:	69d8      	ldr	r0, [r3, #28]
 8003002:	4002      	ands	r2, r0
 8003004:	430a      	orrs	r2, r1
 8003006:	61da      	str	r2, [r3, #28]
 8003008:	e7f2      	b.n	8002ff0 <HAL_NVIC_SetPriority+0x30>
 800300a:	46c0      	nop			; (mov r8, r8)
 800300c:	e000e100 	.word	0xe000e100
 8003010:	e000ed00 	.word	0xe000ed00

08003014 <HAL_NVIC_EnableIRQ>:
 8003014:	2800      	cmp	r0, #0
 8003016:	db05      	blt.n	8003024 <HAL_NVIC_EnableIRQ+0x10>
 8003018:	231f      	movs	r3, #31
 800301a:	4018      	ands	r0, r3
 800301c:	3b1e      	subs	r3, #30
 800301e:	4083      	lsls	r3, r0
 8003020:	4a01      	ldr	r2, [pc, #4]	; (8003028 <HAL_NVIC_EnableIRQ+0x14>)
 8003022:	6013      	str	r3, [r2, #0]
 8003024:	4770      	bx	lr
 8003026:	46c0      	nop			; (mov r8, r8)
 8003028:	e000e100 	.word	0xe000e100

0800302c <HAL_SYSTICK_Config>:
 800302c:	2280      	movs	r2, #128	; 0x80
 800302e:	1e43      	subs	r3, r0, #1
 8003030:	0452      	lsls	r2, r2, #17
 8003032:	2001      	movs	r0, #1
 8003034:	4293      	cmp	r3, r2
 8003036:	d20d      	bcs.n	8003054 <HAL_SYSTICK_Config+0x28>
 8003038:	21c0      	movs	r1, #192	; 0xc0
 800303a:	4a07      	ldr	r2, [pc, #28]	; (8003058 <HAL_SYSTICK_Config+0x2c>)
 800303c:	4807      	ldr	r0, [pc, #28]	; (800305c <HAL_SYSTICK_Config+0x30>)
 800303e:	6053      	str	r3, [r2, #4]
 8003040:	6a03      	ldr	r3, [r0, #32]
 8003042:	0609      	lsls	r1, r1, #24
 8003044:	021b      	lsls	r3, r3, #8
 8003046:	0a1b      	lsrs	r3, r3, #8
 8003048:	430b      	orrs	r3, r1
 800304a:	6203      	str	r3, [r0, #32]
 800304c:	2000      	movs	r0, #0
 800304e:	2307      	movs	r3, #7
 8003050:	6090      	str	r0, [r2, #8]
 8003052:	6013      	str	r3, [r2, #0]
 8003054:	4770      	bx	lr
 8003056:	46c0      	nop			; (mov r8, r8)
 8003058:	e000e010 	.word	0xe000e010
 800305c:	e000ed00 	.word	0xe000ed00

08003060 <HAL_DMA_Abort>:
 8003060:	b530      	push	{r4, r5, lr}
 8003062:	1c84      	adds	r4, r0, #2
 8003064:	7fe2      	ldrb	r2, [r4, #31]
 8003066:	0003      	movs	r3, r0
 8003068:	2a02      	cmp	r2, #2
 800306a:	d006      	beq.n	800307a <HAL_DMA_Abort+0x1a>
 800306c:	2204      	movs	r2, #4
 800306e:	6382      	str	r2, [r0, #56]	; 0x38
 8003070:	2001      	movs	r0, #1
 8003072:	2200      	movs	r2, #0
 8003074:	3301      	adds	r3, #1
 8003076:	77da      	strb	r2, [r3, #31]
 8003078:	bd30      	pop	{r4, r5, pc}
 800307a:	6802      	ldr	r2, [r0, #0]
 800307c:	200e      	movs	r0, #14
 800307e:	6811      	ldr	r1, [r2, #0]
 8003080:	4381      	bics	r1, r0
 8003082:	6011      	str	r1, [r2, #0]
 8003084:	2101      	movs	r1, #1
 8003086:	000d      	movs	r5, r1
 8003088:	6810      	ldr	r0, [r2, #0]
 800308a:	4388      	bics	r0, r1
 800308c:	6010      	str	r0, [r2, #0]
 800308e:	6c18      	ldr	r0, [r3, #64]	; 0x40
 8003090:	6bda      	ldr	r2, [r3, #60]	; 0x3c
 8003092:	4085      	lsls	r5, r0
 8003094:	2000      	movs	r0, #0
 8003096:	6055      	str	r5, [r2, #4]
 8003098:	77e1      	strb	r1, [r4, #31]
 800309a:	e7ea      	b.n	8003072 <HAL_DMA_Abort+0x12>

0800309c <HAL_DMA_Abort_IT>:
 800309c:	b570      	push	{r4, r5, r6, lr}
 800309e:	1c84      	adds	r4, r0, #2
 80030a0:	7fe3      	ldrb	r3, [r4, #31]
 80030a2:	2b02      	cmp	r3, #2
 80030a4:	d004      	beq.n	80030b0 <HAL_DMA_Abort_IT+0x14>
 80030a6:	2304      	movs	r3, #4
 80030a8:	6383      	str	r3, [r0, #56]	; 0x38
 80030aa:	3b03      	subs	r3, #3
 80030ac:	0018      	movs	r0, r3
 80030ae:	bd70      	pop	{r4, r5, r6, pc}
 80030b0:	210e      	movs	r1, #14
 80030b2:	6803      	ldr	r3, [r0, #0]
 80030b4:	681a      	ldr	r2, [r3, #0]
 80030b6:	438a      	bics	r2, r1
 80030b8:	601a      	str	r2, [r3, #0]
 80030ba:	2201      	movs	r2, #1
 80030bc:	0015      	movs	r5, r2
 80030be:	6819      	ldr	r1, [r3, #0]
 80030c0:	4391      	bics	r1, r2
 80030c2:	6019      	str	r1, [r3, #0]
 80030c4:	6c01      	ldr	r1, [r0, #64]	; 0x40
 80030c6:	6bc3      	ldr	r3, [r0, #60]	; 0x3c
 80030c8:	408d      	lsls	r5, r1
 80030ca:	605d      	str	r5, [r3, #4]
 80030cc:	77e2      	strb	r2, [r4, #31]
 80030ce:	2400      	movs	r4, #0
 80030d0:	1883      	adds	r3, r0, r2
 80030d2:	77dc      	strb	r4, [r3, #31]
 80030d4:	6b42      	ldr	r2, [r0, #52]	; 0x34
 80030d6:	0013      	movs	r3, r2
 80030d8:	42a2      	cmp	r2, r4
 80030da:	d0e7      	beq.n	80030ac <HAL_DMA_Abort_IT+0x10>
 80030dc:	4790      	blx	r2
 80030de:	0023      	movs	r3, r4
 80030e0:	e7e4      	b.n	80030ac <HAL_DMA_Abort_IT+0x10>
	...

080030e4 <HAL_GPIO_Init>:
 80030e4:	2300      	movs	r3, #0
 80030e6:	b5f0      	push	{r4, r5, r6, r7, lr}
 80030e8:	b087      	sub	sp, #28
 80030ea:	680a      	ldr	r2, [r1, #0]
 80030ec:	0014      	movs	r4, r2
 80030ee:	40dc      	lsrs	r4, r3
 80030f0:	d101      	bne.n	80030f6 <HAL_GPIO_Init+0x12>
 80030f2:	b007      	add	sp, #28
 80030f4:	bdf0      	pop	{r4, r5, r6, r7, pc}
 80030f6:	2501      	movs	r5, #1
 80030f8:	0014      	movs	r4, r2
 80030fa:	409d      	lsls	r5, r3
 80030fc:	402c      	ands	r4, r5
 80030fe:	9400      	str	r4, [sp, #0]
 8003100:	422a      	tst	r2, r5
 8003102:	d100      	bne.n	8003106 <HAL_GPIO_Init+0x22>
 8003104:	e094      	b.n	8003230 <HAL_GPIO_Init+0x14c>
 8003106:	684a      	ldr	r2, [r1, #4]
 8003108:	005f      	lsls	r7, r3, #1
 800310a:	4694      	mov	ip, r2
 800310c:	2203      	movs	r2, #3
 800310e:	4664      	mov	r4, ip
 8003110:	4022      	ands	r2, r4
 8003112:	2403      	movs	r4, #3
 8003114:	40bc      	lsls	r4, r7
 8003116:	43e4      	mvns	r4, r4
 8003118:	9401      	str	r4, [sp, #4]
 800311a:	1e54      	subs	r4, r2, #1
 800311c:	2c01      	cmp	r4, #1
 800311e:	d82e      	bhi.n	800317e <HAL_GPIO_Init+0x9a>
 8003120:	6886      	ldr	r6, [r0, #8]
 8003122:	9c01      	ldr	r4, [sp, #4]
 8003124:	4026      	ands	r6, r4
 8003126:	68cc      	ldr	r4, [r1, #12]
 8003128:	40bc      	lsls	r4, r7
 800312a:	4334      	orrs	r4, r6
 800312c:	6084      	str	r4, [r0, #8]
 800312e:	6844      	ldr	r4, [r0, #4]
 8003130:	2601      	movs	r6, #1
 8003132:	43ac      	bics	r4, r5
 8003134:	0025      	movs	r5, r4
 8003136:	4664      	mov	r4, ip
 8003138:	0924      	lsrs	r4, r4, #4
 800313a:	4034      	ands	r4, r6
 800313c:	409c      	lsls	r4, r3
 800313e:	432c      	orrs	r4, r5
 8003140:	6044      	str	r4, [r0, #4]
 8003142:	68c5      	ldr	r5, [r0, #12]
 8003144:	9c01      	ldr	r4, [sp, #4]
 8003146:	4025      	ands	r5, r4
 8003148:	688c      	ldr	r4, [r1, #8]
 800314a:	40bc      	lsls	r4, r7
 800314c:	432c      	orrs	r4, r5
 800314e:	60c4      	str	r4, [r0, #12]
 8003150:	2a02      	cmp	r2, #2
 8003152:	d116      	bne.n	8003182 <HAL_GPIO_Init+0x9e>
 8003154:	2507      	movs	r5, #7
 8003156:	260f      	movs	r6, #15
 8003158:	401d      	ands	r5, r3
 800315a:	00ad      	lsls	r5, r5, #2
 800315c:	40ae      	lsls	r6, r5
 800315e:	08dc      	lsrs	r4, r3, #3
 8003160:	00a4      	lsls	r4, r4, #2
 8003162:	1904      	adds	r4, r0, r4
 8003164:	9402      	str	r4, [sp, #8]
 8003166:	6a24      	ldr	r4, [r4, #32]
 8003168:	9603      	str	r6, [sp, #12]
 800316a:	0026      	movs	r6, r4
 800316c:	9c03      	ldr	r4, [sp, #12]
 800316e:	43a6      	bics	r6, r4
 8003170:	0034      	movs	r4, r6
 8003172:	690e      	ldr	r6, [r1, #16]
 8003174:	40ae      	lsls	r6, r5
 8003176:	4326      	orrs	r6, r4
 8003178:	9c02      	ldr	r4, [sp, #8]
 800317a:	6226      	str	r6, [r4, #32]
 800317c:	e001      	b.n	8003182 <HAL_GPIO_Init+0x9e>
 800317e:	2a03      	cmp	r2, #3
 8003180:	d1df      	bne.n	8003142 <HAL_GPIO_Init+0x5e>
 8003182:	40ba      	lsls	r2, r7
 8003184:	6804      	ldr	r4, [r0, #0]
 8003186:	9d01      	ldr	r5, [sp, #4]
 8003188:	4025      	ands	r5, r4
 800318a:	432a      	orrs	r2, r5
 800318c:	24c0      	movs	r4, #192	; 0xc0
 800318e:	6002      	str	r2, [r0, #0]
 8003190:	4662      	mov	r2, ip
 8003192:	02a4      	lsls	r4, r4, #10
 8003194:	4222      	tst	r2, r4
 8003196:	d04b      	beq.n	8003230 <HAL_GPIO_Init+0x14c>
 8003198:	2501      	movs	r5, #1
 800319a:	4a26      	ldr	r2, [pc, #152]	; (8003234 <HAL_GPIO_Init+0x150>)
 800319c:	2790      	movs	r7, #144	; 0x90
 800319e:	6994      	ldr	r4, [r2, #24]
 80031a0:	05ff      	lsls	r7, r7, #23
 80031a2:	432c      	orrs	r4, r5
 80031a4:	6194      	str	r4, [r2, #24]
 80031a6:	6992      	ldr	r2, [r2, #24]
 80031a8:	089c      	lsrs	r4, r3, #2
 80031aa:	402a      	ands	r2, r5
 80031ac:	9205      	str	r2, [sp, #20]
 80031ae:	9a05      	ldr	r2, [sp, #20]
 80031b0:	4a21      	ldr	r2, [pc, #132]	; (8003238 <HAL_GPIO_Init+0x154>)
 80031b2:	00a4      	lsls	r4, r4, #2
 80031b4:	18a4      	adds	r4, r4, r2
 80031b6:	220f      	movs	r2, #15
 80031b8:	3502      	adds	r5, #2
 80031ba:	401d      	ands	r5, r3
 80031bc:	00ad      	lsls	r5, r5, #2
 80031be:	40aa      	lsls	r2, r5
 80031c0:	68a6      	ldr	r6, [r4, #8]
 80031c2:	4396      	bics	r6, r2
 80031c4:	2200      	movs	r2, #0
 80031c6:	42b8      	cmp	r0, r7
 80031c8:	d008      	beq.n	80031dc <HAL_GPIO_Init+0xf8>
 80031ca:	4f1c      	ldr	r7, [pc, #112]	; (800323c <HAL_GPIO_Init+0x158>)
 80031cc:	3201      	adds	r2, #1
 80031ce:	42b8      	cmp	r0, r7
 80031d0:	d004      	beq.n	80031dc <HAL_GPIO_Init+0xf8>
 80031d2:	4f1b      	ldr	r7, [pc, #108]	; (8003240 <HAL_GPIO_Init+0x15c>)
 80031d4:	3201      	adds	r2, #1
 80031d6:	42b8      	cmp	r0, r7
 80031d8:	d000      	beq.n	80031dc <HAL_GPIO_Init+0xf8>
 80031da:	3203      	adds	r2, #3
 80031dc:	40aa      	lsls	r2, r5
 80031de:	4667      	mov	r7, ip
 80031e0:	4332      	orrs	r2, r6
 80031e2:	60a2      	str	r2, [r4, #8]
 80031e4:	4a17      	ldr	r2, [pc, #92]	; (8003244 <HAL_GPIO_Init+0x160>)
 80031e6:	9c00      	ldr	r4, [sp, #0]
 80031e8:	6896      	ldr	r6, [r2, #8]
 80031ea:	9d00      	ldr	r5, [sp, #0]
 80031ec:	43e4      	mvns	r4, r4
 80031ee:	4335      	orrs	r5, r6
 80031f0:	02ff      	lsls	r7, r7, #11
 80031f2:	d401      	bmi.n	80031f8 <HAL_GPIO_Init+0x114>
 80031f4:	0035      	movs	r5, r6
 80031f6:	4025      	ands	r5, r4
 80031f8:	4667      	mov	r7, ip
 80031fa:	6095      	str	r5, [r2, #8]
 80031fc:	68d6      	ldr	r6, [r2, #12]
 80031fe:	9d00      	ldr	r5, [sp, #0]
 8003200:	4335      	orrs	r5, r6
 8003202:	02bf      	lsls	r7, r7, #10
 8003204:	d401      	bmi.n	800320a <HAL_GPIO_Init+0x126>
 8003206:	0035      	movs	r5, r6
 8003208:	4025      	ands	r5, r4
 800320a:	4667      	mov	r7, ip
 800320c:	60d5      	str	r5, [r2, #12]
 800320e:	6856      	ldr	r6, [r2, #4]
 8003210:	9d00      	ldr	r5, [sp, #0]
 8003212:	4335      	orrs	r5, r6
 8003214:	03bf      	lsls	r7, r7, #14
 8003216:	d401      	bmi.n	800321c <HAL_GPIO_Init+0x138>
 8003218:	0035      	movs	r5, r6
 800321a:	4025      	ands	r5, r4
 800321c:	4667      	mov	r7, ip
 800321e:	6055      	str	r5, [r2, #4]
 8003220:	6815      	ldr	r5, [r2, #0]
 8003222:	9e00      	ldr	r6, [sp, #0]
 8003224:	432e      	orrs	r6, r5
 8003226:	03ff      	lsls	r7, r7, #15
 8003228:	d401      	bmi.n	800322e <HAL_GPIO_Init+0x14a>
 800322a:	4025      	ands	r5, r4
 800322c:	002e      	movs	r6, r5
 800322e:	6016      	str	r6, [r2, #0]
 8003230:	3301      	adds	r3, #1
 8003232:	e75a      	b.n	80030ea <HAL_GPIO_Init+0x6>
 8003234:	40021000 	.word	0x40021000
 8003238:	40010000 	.word	0x40010000
 800323c:	48000400 	.word	0x48000400
 8003240:	48000800 	.word	0x48000800
 8003244:	40010400 	.word	0x40010400

08003248 <HAL_GPIO_ReadPin>:
 8003248:	6900      	ldr	r0, [r0, #16]
 800324a:	4008      	ands	r0, r1
 800324c:	1e43      	subs	r3, r0, #1
 800324e:	4198      	sbcs	r0, r3
 8003250:	b2c0      	uxtb	r0, r0
 8003252:	4770      	bx	lr

08003254 <HAL_GPIO_WritePin>:
 8003254:	2a00      	cmp	r2, #0
 8003256:	d001      	beq.n	800325c <HAL_GPIO_WritePin+0x8>
 8003258:	6181      	str	r1, [r0, #24]
 800325a:	4770      	bx	lr
 800325c:	6281      	str	r1, [r0, #40]	; 0x28
 800325e:	e7fc      	b.n	800325a <HAL_GPIO_WritePin+0x6>

08003260 <HAL_GPIO_TogglePin>:
 8003260:	6942      	ldr	r2, [r0, #20]
 8003262:	0013      	movs	r3, r2
 8003264:	400b      	ands	r3, r1
 8003266:	041b      	lsls	r3, r3, #16
 8003268:	4391      	bics	r1, r2
 800326a:	430b      	orrs	r3, r1
 800326c:	6183      	str	r3, [r0, #24]
 800326e:	4770      	bx	lr

08003270 <HAL_GPIO_EXTI_IRQHandler>:
 8003270:	4b04      	ldr	r3, [pc, #16]	; (8003284 <HAL_GPIO_EXTI_IRQHandler+0x14>)
 8003272:	b510      	push	{r4, lr}
 8003274:	695a      	ldr	r2, [r3, #20]
 8003276:	4210      	tst	r0, r2
 8003278:	d002      	beq.n	8003280 <HAL_GPIO_EXTI_IRQHandler+0x10>
 800327a:	6158      	str	r0, [r3, #20]
 800327c:	f7ff fc26 	bl	8002acc <HAL_GPIO_EXTI_Callback>
 8003280:	bd10      	pop	{r4, pc}
 8003282:	46c0      	nop			; (mov r8, r8)
 8003284:	40010400 	.word	0x40010400

08003288 <I2C_Flush_TXDR>:
 8003288:	6803      	ldr	r3, [r0, #0]
 800328a:	699a      	ldr	r2, [r3, #24]
 800328c:	0792      	lsls	r2, r2, #30
 800328e:	d501      	bpl.n	8003294 <I2C_Flush_TXDR+0xc>
 8003290:	2200      	movs	r2, #0
 8003292:	629a      	str	r2, [r3, #40]	; 0x28
 8003294:	2201      	movs	r2, #1
 8003296:	6999      	ldr	r1, [r3, #24]
 8003298:	4211      	tst	r1, r2
 800329a:	d102      	bne.n	80032a2 <I2C_Flush_TXDR+0x1a>
 800329c:	6999      	ldr	r1, [r3, #24]
 800329e:	430a      	orrs	r2, r1
 80032a0:	619a      	str	r2, [r3, #24]
 80032a2:	4770      	bx	lr

080032a4 <I2C_TransferConfig>:
 80032a4:	b530      	push	{r4, r5, lr}
 80032a6:	9c03      	ldr	r4, [sp, #12]
 80032a8:	6800      	ldr	r0, [r0, #0]
 80032aa:	4323      	orrs	r3, r4
 80032ac:	0412      	lsls	r2, r2, #16
 80032ae:	0589      	lsls	r1, r1, #22
 80032b0:	431a      	orrs	r2, r3
 80032b2:	0d89      	lsrs	r1, r1, #22
 80032b4:	4b05      	ldr	r3, [pc, #20]	; (80032cc <I2C_TransferConfig+0x28>)
 80032b6:	6845      	ldr	r5, [r0, #4]
 80032b8:	430a      	orrs	r2, r1
 80032ba:	0d64      	lsrs	r4, r4, #21
 80032bc:	4323      	orrs	r3, r4
 80032be:	0052      	lsls	r2, r2, #1
 80032c0:	439d      	bics	r5, r3
 80032c2:	0852      	lsrs	r2, r2, #1
 80032c4:	432a      	orrs	r2, r5
 80032c6:	6042      	str	r2, [r0, #4]
 80032c8:	bd30      	pop	{r4, r5, pc}
 80032ca:	46c0      	nop			; (mov r8, r8)
 80032cc:	03ff63ff 	.word	0x03ff63ff

080032d0 <I2C_IsErrorOccurred>:
 80032d0:	b5f7      	push	{r0, r1, r2, r4, r5, r6, r7, lr}
 80032d2:	0015      	movs	r5, r2
 80032d4:	6802      	ldr	r2, [r0, #0]
 80032d6:	000e      	movs	r6, r1
 80032d8:	6991      	ldr	r1, [r2, #24]
 80032da:	2310      	movs	r3, #16
 80032dc:	000f      	movs	r7, r1
 80032de:	0004      	movs	r4, r0
 80032e0:	401f      	ands	r7, r3
 80032e2:	2000      	movs	r0, #0
 80032e4:	4219      	tst	r1, r3
 80032e6:	d00e      	beq.n	8003306 <I2C_IsErrorOccurred+0x36>
 80032e8:	2720      	movs	r7, #32
 80032ea:	61d3      	str	r3, [r2, #28]
 80032ec:	9000      	str	r0, [sp, #0]
 80032ee:	9001      	str	r0, [sp, #4]
 80032f0:	6823      	ldr	r3, [r4, #0]
 80032f2:	699a      	ldr	r2, [r3, #24]
 80032f4:	423a      	tst	r2, r7
 80032f6:	d163      	bne.n	80033c0 <I2C_IsErrorOccurred+0xf0>
 80032f8:	9a01      	ldr	r2, [sp, #4]
 80032fa:	2a00      	cmp	r2, #0
 80032fc:	d031      	beq.n	8003362 <I2C_IsErrorOccurred+0x92>
 80032fe:	2704      	movs	r7, #4
 8003300:	2001      	movs	r0, #1
 8003302:	9b00      	ldr	r3, [sp, #0]
 8003304:	431f      	orrs	r7, r3
 8003306:	2280      	movs	r2, #128	; 0x80
 8003308:	6825      	ldr	r5, [r4, #0]
 800330a:	0052      	lsls	r2, r2, #1
 800330c:	69ab      	ldr	r3, [r5, #24]
 800330e:	4213      	tst	r3, r2
 8003310:	d002      	beq.n	8003318 <I2C_IsErrorOccurred+0x48>
 8003312:	2001      	movs	r0, #1
 8003314:	61ea      	str	r2, [r5, #28]
 8003316:	4307      	orrs	r7, r0
 8003318:	2280      	movs	r2, #128	; 0x80
 800331a:	00d2      	lsls	r2, r2, #3
 800331c:	4213      	tst	r3, r2
 800331e:	d003      	beq.n	8003328 <I2C_IsErrorOccurred+0x58>
 8003320:	2108      	movs	r1, #8
 8003322:	2001      	movs	r0, #1
 8003324:	430f      	orrs	r7, r1
 8003326:	61ea      	str	r2, [r5, #28]
 8003328:	2280      	movs	r2, #128	; 0x80
 800332a:	0092      	lsls	r2, r2, #2
 800332c:	4213      	tst	r3, r2
 800332e:	d04c      	beq.n	80033ca <I2C_IsErrorOccurred+0xfa>
 8003330:	2302      	movs	r3, #2
 8003332:	61ea      	str	r2, [r5, #28]
 8003334:	431f      	orrs	r7, r3
 8003336:	0020      	movs	r0, r4
 8003338:	f7ff ffa6 	bl	8003288 <I2C_Flush_TXDR>
 800333c:	686b      	ldr	r3, [r5, #4]
 800333e:	4a24      	ldr	r2, [pc, #144]	; (80033d0 <I2C_IsErrorOccurred+0x100>)
 8003340:	2001      	movs	r0, #1
 8003342:	4013      	ands	r3, r2
 8003344:	606b      	str	r3, [r5, #4]
 8003346:	6c63      	ldr	r3, [r4, #68]	; 0x44
 8003348:	2220      	movs	r2, #32
 800334a:	433b      	orrs	r3, r7
 800334c:	6463      	str	r3, [r4, #68]	; 0x44
 800334e:	0023      	movs	r3, r4
 8003350:	3341      	adds	r3, #65	; 0x41
 8003352:	701a      	strb	r2, [r3, #0]
 8003354:	0022      	movs	r2, r4
 8003356:	2300      	movs	r3, #0
 8003358:	3242      	adds	r2, #66	; 0x42
 800335a:	3440      	adds	r4, #64	; 0x40
 800335c:	7013      	strb	r3, [r2, #0]
 800335e:	7023      	strb	r3, [r4, #0]
 8003360:	e035      	b.n	80033ce <I2C_IsErrorOccurred+0xfe>
 8003362:	1c72      	adds	r2, r6, #1
 8003364:	d0c5      	beq.n	80032f2 <I2C_IsErrorOccurred+0x22>
 8003366:	f7ff fe25 	bl	8002fb4 <HAL_GetTick>
 800336a:	1b40      	subs	r0, r0, r5
 800336c:	42b0      	cmp	r0, r6
 800336e:	d801      	bhi.n	8003374 <I2C_IsErrorOccurred+0xa4>
 8003370:	2e00      	cmp	r6, #0
 8003372:	d1bd      	bne.n	80032f0 <I2C_IsErrorOccurred+0x20>
 8003374:	0022      	movs	r2, r4
 8003376:	6823      	ldr	r3, [r4, #0]
 8003378:	3242      	adds	r2, #66	; 0x42
 800337a:	6858      	ldr	r0, [r3, #4]
 800337c:	7811      	ldrb	r1, [r2, #0]
 800337e:	b2ca      	uxtb	r2, r1
 8003380:	2180      	movs	r1, #128	; 0x80
 8003382:	4694      	mov	ip, r2
 8003384:	699a      	ldr	r2, [r3, #24]
 8003386:	0209      	lsls	r1, r1, #8
 8003388:	420a      	tst	r2, r1
 800338a:	d00c      	beq.n	80033a6 <I2C_IsErrorOccurred+0xd6>
 800338c:	2280      	movs	r2, #128	; 0x80
 800338e:	01d2      	lsls	r2, r2, #7
 8003390:	4210      	tst	r0, r2
 8003392:	d108      	bne.n	80033a6 <I2C_IsErrorOccurred+0xd6>
 8003394:	4661      	mov	r1, ip
 8003396:	2920      	cmp	r1, #32
 8003398:	d005      	beq.n	80033a6 <I2C_IsErrorOccurred+0xd6>
 800339a:	6859      	ldr	r1, [r3, #4]
 800339c:	430a      	orrs	r2, r1
 800339e:	605a      	str	r2, [r3, #4]
 80033a0:	f7ff fe08 	bl	8002fb4 <HAL_GetTick>
 80033a4:	0005      	movs	r5, r0
 80033a6:	6823      	ldr	r3, [r4, #0]
 80033a8:	699b      	ldr	r3, [r3, #24]
 80033aa:	423b      	tst	r3, r7
 80033ac:	d1a0      	bne.n	80032f0 <I2C_IsErrorOccurred+0x20>
 80033ae:	f7ff fe01 	bl	8002fb4 <HAL_GetTick>
 80033b2:	1b40      	subs	r0, r0, r5
 80033b4:	2819      	cmp	r0, #25
 80033b6:	d9f6      	bls.n	80033a6 <I2C_IsErrorOccurred+0xd6>
 80033b8:	2301      	movs	r3, #1
 80033ba:	9700      	str	r7, [sp, #0]
 80033bc:	9301      	str	r3, [sp, #4]
 80033be:	e797      	b.n	80032f0 <I2C_IsErrorOccurred+0x20>
 80033c0:	9a01      	ldr	r2, [sp, #4]
 80033c2:	2a00      	cmp	r2, #0
 80033c4:	d19b      	bne.n	80032fe <I2C_IsErrorOccurred+0x2e>
 80033c6:	61df      	str	r7, [r3, #28]
 80033c8:	e799      	b.n	80032fe <I2C_IsErrorOccurred+0x2e>
 80033ca:	2800      	cmp	r0, #0
 80033cc:	d1b3      	bne.n	8003336 <I2C_IsErrorOccurred+0x66>
 80033ce:	bdfe      	pop	{r1, r2, r3, r4, r5, r6, r7, pc}
 80033d0:	fe00e800 	.word	0xfe00e800

080033d4 <I2C_WaitOnTXISFlagUntilTimeout>:
 80033d4:	b5f8      	push	{r3, r4, r5, r6, r7, lr}
 80033d6:	0004      	movs	r4, r0
 80033d8:	000d      	movs	r5, r1
 80033da:	0016      	movs	r6, r2
 80033dc:	2702      	movs	r7, #2
 80033de:	6823      	ldr	r3, [r4, #0]
 80033e0:	699b      	ldr	r3, [r3, #24]
 80033e2:	423b      	tst	r3, r7
 80033e4:	d001      	beq.n	80033ea <I2C_WaitOnTXISFlagUntilTimeout+0x16>
 80033e6:	2000      	movs	r0, #0
 80033e8:	bdf8      	pop	{r3, r4, r5, r6, r7, pc}
 80033ea:	0032      	movs	r2, r6
 80033ec:	0029      	movs	r1, r5
 80033ee:	0020      	movs	r0, r4
 80033f0:	f7ff ff6e 	bl	80032d0 <I2C_IsErrorOccurred>
 80033f4:	2800      	cmp	r0, #0
 80033f6:	d118      	bne.n	800342a <I2C_WaitOnTXISFlagUntilTimeout+0x56>
 80033f8:	1c6b      	adds	r3, r5, #1
 80033fa:	d0f0      	beq.n	80033de <I2C_WaitOnTXISFlagUntilTimeout+0xa>
 80033fc:	f7ff fdda 	bl	8002fb4 <HAL_GetTick>
 8003400:	1b80      	subs	r0, r0, r6
 8003402:	42a8      	cmp	r0, r5
 8003404:	d801      	bhi.n	800340a <I2C_WaitOnTXISFlagUntilTimeout+0x36>
 8003406:	2d00      	cmp	r5, #0
 8003408:	d1e9      	bne.n	80033de <I2C_WaitOnTXISFlagUntilTimeout+0xa>
 800340a:	6823      	ldr	r3, [r4, #0]
 800340c:	699b      	ldr	r3, [r3, #24]
 800340e:	001a      	movs	r2, r3
 8003410:	403a      	ands	r2, r7
 8003412:	423b      	tst	r3, r7
 8003414:	d1e3      	bne.n	80033de <I2C_WaitOnTXISFlagUntilTimeout+0xa>
 8003416:	2120      	movs	r1, #32
 8003418:	6c63      	ldr	r3, [r4, #68]	; 0x44
 800341a:	430b      	orrs	r3, r1
 800341c:	6463      	str	r3, [r4, #68]	; 0x44
 800341e:	0023      	movs	r3, r4
 8003420:	3440      	adds	r4, #64	; 0x40
 8003422:	3341      	adds	r3, #65	; 0x41
 8003424:	7019      	strb	r1, [r3, #0]
 8003426:	705a      	strb	r2, [r3, #1]
 8003428:	7022      	strb	r2, [r4, #0]
 800342a:	2001      	movs	r0, #1
 800342c:	e7dc      	b.n	80033e8 <I2C_WaitOnTXISFlagUntilTimeout+0x14>

0800342e <I2C_WaitOnFlagUntilTimeout>:
 800342e:	b5f8      	push	{r3, r4, r5, r6, r7, lr}
 8003430:	0004      	movs	r4, r0
 8003432:	000d      	movs	r5, r1
 8003434:	0017      	movs	r7, r2
 8003436:	001e      	movs	r6, r3
 8003438:	6822      	ldr	r2, [r4, #0]
 800343a:	6993      	ldr	r3, [r2, #24]
 800343c:	402b      	ands	r3, r5
 800343e:	1b5b      	subs	r3, r3, r5
 8003440:	4259      	negs	r1, r3
 8003442:	414b      	adcs	r3, r1
 8003444:	42bb      	cmp	r3, r7
 8003446:	d001      	beq.n	800344c <I2C_WaitOnFlagUntilTimeout+0x1e>
 8003448:	2000      	movs	r0, #0
 800344a:	e01f      	b.n	800348c <I2C_WaitOnFlagUntilTimeout+0x5e>
 800344c:	1c73      	adds	r3, r6, #1
 800344e:	d0f4      	beq.n	800343a <I2C_WaitOnFlagUntilTimeout+0xc>
 8003450:	f7ff fdb0 	bl	8002fb4 <HAL_GetTick>
 8003454:	9b06      	ldr	r3, [sp, #24]
 8003456:	1ac0      	subs	r0, r0, r3
 8003458:	42b0      	cmp	r0, r6
 800345a:	d801      	bhi.n	8003460 <I2C_WaitOnFlagUntilTimeout+0x32>
 800345c:	2e00      	cmp	r6, #0
 800345e:	d1eb      	bne.n	8003438 <I2C_WaitOnFlagUntilTimeout+0xa>
 8003460:	6823      	ldr	r3, [r4, #0]
 8003462:	699b      	ldr	r3, [r3, #24]
 8003464:	402b      	ands	r3, r5
 8003466:	1b5b      	subs	r3, r3, r5
 8003468:	425a      	negs	r2, r3
 800346a:	4153      	adcs	r3, r2
 800346c:	42bb      	cmp	r3, r7
 800346e:	d1e3      	bne.n	8003438 <I2C_WaitOnFlagUntilTimeout+0xa>
 8003470:	2220      	movs	r2, #32
 8003472:	6c63      	ldr	r3, [r4, #68]	; 0x44
 8003474:	2001      	movs	r0, #1
 8003476:	4313      	orrs	r3, r2
 8003478:	6463      	str	r3, [r4, #68]	; 0x44
 800347a:	0023      	movs	r3, r4
 800347c:	3341      	adds	r3, #65	; 0x41
 800347e:	701a      	strb	r2, [r3, #0]
 8003480:	0022      	movs	r2, r4
 8003482:	2300      	movs	r3, #0
 8003484:	3242      	adds	r2, #66	; 0x42
 8003486:	3440      	adds	r4, #64	; 0x40
 8003488:	7013      	strb	r3, [r2, #0]
 800348a:	7023      	strb	r3, [r4, #0]
 800348c:	bdf8      	pop	{r3, r4, r5, r6, r7, pc}

0800348e <I2C_WaitOnSTOPFlagUntilTimeout>:
 800348e:	b5f8      	push	{r3, r4, r5, r6, r7, lr}
 8003490:	0004      	movs	r4, r0
 8003492:	000e      	movs	r6, r1
 8003494:	0017      	movs	r7, r2
 8003496:	2520      	movs	r5, #32
 8003498:	6823      	ldr	r3, [r4, #0]
 800349a:	699b      	ldr	r3, [r3, #24]
 800349c:	422b      	tst	r3, r5
 800349e:	d001      	beq.n	80034a4 <I2C_WaitOnSTOPFlagUntilTimeout+0x16>
 80034a0:	2000      	movs	r0, #0
 80034a2:	bdf8      	pop	{r3, r4, r5, r6, r7, pc}
 80034a4:	003a      	movs	r2, r7
 80034a6:	0031      	movs	r1, r6
 80034a8:	0020      	movs	r0, r4
 80034aa:	f7ff ff11 	bl	80032d0 <I2C_IsErrorOccurred>
 80034ae:	2800      	cmp	r0, #0
 80034b0:	d115      	bne.n	80034de <I2C_WaitOnSTOPFlagUntilTimeout+0x50>
 80034b2:	f7ff fd7f 	bl	8002fb4 <HAL_GetTick>
 80034b6:	1bc0      	subs	r0, r0, r7
 80034b8:	42b0      	cmp	r0, r6
 80034ba:	d801      	bhi.n	80034c0 <I2C_WaitOnSTOPFlagUntilTimeout+0x32>
 80034bc:	2e00      	cmp	r6, #0
 80034be:	d1eb      	bne.n	8003498 <I2C_WaitOnSTOPFlagUntilTimeout+0xa>
 80034c0:	6823      	ldr	r3, [r4, #0]
 80034c2:	699b      	ldr	r3, [r3, #24]
 80034c4:	001a      	movs	r2, r3
 80034c6:	402a      	ands	r2, r5
 80034c8:	422b      	tst	r3, r5
 80034ca:	d1e5      	bne.n	8003498 <I2C_WaitOnSTOPFlagUntilTimeout+0xa>
 80034cc:	6c63      	ldr	r3, [r4, #68]	; 0x44
 80034ce:	432b      	orrs	r3, r5
 80034d0:	6463      	str	r3, [r4, #68]	; 0x44
 80034d2:	0023      	movs	r3, r4
 80034d4:	3440      	adds	r4, #64	; 0x40
 80034d6:	3341      	adds	r3, #65	; 0x41
 80034d8:	701d      	strb	r5, [r3, #0]
 80034da:	705a      	strb	r2, [r3, #1]
 80034dc:	7022      	strb	r2, [r4, #0]
 80034de:	2001      	movs	r0, #1
 80034e0:	e7df      	b.n	80034a2 <I2C_WaitOnSTOPFlagUntilTimeout+0x14>
	...

080034e4 <HAL_I2C_Init>:
 80034e4:	b570      	push	{r4, r5, r6, lr}
 80034e6:	0004      	movs	r4, r0
 80034e8:	2001      	movs	r0, #1
 80034ea:	2c00      	cmp	r4, #0
 80034ec:	d03f      	beq.n	800356e <HAL_I2C_Init+0x8a>
 80034ee:	0025      	movs	r5, r4
 80034f0:	3541      	adds	r5, #65	; 0x41
 80034f2:	782b      	ldrb	r3, [r5, #0]
 80034f4:	b2da      	uxtb	r2, r3
 80034f6:	2b00      	cmp	r3, #0
 80034f8:	d105      	bne.n	8003506 <HAL_I2C_Init+0x22>
 80034fa:	0023      	movs	r3, r4
 80034fc:	3340      	adds	r3, #64	; 0x40
 80034fe:	0020      	movs	r0, r4
 8003500:	701a      	strb	r2, [r3, #0]
 8003502:	f7ff fc23 	bl	8002d4c <HAL_I2C_MspInit>
 8003506:	2324      	movs	r3, #36	; 0x24
 8003508:	2101      	movs	r1, #1
 800350a:	702b      	strb	r3, [r5, #0]
 800350c:	6823      	ldr	r3, [r4, #0]
 800350e:	68e0      	ldr	r0, [r4, #12]
 8003510:	681a      	ldr	r2, [r3, #0]
 8003512:	68a6      	ldr	r6, [r4, #8]
 8003514:	438a      	bics	r2, r1
 8003516:	601a      	str	r2, [r3, #0]
 8003518:	491a      	ldr	r1, [pc, #104]	; (8003584 <HAL_I2C_Init+0xa0>)
 800351a:	6862      	ldr	r2, [r4, #4]
 800351c:	400a      	ands	r2, r1
 800351e:	611a      	str	r2, [r3, #16]
 8003520:	689a      	ldr	r2, [r3, #8]
 8003522:	4919      	ldr	r1, [pc, #100]	; (8003588 <HAL_I2C_Init+0xa4>)
 8003524:	400a      	ands	r2, r1
 8003526:	609a      	str	r2, [r3, #8]
 8003528:	2801      	cmp	r0, #1
 800352a:	d121      	bne.n	8003570 <HAL_I2C_Init+0x8c>
 800352c:	2280      	movs	r2, #128	; 0x80
 800352e:	0212      	lsls	r2, r2, #8
 8003530:	4332      	orrs	r2, r6
 8003532:	609a      	str	r2, [r3, #8]
 8003534:	6858      	ldr	r0, [r3, #4]
 8003536:	4a15      	ldr	r2, [pc, #84]	; (800358c <HAL_I2C_Init+0xa8>)
 8003538:	4302      	orrs	r2, r0
 800353a:	605a      	str	r2, [r3, #4]
 800353c:	68da      	ldr	r2, [r3, #12]
 800353e:	2000      	movs	r0, #0
 8003540:	400a      	ands	r2, r1
 8003542:	60da      	str	r2, [r3, #12]
 8003544:	6961      	ldr	r1, [r4, #20]
 8003546:	6922      	ldr	r2, [r4, #16]
 8003548:	430a      	orrs	r2, r1
 800354a:	69a1      	ldr	r1, [r4, #24]
 800354c:	0209      	lsls	r1, r1, #8
 800354e:	430a      	orrs	r2, r1
 8003550:	60da      	str	r2, [r3, #12]
 8003552:	6a21      	ldr	r1, [r4, #32]
 8003554:	69e2      	ldr	r2, [r4, #28]
 8003556:	430a      	orrs	r2, r1
 8003558:	601a      	str	r2, [r3, #0]
 800355a:	2201      	movs	r2, #1
 800355c:	6819      	ldr	r1, [r3, #0]
 800355e:	430a      	orrs	r2, r1
 8003560:	601a      	str	r2, [r3, #0]
 8003562:	2320      	movs	r3, #32
 8003564:	6460      	str	r0, [r4, #68]	; 0x44
 8003566:	702b      	strb	r3, [r5, #0]
 8003568:	6320      	str	r0, [r4, #48]	; 0x30
 800356a:	3442      	adds	r4, #66	; 0x42
 800356c:	7020      	strb	r0, [r4, #0]
 800356e:	bd70      	pop	{r4, r5, r6, pc}
 8003570:	2284      	movs	r2, #132	; 0x84
 8003572:	0212      	lsls	r2, r2, #8
 8003574:	4332      	orrs	r2, r6
 8003576:	609a      	str	r2, [r3, #8]
 8003578:	2802      	cmp	r0, #2
 800357a:	d1db      	bne.n	8003534 <HAL_I2C_Init+0x50>
 800357c:	2280      	movs	r2, #128	; 0x80
 800357e:	0112      	lsls	r2, r2, #4
 8003580:	605a      	str	r2, [r3, #4]
 8003582:	e7d7      	b.n	8003534 <HAL_I2C_Init+0x50>
 8003584:	f0ffffff 	.word	0xf0ffffff
 8003588:	ffff7fff 	.word	0xffff7fff
 800358c:	02008000 	.word	0x02008000

08003590 <HAL_I2C_Mem_Read>:
 8003590:	b5f0      	push	{r4, r5, r6, r7, lr}
 8003592:	b089      	sub	sp, #36	; 0x24
 8003594:	9304      	str	r3, [sp, #16]
 8003596:	ab0e      	add	r3, sp, #56	; 0x38
 8003598:	9203      	str	r2, [sp, #12]
 800359a:	cb04      	ldmia	r3!, {r2}
 800359c:	0004      	movs	r4, r0
 800359e:	881b      	ldrh	r3, [r3, #0]
 80035a0:	9205      	str	r2, [sp, #20]
 80035a2:	9306      	str	r3, [sp, #24]
 80035a4:	0003      	movs	r3, r0
 80035a6:	3341      	adds	r3, #65	; 0x41
 80035a8:	9307      	str	r3, [sp, #28]
 80035aa:	781b      	ldrb	r3, [r3, #0]
 80035ac:	000f      	movs	r7, r1
 80035ae:	2002      	movs	r0, #2
 80035b0:	9e10      	ldr	r6, [sp, #64]	; 0x40
 80035b2:	2b20      	cmp	r3, #32
 80035b4:	d108      	bne.n	80035c8 <HAL_I2C_Mem_Read+0x38>
 80035b6:	2a00      	cmp	r2, #0
 80035b8:	d002      	beq.n	80035c0 <HAL_I2C_Mem_Read+0x30>
 80035ba:	9b06      	ldr	r3, [sp, #24]
 80035bc:	2b00      	cmp	r3, #0
 80035be:	d105      	bne.n	80035cc <HAL_I2C_Mem_Read+0x3c>
 80035c0:	2380      	movs	r3, #128	; 0x80
 80035c2:	009b      	lsls	r3, r3, #2
 80035c4:	6463      	str	r3, [r4, #68]	; 0x44
 80035c6:	2001      	movs	r0, #1
 80035c8:	b009      	add	sp, #36	; 0x24
 80035ca:	bdf0      	pop	{r4, r5, r6, r7, pc}
 80035cc:	0023      	movs	r3, r4
 80035ce:	3340      	adds	r3, #64	; 0x40
 80035d0:	781a      	ldrb	r2, [r3, #0]
 80035d2:	2002      	movs	r0, #2
 80035d4:	2a01      	cmp	r2, #1
 80035d6:	d0f7      	beq.n	80035c8 <HAL_I2C_Mem_Read+0x38>
 80035d8:	2201      	movs	r2, #1
 80035da:	701a      	strb	r2, [r3, #0]
 80035dc:	f7ff fcea 	bl	8002fb4 <HAL_GetTick>
 80035e0:	2180      	movs	r1, #128	; 0x80
 80035e2:	2319      	movs	r3, #25
 80035e4:	9000      	str	r0, [sp, #0]
 80035e6:	0005      	movs	r5, r0
 80035e8:	2201      	movs	r2, #1
 80035ea:	0020      	movs	r0, r4
 80035ec:	0209      	lsls	r1, r1, #8
 80035ee:	f7ff ff1e 	bl	800342e <I2C_WaitOnFlagUntilTimeout>
 80035f2:	1e03      	subs	r3, r0, #0
 80035f4:	d1e7      	bne.n	80035c6 <HAL_I2C_Mem_Read+0x36>
 80035f6:	2222      	movs	r2, #34	; 0x22
 80035f8:	9907      	ldr	r1, [sp, #28]
 80035fa:	700a      	strb	r2, [r1, #0]
 80035fc:	0022      	movs	r2, r4
 80035fe:	3242      	adds	r2, #66	; 0x42
 8003600:	9207      	str	r2, [sp, #28]
 8003602:	2240      	movs	r2, #64	; 0x40
 8003604:	9907      	ldr	r1, [sp, #28]
 8003606:	700a      	strb	r2, [r1, #0]
 8003608:	9a05      	ldr	r2, [sp, #20]
 800360a:	6460      	str	r0, [r4, #68]	; 0x44
 800360c:	6262      	str	r2, [r4, #36]	; 0x24
 800360e:	9a06      	ldr	r2, [sp, #24]
 8003610:	494f      	ldr	r1, [pc, #316]	; (8003750 <HAL_I2C_Mem_Read+0x1c0>)
 8003612:	8562      	strh	r2, [r4, #42]	; 0x2a
 8003614:	466a      	mov	r2, sp
 8003616:	6360      	str	r0, [r4, #52]	; 0x34
 8003618:	7c12      	ldrb	r2, [r2, #16]
 800361a:	0020      	movs	r0, r4
 800361c:	9100      	str	r1, [sp, #0]
 800361e:	0039      	movs	r1, r7
 8003620:	f7ff fe40 	bl	80032a4 <I2C_TransferConfig>
 8003624:	002a      	movs	r2, r5
 8003626:	0031      	movs	r1, r6
 8003628:	0020      	movs	r0, r4
 800362a:	f7ff fed3 	bl	80033d4 <I2C_WaitOnTXISFlagUntilTimeout>
 800362e:	2800      	cmp	r0, #0
 8003630:	d12a      	bne.n	8003688 <HAL_I2C_Mem_Read+0xf8>
 8003632:	9a04      	ldr	r2, [sp, #16]
 8003634:	6823      	ldr	r3, [r4, #0]
 8003636:	2a01      	cmp	r2, #1
 8003638:	d117      	bne.n	800366a <HAL_I2C_Mem_Read+0xda>
 800363a:	466a      	mov	r2, sp
 800363c:	7b12      	ldrb	r2, [r2, #12]
 800363e:	629a      	str	r2, [r3, #40]	; 0x28
 8003640:	0033      	movs	r3, r6
 8003642:	2200      	movs	r2, #0
 8003644:	2140      	movs	r1, #64	; 0x40
 8003646:	0020      	movs	r0, r4
 8003648:	9500      	str	r5, [sp, #0]
 800364a:	f7ff fef0 	bl	800342e <I2C_WaitOnFlagUntilTimeout>
 800364e:	2800      	cmp	r0, #0
 8003650:	d11a      	bne.n	8003688 <HAL_I2C_Mem_Read+0xf8>
 8003652:	8d62      	ldrh	r2, [r4, #42]	; 0x2a
 8003654:	4b3f      	ldr	r3, [pc, #252]	; (8003754 <HAL_I2C_Mem_Read+0x1c4>)
 8003656:	2aff      	cmp	r2, #255	; 0xff
 8003658:	d81a      	bhi.n	8003690 <HAL_I2C_Mem_Read+0x100>
 800365a:	8d62      	ldrh	r2, [r4, #42]	; 0x2a
 800365c:	b292      	uxth	r2, r2
 800365e:	8522      	strh	r2, [r4, #40]	; 0x28
 8003660:	9300      	str	r3, [sp, #0]
 8003662:	2380      	movs	r3, #128	; 0x80
 8003664:	b2d2      	uxtb	r2, r2
 8003666:	049b      	lsls	r3, r3, #18
 8003668:	e017      	b.n	800369a <HAL_I2C_Mem_Read+0x10a>
 800366a:	9a03      	ldr	r2, [sp, #12]
 800366c:	0031      	movs	r1, r6
 800366e:	0a12      	lsrs	r2, r2, #8
 8003670:	629a      	str	r2, [r3, #40]	; 0x28
 8003672:	0020      	movs	r0, r4
 8003674:	002a      	movs	r2, r5
 8003676:	f7ff fead 	bl	80033d4 <I2C_WaitOnTXISFlagUntilTimeout>
 800367a:	2800      	cmp	r0, #0
 800367c:	d104      	bne.n	8003688 <HAL_I2C_Mem_Read+0xf8>
 800367e:	466b      	mov	r3, sp
 8003680:	6822      	ldr	r2, [r4, #0]
 8003682:	7b1b      	ldrb	r3, [r3, #12]
 8003684:	6293      	str	r3, [r2, #40]	; 0x28
 8003686:	e7db      	b.n	8003640 <HAL_I2C_Mem_Read+0xb0>
 8003688:	2300      	movs	r3, #0
 800368a:	3440      	adds	r4, #64	; 0x40
 800368c:	7023      	strb	r3, [r4, #0]
 800368e:	e79a      	b.n	80035c6 <HAL_I2C_Mem_Read+0x36>
 8003690:	22ff      	movs	r2, #255	; 0xff
 8003692:	8522      	strh	r2, [r4, #40]	; 0x28
 8003694:	9300      	str	r3, [sp, #0]
 8003696:	2380      	movs	r3, #128	; 0x80
 8003698:	045b      	lsls	r3, r3, #17
 800369a:	0039      	movs	r1, r7
 800369c:	0020      	movs	r0, r4
 800369e:	f7ff fe01 	bl	80032a4 <I2C_TransferConfig>
 80036a2:	0033      	movs	r3, r6
 80036a4:	2200      	movs	r2, #0
 80036a6:	2104      	movs	r1, #4
 80036a8:	0020      	movs	r0, r4
 80036aa:	9500      	str	r5, [sp, #0]
 80036ac:	f7ff febf 	bl	800342e <I2C_WaitOnFlagUntilTimeout>
 80036b0:	2800      	cmp	r0, #0
 80036b2:	d000      	beq.n	80036b6 <HAL_I2C_Mem_Read+0x126>
 80036b4:	e787      	b.n	80035c6 <HAL_I2C_Mem_Read+0x36>
 80036b6:	6823      	ldr	r3, [r4, #0]
 80036b8:	6a5a      	ldr	r2, [r3, #36]	; 0x24
 80036ba:	6a63      	ldr	r3, [r4, #36]	; 0x24
 80036bc:	701a      	strb	r2, [r3, #0]
 80036be:	6a63      	ldr	r3, [r4, #36]	; 0x24
 80036c0:	8d22      	ldrh	r2, [r4, #40]	; 0x28
 80036c2:	3301      	adds	r3, #1
 80036c4:	6263      	str	r3, [r4, #36]	; 0x24
 80036c6:	8d63      	ldrh	r3, [r4, #42]	; 0x2a
 80036c8:	3a01      	subs	r2, #1
 80036ca:	3b01      	subs	r3, #1
 80036cc:	b29b      	uxth	r3, r3
 80036ce:	8563      	strh	r3, [r4, #42]	; 0x2a
 80036d0:	8d63      	ldrh	r3, [r4, #42]	; 0x2a
 80036d2:	b292      	uxth	r2, r2
 80036d4:	8522      	strh	r2, [r4, #40]	; 0x28
 80036d6:	2b00      	cmp	r3, #0
 80036d8:	d017      	beq.n	800370a <HAL_I2C_Mem_Read+0x17a>
 80036da:	2a00      	cmp	r2, #0
 80036dc:	d115      	bne.n	800370a <HAL_I2C_Mem_Read+0x17a>
 80036de:	0033      	movs	r3, r6
 80036e0:	2180      	movs	r1, #128	; 0x80
 80036e2:	0020      	movs	r0, r4
 80036e4:	9500      	str	r5, [sp, #0]
 80036e6:	f7ff fea2 	bl	800342e <I2C_WaitOnFlagUntilTimeout>
 80036ea:	2800      	cmp	r0, #0
 80036ec:	d000      	beq.n	80036f0 <HAL_I2C_Mem_Read+0x160>
 80036ee:	e76a      	b.n	80035c6 <HAL_I2C_Mem_Read+0x36>
 80036f0:	8d63      	ldrh	r3, [r4, #42]	; 0x2a
 80036f2:	2bff      	cmp	r3, #255	; 0xff
 80036f4:	d923      	bls.n	800373e <HAL_I2C_Mem_Read+0x1ae>
 80036f6:	23ff      	movs	r3, #255	; 0xff
 80036f8:	8523      	strh	r3, [r4, #40]	; 0x28
 80036fa:	2380      	movs	r3, #128	; 0x80
 80036fc:	22ff      	movs	r2, #255	; 0xff
 80036fe:	9000      	str	r0, [sp, #0]
 8003700:	045b      	lsls	r3, r3, #17
 8003702:	0039      	movs	r1, r7
 8003704:	0020      	movs	r0, r4
 8003706:	f7ff fdcd 	bl	80032a4 <I2C_TransferConfig>
 800370a:	8d63      	ldrh	r3, [r4, #42]	; 0x2a
 800370c:	2b00      	cmp	r3, #0
 800370e:	d1c8      	bne.n	80036a2 <HAL_I2C_Mem_Read+0x112>
 8003710:	002a      	movs	r2, r5
 8003712:	0031      	movs	r1, r6
 8003714:	0020      	movs	r0, r4
 8003716:	f7ff feba 	bl	800348e <I2C_WaitOnSTOPFlagUntilTimeout>
 800371a:	2800      	cmp	r0, #0
 800371c:	d000      	beq.n	8003720 <HAL_I2C_Mem_Read+0x190>
 800371e:	e752      	b.n	80035c6 <HAL_I2C_Mem_Read+0x36>
 8003720:	2120      	movs	r1, #32
 8003722:	6823      	ldr	r3, [r4, #0]
 8003724:	4d0c      	ldr	r5, [pc, #48]	; (8003758 <HAL_I2C_Mem_Read+0x1c8>)
 8003726:	61d9      	str	r1, [r3, #28]
 8003728:	685a      	ldr	r2, [r3, #4]
 800372a:	402a      	ands	r2, r5
 800372c:	605a      	str	r2, [r3, #4]
 800372e:	0023      	movs	r3, r4
 8003730:	3341      	adds	r3, #65	; 0x41
 8003732:	7019      	strb	r1, [r3, #0]
 8003734:	9b07      	ldr	r3, [sp, #28]
 8003736:	3440      	adds	r4, #64	; 0x40
 8003738:	7018      	strb	r0, [r3, #0]
 800373a:	7020      	strb	r0, [r4, #0]
 800373c:	e744      	b.n	80035c8 <HAL_I2C_Mem_Read+0x38>
 800373e:	2380      	movs	r3, #128	; 0x80
 8003740:	8d62      	ldrh	r2, [r4, #42]	; 0x2a
 8003742:	049b      	lsls	r3, r3, #18
 8003744:	b292      	uxth	r2, r2
 8003746:	8522      	strh	r2, [r4, #40]	; 0x28
 8003748:	b2d2      	uxtb	r2, r2
 800374a:	9000      	str	r0, [sp, #0]
 800374c:	e7d9      	b.n	8003702 <HAL_I2C_Mem_Read+0x172>
 800374e:	46c0      	nop			; (mov r8, r8)
 8003750:	80002000 	.word	0x80002000
 8003754:	80002400 	.word	0x80002400
 8003758:	fe00e800 	.word	0xfe00e800

0800375c <HAL_I2CEx_ConfigAnalogFilter>:
 800375c:	b5f0      	push	{r4, r5, r6, r7, lr}
 800375e:	0004      	movs	r4, r0
 8003760:	3441      	adds	r4, #65	; 0x41
 8003762:	7822      	ldrb	r2, [r4, #0]
 8003764:	0003      	movs	r3, r0
 8003766:	000f      	movs	r7, r1
 8003768:	2002      	movs	r0, #2
 800376a:	b2d6      	uxtb	r6, r2
 800376c:	2a20      	cmp	r2, #32
 800376e:	d118      	bne.n	80037a2 <HAL_I2CEx_ConfigAnalogFilter+0x46>
 8003770:	001d      	movs	r5, r3
 8003772:	3540      	adds	r5, #64	; 0x40
 8003774:	782a      	ldrb	r2, [r5, #0]
 8003776:	2a01      	cmp	r2, #1
 8003778:	d013      	beq.n	80037a2 <HAL_I2CEx_ConfigAnalogFilter+0x46>
 800377a:	2224      	movs	r2, #36	; 0x24
 800377c:	7022      	strb	r2, [r4, #0]
 800377e:	681b      	ldr	r3, [r3, #0]
 8003780:	3a23      	subs	r2, #35	; 0x23
 8003782:	6819      	ldr	r1, [r3, #0]
 8003784:	4807      	ldr	r0, [pc, #28]	; (80037a4 <HAL_I2CEx_ConfigAnalogFilter+0x48>)
 8003786:	4391      	bics	r1, r2
 8003788:	6019      	str	r1, [r3, #0]
 800378a:	6819      	ldr	r1, [r3, #0]
 800378c:	4001      	ands	r1, r0
 800378e:	2000      	movs	r0, #0
 8003790:	6019      	str	r1, [r3, #0]
 8003792:	6819      	ldr	r1, [r3, #0]
 8003794:	4339      	orrs	r1, r7
 8003796:	6019      	str	r1, [r3, #0]
 8003798:	6819      	ldr	r1, [r3, #0]
 800379a:	430a      	orrs	r2, r1
 800379c:	601a      	str	r2, [r3, #0]
 800379e:	7026      	strb	r6, [r4, #0]
 80037a0:	7028      	strb	r0, [r5, #0]
 80037a2:	bdf0      	pop	{r4, r5, r6, r7, pc}
 80037a4:	ffffefff 	.word	0xffffefff

080037a8 <HAL_I2CEx_ConfigDigitalFilter>:
 80037a8:	0002      	movs	r2, r0
 80037aa:	b5f0      	push	{r4, r5, r6, r7, lr}
 80037ac:	3241      	adds	r2, #65	; 0x41
 80037ae:	7814      	ldrb	r4, [r2, #0]
 80037b0:	0003      	movs	r3, r0
 80037b2:	b2e5      	uxtb	r5, r4
 80037b4:	2002      	movs	r0, #2
 80037b6:	2c20      	cmp	r4, #32
 80037b8:	d117      	bne.n	80037ea <HAL_I2CEx_ConfigDigitalFilter+0x42>
 80037ba:	001c      	movs	r4, r3
 80037bc:	3440      	adds	r4, #64	; 0x40
 80037be:	7826      	ldrb	r6, [r4, #0]
 80037c0:	2e01      	cmp	r6, #1
 80037c2:	d012      	beq.n	80037ea <HAL_I2CEx_ConfigDigitalFilter+0x42>
 80037c4:	3022      	adds	r0, #34	; 0x22
 80037c6:	7010      	strb	r0, [r2, #0]
 80037c8:	681b      	ldr	r3, [r3, #0]
 80037ca:	3823      	subs	r0, #35	; 0x23
 80037cc:	681e      	ldr	r6, [r3, #0]
 80037ce:	4f07      	ldr	r7, [pc, #28]	; (80037ec <HAL_I2CEx_ConfigDigitalFilter+0x44>)
 80037d0:	4386      	bics	r6, r0
 80037d2:	601e      	str	r6, [r3, #0]
 80037d4:	681e      	ldr	r6, [r3, #0]
 80037d6:	0209      	lsls	r1, r1, #8
 80037d8:	403e      	ands	r6, r7
 80037da:	4331      	orrs	r1, r6
 80037dc:	6019      	str	r1, [r3, #0]
 80037de:	6819      	ldr	r1, [r3, #0]
 80037e0:	4308      	orrs	r0, r1
 80037e2:	6018      	str	r0, [r3, #0]
 80037e4:	2000      	movs	r0, #0
 80037e6:	7015      	strb	r5, [r2, #0]
 80037e8:	7020      	strb	r0, [r4, #0]
 80037ea:	bdf0      	pop	{r4, r5, r6, r7, pc}
 80037ec:	fffff0ff 	.word	0xfffff0ff

080037f0 <HAL_RCC_OscConfig>:
 80037f0:	b5f0      	push	{r4, r5, r6, r7, lr}
 80037f2:	0004      	movs	r4, r0
 80037f4:	b085      	sub	sp, #20
 80037f6:	2800      	cmp	r0, #0
 80037f8:	d045      	beq.n	8003886 <HAL_RCC_OscConfig+0x96>
 80037fa:	6803      	ldr	r3, [r0, #0]
 80037fc:	07db      	lsls	r3, r3, #31
 80037fe:	d42f      	bmi.n	8003860 <HAL_RCC_OscConfig+0x70>
 8003800:	6823      	ldr	r3, [r4, #0]
 8003802:	079b      	lsls	r3, r3, #30
 8003804:	d500      	bpl.n	8003808 <HAL_RCC_OscConfig+0x18>
 8003806:	e081      	b.n	800390c <HAL_RCC_OscConfig+0x11c>
 8003808:	6823      	ldr	r3, [r4, #0]
 800380a:	071b      	lsls	r3, r3, #28
 800380c:	d500      	bpl.n	8003810 <HAL_RCC_OscConfig+0x20>
 800380e:	e0bc      	b.n	800398a <HAL_RCC_OscConfig+0x19a>
 8003810:	6823      	ldr	r3, [r4, #0]
 8003812:	075b      	lsls	r3, r3, #29
 8003814:	d500      	bpl.n	8003818 <HAL_RCC_OscConfig+0x28>
 8003816:	e0df      	b.n	80039d8 <HAL_RCC_OscConfig+0x1e8>
 8003818:	6823      	ldr	r3, [r4, #0]
 800381a:	06db      	lsls	r3, r3, #27
 800381c:	d51a      	bpl.n	8003854 <HAL_RCC_OscConfig+0x64>
 800381e:	6962      	ldr	r2, [r4, #20]
 8003820:	2304      	movs	r3, #4
 8003822:	4db4      	ldr	r5, [pc, #720]	; (8003af4 <HAL_RCC_OscConfig+0x304>)
 8003824:	2a01      	cmp	r2, #1
 8003826:	d000      	beq.n	800382a <HAL_RCC_OscConfig+0x3a>
 8003828:	e148      	b.n	8003abc <HAL_RCC_OscConfig+0x2cc>
 800382a:	6b69      	ldr	r1, [r5, #52]	; 0x34
 800382c:	2702      	movs	r7, #2
 800382e:	430b      	orrs	r3, r1
 8003830:	636b      	str	r3, [r5, #52]	; 0x34
 8003832:	6b6b      	ldr	r3, [r5, #52]	; 0x34
 8003834:	431a      	orrs	r2, r3
 8003836:	636a      	str	r2, [r5, #52]	; 0x34
 8003838:	f7ff fbbc 	bl	8002fb4 <HAL_GetTick>
 800383c:	0006      	movs	r6, r0
 800383e:	6b6b      	ldr	r3, [r5, #52]	; 0x34
 8003840:	423b      	tst	r3, r7
 8003842:	d100      	bne.n	8003846 <HAL_RCC_OscConfig+0x56>
 8003844:	e133      	b.n	8003aae <HAL_RCC_OscConfig+0x2be>
 8003846:	21f8      	movs	r1, #248	; 0xf8
 8003848:	6b6a      	ldr	r2, [r5, #52]	; 0x34
 800384a:	69a3      	ldr	r3, [r4, #24]
 800384c:	438a      	bics	r2, r1
 800384e:	00db      	lsls	r3, r3, #3
 8003850:	4313      	orrs	r3, r2
 8003852:	636b      	str	r3, [r5, #52]	; 0x34
 8003854:	6a23      	ldr	r3, [r4, #32]
 8003856:	2b00      	cmp	r3, #0
 8003858:	d000      	beq.n	800385c <HAL_RCC_OscConfig+0x6c>
 800385a:	e157      	b.n	8003b0c <HAL_RCC_OscConfig+0x31c>
 800385c:	2000      	movs	r0, #0
 800385e:	e02a      	b.n	80038b6 <HAL_RCC_OscConfig+0xc6>
 8003860:	220c      	movs	r2, #12
 8003862:	4da4      	ldr	r5, [pc, #656]	; (8003af4 <HAL_RCC_OscConfig+0x304>)
 8003864:	686b      	ldr	r3, [r5, #4]
 8003866:	4013      	ands	r3, r2
 8003868:	2b04      	cmp	r3, #4
 800386a:	d006      	beq.n	800387a <HAL_RCC_OscConfig+0x8a>
 800386c:	686b      	ldr	r3, [r5, #4]
 800386e:	4013      	ands	r3, r2
 8003870:	2b08      	cmp	r3, #8
 8003872:	d10a      	bne.n	800388a <HAL_RCC_OscConfig+0x9a>
 8003874:	686b      	ldr	r3, [r5, #4]
 8003876:	03db      	lsls	r3, r3, #15
 8003878:	d507      	bpl.n	800388a <HAL_RCC_OscConfig+0x9a>
 800387a:	682b      	ldr	r3, [r5, #0]
 800387c:	039b      	lsls	r3, r3, #14
 800387e:	d5bf      	bpl.n	8003800 <HAL_RCC_OscConfig+0x10>
 8003880:	6863      	ldr	r3, [r4, #4]
 8003882:	2b00      	cmp	r3, #0
 8003884:	d1bc      	bne.n	8003800 <HAL_RCC_OscConfig+0x10>
 8003886:	2001      	movs	r0, #1
 8003888:	e015      	b.n	80038b6 <HAL_RCC_OscConfig+0xc6>
 800388a:	6863      	ldr	r3, [r4, #4]
 800388c:	2b01      	cmp	r3, #1
 800388e:	d114      	bne.n	80038ba <HAL_RCC_OscConfig+0xca>
 8003890:	2380      	movs	r3, #128	; 0x80
 8003892:	682a      	ldr	r2, [r5, #0]
 8003894:	025b      	lsls	r3, r3, #9
 8003896:	4313      	orrs	r3, r2
 8003898:	602b      	str	r3, [r5, #0]
 800389a:	f7ff fb8b 	bl	8002fb4 <HAL_GetTick>
 800389e:	2780      	movs	r7, #128	; 0x80
 80038a0:	0006      	movs	r6, r0
 80038a2:	02bf      	lsls	r7, r7, #10
 80038a4:	682b      	ldr	r3, [r5, #0]
 80038a6:	423b      	tst	r3, r7
 80038a8:	d1aa      	bne.n	8003800 <HAL_RCC_OscConfig+0x10>
 80038aa:	f7ff fb83 	bl	8002fb4 <HAL_GetTick>
 80038ae:	1b80      	subs	r0, r0, r6
 80038b0:	2864      	cmp	r0, #100	; 0x64
 80038b2:	d9f7      	bls.n	80038a4 <HAL_RCC_OscConfig+0xb4>
 80038b4:	2003      	movs	r0, #3
 80038b6:	b005      	add	sp, #20
 80038b8:	bdf0      	pop	{r4, r5, r6, r7, pc}
 80038ba:	2b00      	cmp	r3, #0
 80038bc:	d116      	bne.n	80038ec <HAL_RCC_OscConfig+0xfc>
 80038be:	682b      	ldr	r3, [r5, #0]
 80038c0:	4a8d      	ldr	r2, [pc, #564]	; (8003af8 <HAL_RCC_OscConfig+0x308>)
 80038c2:	2780      	movs	r7, #128	; 0x80
 80038c4:	4013      	ands	r3, r2
 80038c6:	602b      	str	r3, [r5, #0]
 80038c8:	682b      	ldr	r3, [r5, #0]
 80038ca:	4a8c      	ldr	r2, [pc, #560]	; (8003afc <HAL_RCC_OscConfig+0x30c>)
 80038cc:	02bf      	lsls	r7, r7, #10
 80038ce:	4013      	ands	r3, r2
 80038d0:	602b      	str	r3, [r5, #0]
 80038d2:	f7ff fb6f 	bl	8002fb4 <HAL_GetTick>
 80038d6:	0006      	movs	r6, r0
 80038d8:	682b      	ldr	r3, [r5, #0]
 80038da:	423b      	tst	r3, r7
 80038dc:	d100      	bne.n	80038e0 <HAL_RCC_OscConfig+0xf0>
 80038de:	e78f      	b.n	8003800 <HAL_RCC_OscConfig+0x10>
 80038e0:	f7ff fb68 	bl	8002fb4 <HAL_GetTick>
 80038e4:	1b80      	subs	r0, r0, r6
 80038e6:	2864      	cmp	r0, #100	; 0x64
 80038e8:	d9f6      	bls.n	80038d8 <HAL_RCC_OscConfig+0xe8>
 80038ea:	e7e3      	b.n	80038b4 <HAL_RCC_OscConfig+0xc4>
 80038ec:	2b05      	cmp	r3, #5
 80038ee:	d105      	bne.n	80038fc <HAL_RCC_OscConfig+0x10c>
 80038f0:	2380      	movs	r3, #128	; 0x80
 80038f2:	682a      	ldr	r2, [r5, #0]
 80038f4:	02db      	lsls	r3, r3, #11
 80038f6:	4313      	orrs	r3, r2
 80038f8:	602b      	str	r3, [r5, #0]
 80038fa:	e7c9      	b.n	8003890 <HAL_RCC_OscConfig+0xa0>
 80038fc:	682b      	ldr	r3, [r5, #0]
 80038fe:	4a7e      	ldr	r2, [pc, #504]	; (8003af8 <HAL_RCC_OscConfig+0x308>)
 8003900:	4013      	ands	r3, r2
 8003902:	602b      	str	r3, [r5, #0]
 8003904:	682b      	ldr	r3, [r5, #0]
 8003906:	4a7d      	ldr	r2, [pc, #500]	; (8003afc <HAL_RCC_OscConfig+0x30c>)
 8003908:	4013      	ands	r3, r2
 800390a:	e7c5      	b.n	8003898 <HAL_RCC_OscConfig+0xa8>
 800390c:	220c      	movs	r2, #12
 800390e:	4d79      	ldr	r5, [pc, #484]	; (8003af4 <HAL_RCC_OscConfig+0x304>)
 8003910:	686b      	ldr	r3, [r5, #4]
 8003912:	4213      	tst	r3, r2
 8003914:	d006      	beq.n	8003924 <HAL_RCC_OscConfig+0x134>
 8003916:	686b      	ldr	r3, [r5, #4]
 8003918:	4013      	ands	r3, r2
 800391a:	2b08      	cmp	r3, #8
 800391c:	d110      	bne.n	8003940 <HAL_RCC_OscConfig+0x150>
 800391e:	686b      	ldr	r3, [r5, #4]
 8003920:	03db      	lsls	r3, r3, #15
 8003922:	d40d      	bmi.n	8003940 <HAL_RCC_OscConfig+0x150>
 8003924:	682b      	ldr	r3, [r5, #0]
 8003926:	079b      	lsls	r3, r3, #30
 8003928:	d502      	bpl.n	8003930 <HAL_RCC_OscConfig+0x140>
 800392a:	68e3      	ldr	r3, [r4, #12]
 800392c:	2b01      	cmp	r3, #1
 800392e:	d1aa      	bne.n	8003886 <HAL_RCC_OscConfig+0x96>
 8003930:	21f8      	movs	r1, #248	; 0xf8
 8003932:	682a      	ldr	r2, [r5, #0]
 8003934:	6923      	ldr	r3, [r4, #16]
 8003936:	438a      	bics	r2, r1
 8003938:	00db      	lsls	r3, r3, #3
 800393a:	4313      	orrs	r3, r2
 800393c:	602b      	str	r3, [r5, #0]
 800393e:	e763      	b.n	8003808 <HAL_RCC_OscConfig+0x18>
 8003940:	68e2      	ldr	r2, [r4, #12]
 8003942:	2301      	movs	r3, #1
 8003944:	2a00      	cmp	r2, #0
 8003946:	d00f      	beq.n	8003968 <HAL_RCC_OscConfig+0x178>
 8003948:	682a      	ldr	r2, [r5, #0]
 800394a:	2702      	movs	r7, #2
 800394c:	4313      	orrs	r3, r2
 800394e:	602b      	str	r3, [r5, #0]
 8003950:	f7ff fb30 	bl	8002fb4 <HAL_GetTick>
 8003954:	0006      	movs	r6, r0
 8003956:	682b      	ldr	r3, [r5, #0]
 8003958:	423b      	tst	r3, r7
 800395a:	d1e9      	bne.n	8003930 <HAL_RCC_OscConfig+0x140>
 800395c:	f7ff fb2a 	bl	8002fb4 <HAL_GetTick>
 8003960:	1b80      	subs	r0, r0, r6
 8003962:	2802      	cmp	r0, #2
 8003964:	d9f7      	bls.n	8003956 <HAL_RCC_OscConfig+0x166>
 8003966:	e7a5      	b.n	80038b4 <HAL_RCC_OscConfig+0xc4>
 8003968:	682a      	ldr	r2, [r5, #0]
 800396a:	2702      	movs	r7, #2
 800396c:	439a      	bics	r2, r3
 800396e:	602a      	str	r2, [r5, #0]
 8003970:	f7ff fb20 	bl	8002fb4 <HAL_GetTick>
 8003974:	0006      	movs	r6, r0
 8003976:	682b      	ldr	r3, [r5, #0]
 8003978:	423b      	tst	r3, r7
 800397a:	d100      	bne.n	800397e <HAL_RCC_OscConfig+0x18e>
 800397c:	e744      	b.n	8003808 <HAL_RCC_OscConfig+0x18>
 800397e:	f7ff fb19 	bl	8002fb4 <HAL_GetTick>
 8003982:	1b80      	subs	r0, r0, r6
 8003984:	2802      	cmp	r0, #2
 8003986:	d9f6      	bls.n	8003976 <HAL_RCC_OscConfig+0x186>
 8003988:	e794      	b.n	80038b4 <HAL_RCC_OscConfig+0xc4>
 800398a:	69e2      	ldr	r2, [r4, #28]
 800398c:	2301      	movs	r3, #1
 800398e:	4d59      	ldr	r5, [pc, #356]	; (8003af4 <HAL_RCC_OscConfig+0x304>)
 8003990:	2a00      	cmp	r2, #0
 8003992:	d010      	beq.n	80039b6 <HAL_RCC_OscConfig+0x1c6>
 8003994:	6a6a      	ldr	r2, [r5, #36]	; 0x24
 8003996:	2702      	movs	r7, #2
 8003998:	4313      	orrs	r3, r2
 800399a:	626b      	str	r3, [r5, #36]	; 0x24
 800399c:	f7ff fb0a 	bl	8002fb4 <HAL_GetTick>
 80039a0:	0006      	movs	r6, r0
 80039a2:	6a6b      	ldr	r3, [r5, #36]	; 0x24
 80039a4:	423b      	tst	r3, r7
 80039a6:	d000      	beq.n	80039aa <HAL_RCC_OscConfig+0x1ba>
 80039a8:	e732      	b.n	8003810 <HAL_RCC_OscConfig+0x20>
 80039aa:	f7ff fb03 	bl	8002fb4 <HAL_GetTick>
 80039ae:	1b80      	subs	r0, r0, r6
 80039b0:	2802      	cmp	r0, #2
 80039b2:	d9f6      	bls.n	80039a2 <HAL_RCC_OscConfig+0x1b2>
 80039b4:	e77e      	b.n	80038b4 <HAL_RCC_OscConfig+0xc4>
 80039b6:	6a6a      	ldr	r2, [r5, #36]	; 0x24
 80039b8:	2702      	movs	r7, #2
 80039ba:	439a      	bics	r2, r3
 80039bc:	626a      	str	r2, [r5, #36]	; 0x24
 80039be:	f7ff faf9 	bl	8002fb4 <HAL_GetTick>
 80039c2:	0006      	movs	r6, r0
 80039c4:	6a6b      	ldr	r3, [r5, #36]	; 0x24
 80039c6:	423b      	tst	r3, r7
 80039c8:	d100      	bne.n	80039cc <HAL_RCC_OscConfig+0x1dc>
 80039ca:	e721      	b.n	8003810 <HAL_RCC_OscConfig+0x20>
 80039cc:	f7ff faf2 	bl	8002fb4 <HAL_GetTick>
 80039d0:	1b80      	subs	r0, r0, r6
 80039d2:	2802      	cmp	r0, #2
 80039d4:	d9f6      	bls.n	80039c4 <HAL_RCC_OscConfig+0x1d4>
 80039d6:	e76d      	b.n	80038b4 <HAL_RCC_OscConfig+0xc4>
 80039d8:	2280      	movs	r2, #128	; 0x80
 80039da:	2100      	movs	r1, #0
 80039dc:	4d45      	ldr	r5, [pc, #276]	; (8003af4 <HAL_RCC_OscConfig+0x304>)
 80039de:	0552      	lsls	r2, r2, #21
 80039e0:	69eb      	ldr	r3, [r5, #28]
 80039e2:	9100      	str	r1, [sp, #0]
 80039e4:	4213      	tst	r3, r2
 80039e6:	d108      	bne.n	80039fa <HAL_RCC_OscConfig+0x20a>
 80039e8:	69eb      	ldr	r3, [r5, #28]
 80039ea:	4313      	orrs	r3, r2
 80039ec:	61eb      	str	r3, [r5, #28]
 80039ee:	69eb      	ldr	r3, [r5, #28]
 80039f0:	4013      	ands	r3, r2
 80039f2:	9303      	str	r3, [sp, #12]
 80039f4:	9b03      	ldr	r3, [sp, #12]
 80039f6:	2301      	movs	r3, #1
 80039f8:	9300      	str	r3, [sp, #0]
 80039fa:	2780      	movs	r7, #128	; 0x80
 80039fc:	4e40      	ldr	r6, [pc, #256]	; (8003b00 <HAL_RCC_OscConfig+0x310>)
 80039fe:	007f      	lsls	r7, r7, #1
 8003a00:	6833      	ldr	r3, [r6, #0]
 8003a02:	423b      	tst	r3, r7
 8003a04:	d015      	beq.n	8003a32 <HAL_RCC_OscConfig+0x242>
 8003a06:	68a3      	ldr	r3, [r4, #8]
 8003a08:	2b01      	cmp	r3, #1
 8003a0a:	d122      	bne.n	8003a52 <HAL_RCC_OscConfig+0x262>
 8003a0c:	6a2a      	ldr	r2, [r5, #32]
 8003a0e:	4313      	orrs	r3, r2
 8003a10:	622b      	str	r3, [r5, #32]
 8003a12:	f7ff facf 	bl	8002fb4 <HAL_GetTick>
 8003a16:	2702      	movs	r7, #2
 8003a18:	0006      	movs	r6, r0
 8003a1a:	6a2b      	ldr	r3, [r5, #32]
 8003a1c:	423b      	tst	r3, r7
 8003a1e:	d03f      	beq.n	8003aa0 <HAL_RCC_OscConfig+0x2b0>
 8003a20:	9b00      	ldr	r3, [sp, #0]
 8003a22:	2b01      	cmp	r3, #1
 8003a24:	d000      	beq.n	8003a28 <HAL_RCC_OscConfig+0x238>
 8003a26:	e6f7      	b.n	8003818 <HAL_RCC_OscConfig+0x28>
 8003a28:	69eb      	ldr	r3, [r5, #28]
 8003a2a:	4a36      	ldr	r2, [pc, #216]	; (8003b04 <HAL_RCC_OscConfig+0x314>)
 8003a2c:	4013      	ands	r3, r2
 8003a2e:	61eb      	str	r3, [r5, #28]
 8003a30:	e6f2      	b.n	8003818 <HAL_RCC_OscConfig+0x28>
 8003a32:	6833      	ldr	r3, [r6, #0]
 8003a34:	433b      	orrs	r3, r7
 8003a36:	6033      	str	r3, [r6, #0]
 8003a38:	f7ff fabc 	bl	8002fb4 <HAL_GetTick>
 8003a3c:	9001      	str	r0, [sp, #4]
 8003a3e:	6833      	ldr	r3, [r6, #0]
 8003a40:	423b      	tst	r3, r7
 8003a42:	d1e0      	bne.n	8003a06 <HAL_RCC_OscConfig+0x216>
 8003a44:	f7ff fab6 	bl	8002fb4 <HAL_GetTick>
 8003a48:	9b01      	ldr	r3, [sp, #4]
 8003a4a:	1ac0      	subs	r0, r0, r3
 8003a4c:	2864      	cmp	r0, #100	; 0x64
 8003a4e:	d9f6      	bls.n	8003a3e <HAL_RCC_OscConfig+0x24e>
 8003a50:	e730      	b.n	80038b4 <HAL_RCC_OscConfig+0xc4>
 8003a52:	2201      	movs	r2, #1
 8003a54:	2b00      	cmp	r3, #0
 8003a56:	d114      	bne.n	8003a82 <HAL_RCC_OscConfig+0x292>
 8003a58:	6a2b      	ldr	r3, [r5, #32]
 8003a5a:	2702      	movs	r7, #2
 8003a5c:	4393      	bics	r3, r2
 8003a5e:	622b      	str	r3, [r5, #32]
 8003a60:	6a2b      	ldr	r3, [r5, #32]
 8003a62:	3203      	adds	r2, #3
 8003a64:	4393      	bics	r3, r2
 8003a66:	622b      	str	r3, [r5, #32]
 8003a68:	f7ff faa4 	bl	8002fb4 <HAL_GetTick>
 8003a6c:	0006      	movs	r6, r0
 8003a6e:	6a2b      	ldr	r3, [r5, #32]
 8003a70:	423b      	tst	r3, r7
 8003a72:	d0d5      	beq.n	8003a20 <HAL_RCC_OscConfig+0x230>
 8003a74:	f7ff fa9e 	bl	8002fb4 <HAL_GetTick>
 8003a78:	4b23      	ldr	r3, [pc, #140]	; (8003b08 <HAL_RCC_OscConfig+0x318>)
 8003a7a:	1b80      	subs	r0, r0, r6
 8003a7c:	4298      	cmp	r0, r3
 8003a7e:	d9f6      	bls.n	8003a6e <HAL_RCC_OscConfig+0x27e>
 8003a80:	e718      	b.n	80038b4 <HAL_RCC_OscConfig+0xc4>
 8003a82:	2b05      	cmp	r3, #5
 8003a84:	d105      	bne.n	8003a92 <HAL_RCC_OscConfig+0x2a2>
 8003a86:	6a29      	ldr	r1, [r5, #32]
 8003a88:	3b01      	subs	r3, #1
 8003a8a:	430b      	orrs	r3, r1
 8003a8c:	622b      	str	r3, [r5, #32]
 8003a8e:	6a2b      	ldr	r3, [r5, #32]
 8003a90:	e7bd      	b.n	8003a0e <HAL_RCC_OscConfig+0x21e>
 8003a92:	6a2b      	ldr	r3, [r5, #32]
 8003a94:	4393      	bics	r3, r2
 8003a96:	2204      	movs	r2, #4
 8003a98:	622b      	str	r3, [r5, #32]
 8003a9a:	6a2b      	ldr	r3, [r5, #32]
 8003a9c:	4393      	bics	r3, r2
 8003a9e:	e7b7      	b.n	8003a10 <HAL_RCC_OscConfig+0x220>
 8003aa0:	f7ff fa88 	bl	8002fb4 <HAL_GetTick>
 8003aa4:	4b18      	ldr	r3, [pc, #96]	; (8003b08 <HAL_RCC_OscConfig+0x318>)
 8003aa6:	1b80      	subs	r0, r0, r6
 8003aa8:	4298      	cmp	r0, r3
 8003aaa:	d9b6      	bls.n	8003a1a <HAL_RCC_OscConfig+0x22a>
 8003aac:	e702      	b.n	80038b4 <HAL_RCC_OscConfig+0xc4>
 8003aae:	f7ff fa81 	bl	8002fb4 <HAL_GetTick>
 8003ab2:	1b80      	subs	r0, r0, r6
 8003ab4:	2802      	cmp	r0, #2
 8003ab6:	d800      	bhi.n	8003aba <HAL_RCC_OscConfig+0x2ca>
 8003ab8:	e6c1      	b.n	800383e <HAL_RCC_OscConfig+0x4e>
 8003aba:	e6fb      	b.n	80038b4 <HAL_RCC_OscConfig+0xc4>
 8003abc:	3205      	adds	r2, #5
 8003abe:	d103      	bne.n	8003ac8 <HAL_RCC_OscConfig+0x2d8>
 8003ac0:	6b6a      	ldr	r2, [r5, #52]	; 0x34
 8003ac2:	439a      	bics	r2, r3
 8003ac4:	636a      	str	r2, [r5, #52]	; 0x34
 8003ac6:	e6be      	b.n	8003846 <HAL_RCC_OscConfig+0x56>
 8003ac8:	6b6a      	ldr	r2, [r5, #52]	; 0x34
 8003aca:	2702      	movs	r7, #2
 8003acc:	4313      	orrs	r3, r2
 8003ace:	2201      	movs	r2, #1
 8003ad0:	636b      	str	r3, [r5, #52]	; 0x34
 8003ad2:	6b6b      	ldr	r3, [r5, #52]	; 0x34
 8003ad4:	4393      	bics	r3, r2
 8003ad6:	636b      	str	r3, [r5, #52]	; 0x34
 8003ad8:	f7ff fa6c 	bl	8002fb4 <HAL_GetTick>
 8003adc:	0006      	movs	r6, r0
 8003ade:	6b6b      	ldr	r3, [r5, #52]	; 0x34
 8003ae0:	423b      	tst	r3, r7
 8003ae2:	d100      	bne.n	8003ae6 <HAL_RCC_OscConfig+0x2f6>
 8003ae4:	e6b6      	b.n	8003854 <HAL_RCC_OscConfig+0x64>
 8003ae6:	f7ff fa65 	bl	8002fb4 <HAL_GetTick>
 8003aea:	1b80      	subs	r0, r0, r6
 8003aec:	2802      	cmp	r0, #2
 8003aee:	d9f6      	bls.n	8003ade <HAL_RCC_OscConfig+0x2ee>
 8003af0:	e6e0      	b.n	80038b4 <HAL_RCC_OscConfig+0xc4>
 8003af2:	46c0      	nop			; (mov r8, r8)
 8003af4:	40021000 	.word	0x40021000
 8003af8:	fffeffff 	.word	0xfffeffff
 8003afc:	fffbffff 	.word	0xfffbffff
 8003b00:	40007000 	.word	0x40007000
 8003b04:	efffffff 	.word	0xefffffff
 8003b08:	00001388 	.word	0x00001388
 8003b0c:	210c      	movs	r1, #12
 8003b0e:	4d34      	ldr	r5, [pc, #208]	; (8003be0 <HAL_RCC_OscConfig+0x3f0>)
 8003b10:	686a      	ldr	r2, [r5, #4]
 8003b12:	400a      	ands	r2, r1
 8003b14:	2a08      	cmp	r2, #8
 8003b16:	d047      	beq.n	8003ba8 <HAL_RCC_OscConfig+0x3b8>
 8003b18:	4a32      	ldr	r2, [pc, #200]	; (8003be4 <HAL_RCC_OscConfig+0x3f4>)
 8003b1a:	2b02      	cmp	r3, #2
 8003b1c:	d132      	bne.n	8003b84 <HAL_RCC_OscConfig+0x394>
 8003b1e:	682b      	ldr	r3, [r5, #0]
 8003b20:	2780      	movs	r7, #128	; 0x80
 8003b22:	4013      	ands	r3, r2
 8003b24:	602b      	str	r3, [r5, #0]
 8003b26:	f7ff fa45 	bl	8002fb4 <HAL_GetTick>
 8003b2a:	0006      	movs	r6, r0
 8003b2c:	04bf      	lsls	r7, r7, #18
 8003b2e:	682b      	ldr	r3, [r5, #0]
 8003b30:	423b      	tst	r3, r7
 8003b32:	d121      	bne.n	8003b78 <HAL_RCC_OscConfig+0x388>
 8003b34:	220f      	movs	r2, #15
 8003b36:	6aeb      	ldr	r3, [r5, #44]	; 0x2c
 8003b38:	2680      	movs	r6, #128	; 0x80
 8003b3a:	4393      	bics	r3, r2
 8003b3c:	6ae2      	ldr	r2, [r4, #44]	; 0x2c
 8003b3e:	04b6      	lsls	r6, r6, #18
 8003b40:	4313      	orrs	r3, r2
 8003b42:	62eb      	str	r3, [r5, #44]	; 0x2c
 8003b44:	6a61      	ldr	r1, [r4, #36]	; 0x24
 8003b46:	6aa3      	ldr	r3, [r4, #40]	; 0x28
 8003b48:	686a      	ldr	r2, [r5, #4]
 8003b4a:	430b      	orrs	r3, r1
 8003b4c:	4926      	ldr	r1, [pc, #152]	; (8003be8 <HAL_RCC_OscConfig+0x3f8>)
 8003b4e:	400a      	ands	r2, r1
 8003b50:	4313      	orrs	r3, r2
 8003b52:	606b      	str	r3, [r5, #4]
 8003b54:	2380      	movs	r3, #128	; 0x80
 8003b56:	682a      	ldr	r2, [r5, #0]
 8003b58:	045b      	lsls	r3, r3, #17
 8003b5a:	4313      	orrs	r3, r2
 8003b5c:	602b      	str	r3, [r5, #0]
 8003b5e:	f7ff fa29 	bl	8002fb4 <HAL_GetTick>
 8003b62:	0004      	movs	r4, r0
 8003b64:	682b      	ldr	r3, [r5, #0]
 8003b66:	4233      	tst	r3, r6
 8003b68:	d000      	beq.n	8003b6c <HAL_RCC_OscConfig+0x37c>
 8003b6a:	e677      	b.n	800385c <HAL_RCC_OscConfig+0x6c>
 8003b6c:	f7ff fa22 	bl	8002fb4 <HAL_GetTick>
 8003b70:	1b00      	subs	r0, r0, r4
 8003b72:	2802      	cmp	r0, #2
 8003b74:	d9f6      	bls.n	8003b64 <HAL_RCC_OscConfig+0x374>
 8003b76:	e69d      	b.n	80038b4 <HAL_RCC_OscConfig+0xc4>
 8003b78:	f7ff fa1c 	bl	8002fb4 <HAL_GetTick>
 8003b7c:	1b80      	subs	r0, r0, r6
 8003b7e:	2802      	cmp	r0, #2
 8003b80:	d9d5      	bls.n	8003b2e <HAL_RCC_OscConfig+0x33e>
 8003b82:	e697      	b.n	80038b4 <HAL_RCC_OscConfig+0xc4>
 8003b84:	682b      	ldr	r3, [r5, #0]
 8003b86:	2680      	movs	r6, #128	; 0x80
 8003b88:	4013      	ands	r3, r2
 8003b8a:	602b      	str	r3, [r5, #0]
 8003b8c:	f7ff fa12 	bl	8002fb4 <HAL_GetTick>
 8003b90:	0004      	movs	r4, r0
 8003b92:	04b6      	lsls	r6, r6, #18
 8003b94:	682b      	ldr	r3, [r5, #0]
 8003b96:	4233      	tst	r3, r6
 8003b98:	d100      	bne.n	8003b9c <HAL_RCC_OscConfig+0x3ac>
 8003b9a:	e65f      	b.n	800385c <HAL_RCC_OscConfig+0x6c>
 8003b9c:	f7ff fa0a 	bl	8002fb4 <HAL_GetTick>
 8003ba0:	1b00      	subs	r0, r0, r4
 8003ba2:	2802      	cmp	r0, #2
 8003ba4:	d9f6      	bls.n	8003b94 <HAL_RCC_OscConfig+0x3a4>
 8003ba6:	e685      	b.n	80038b4 <HAL_RCC_OscConfig+0xc4>
 8003ba8:	0018      	movs	r0, r3
 8003baa:	2b01      	cmp	r3, #1
 8003bac:	d100      	bne.n	8003bb0 <HAL_RCC_OscConfig+0x3c0>
 8003bae:	e682      	b.n	80038b6 <HAL_RCC_OscConfig+0xc6>
 8003bb0:	2180      	movs	r1, #128	; 0x80
 8003bb2:	686b      	ldr	r3, [r5, #4]
 8003bb4:	6a60      	ldr	r0, [r4, #36]	; 0x24
 8003bb6:	0249      	lsls	r1, r1, #9
 8003bb8:	6aea      	ldr	r2, [r5, #44]	; 0x2c
 8003bba:	4019      	ands	r1, r3
 8003bbc:	4281      	cmp	r1, r0
 8003bbe:	d000      	beq.n	8003bc2 <HAL_RCC_OscConfig+0x3d2>
 8003bc0:	e661      	b.n	8003886 <HAL_RCC_OscConfig+0x96>
 8003bc2:	210f      	movs	r1, #15
 8003bc4:	400a      	ands	r2, r1
 8003bc6:	6ae1      	ldr	r1, [r4, #44]	; 0x2c
 8003bc8:	428a      	cmp	r2, r1
 8003bca:	d000      	beq.n	8003bce <HAL_RCC_OscConfig+0x3de>
 8003bcc:	e65b      	b.n	8003886 <HAL_RCC_OscConfig+0x96>
 8003bce:	22f0      	movs	r2, #240	; 0xf0
 8003bd0:	0392      	lsls	r2, r2, #14
 8003bd2:	4013      	ands	r3, r2
 8003bd4:	6aa2      	ldr	r2, [r4, #40]	; 0x28
 8003bd6:	4293      	cmp	r3, r2
 8003bd8:	d100      	bne.n	8003bdc <HAL_RCC_OscConfig+0x3ec>
 8003bda:	e63f      	b.n	800385c <HAL_RCC_OscConfig+0x6c>
 8003bdc:	e653      	b.n	8003886 <HAL_RCC_OscConfig+0x96>
 8003bde:	46c0      	nop			; (mov r8, r8)
 8003be0:	40021000 	.word	0x40021000
 8003be4:	feffffff 	.word	0xfeffffff
 8003be8:	ffc2ffff 	.word	0xffc2ffff

08003bec <HAL_RCC_GetSysClockFreq>:
 8003bec:	220c      	movs	r2, #12
 8003bee:	b570      	push	{r4, r5, r6, lr}
 8003bf0:	4d0c      	ldr	r5, [pc, #48]	; (8003c24 <HAL_RCC_GetSysClockFreq+0x38>)
 8003bf2:	686b      	ldr	r3, [r5, #4]
 8003bf4:	401a      	ands	r2, r3
 8003bf6:	2a08      	cmp	r2, #8
 8003bf8:	d111      	bne.n	8003c1e <HAL_RCC_GetSysClockFreq+0x32>
 8003bfa:	200f      	movs	r0, #15
 8003bfc:	490a      	ldr	r1, [pc, #40]	; (8003c28 <HAL_RCC_GetSysClockFreq+0x3c>)
 8003bfe:	0c9a      	lsrs	r2, r3, #18
 8003c00:	4002      	ands	r2, r0
 8003c02:	5c8c      	ldrb	r4, [r1, r2]
 8003c04:	6aea      	ldr	r2, [r5, #44]	; 0x2c
 8003c06:	03db      	lsls	r3, r3, #15
 8003c08:	d507      	bpl.n	8003c1a <HAL_RCC_GetSysClockFreq+0x2e>
 8003c0a:	4908      	ldr	r1, [pc, #32]	; (8003c2c <HAL_RCC_GetSysClockFreq+0x40>)
 8003c0c:	4002      	ands	r2, r0
 8003c0e:	5c89      	ldrb	r1, [r1, r2]
 8003c10:	4807      	ldr	r0, [pc, #28]	; (8003c30 <HAL_RCC_GetSysClockFreq+0x44>)
 8003c12:	f7fc fa97 	bl	8000144 <__udivsi3>
 8003c16:	4360      	muls	r0, r4
 8003c18:	bd70      	pop	{r4, r5, r6, pc}
 8003c1a:	4806      	ldr	r0, [pc, #24]	; (8003c34 <HAL_RCC_GetSysClockFreq+0x48>)
 8003c1c:	e7fb      	b.n	8003c16 <HAL_RCC_GetSysClockFreq+0x2a>
 8003c1e:	4804      	ldr	r0, [pc, #16]	; (8003c30 <HAL_RCC_GetSysClockFreq+0x44>)
 8003c20:	e7fa      	b.n	8003c18 <HAL_RCC_GetSysClockFreq+0x2c>
 8003c22:	46c0      	nop			; (mov r8, r8)
 8003c24:	40021000 	.word	0x40021000
 8003c28:	08006892 	.word	0x08006892
 8003c2c:	080068a2 	.word	0x080068a2
 8003c30:	007a1200 	.word	0x007a1200
 8003c34:	003d0900 	.word	0x003d0900

08003c38 <HAL_RCC_ClockConfig>:
 8003c38:	b5f7      	push	{r0, r1, r2, r4, r5, r6, r7, lr}
 8003c3a:	0004      	movs	r4, r0
 8003c3c:	000e      	movs	r6, r1
 8003c3e:	2800      	cmp	r0, #0
 8003c40:	d101      	bne.n	8003c46 <HAL_RCC_ClockConfig+0xe>
 8003c42:	2001      	movs	r0, #1
 8003c44:	bdfe      	pop	{r1, r2, r3, r4, r5, r6, r7, pc}
 8003c46:	2201      	movs	r2, #1
 8003c48:	4d37      	ldr	r5, [pc, #220]	; (8003d28 <HAL_RCC_ClockConfig+0xf0>)
 8003c4a:	682b      	ldr	r3, [r5, #0]
 8003c4c:	4013      	ands	r3, r2
 8003c4e:	428b      	cmp	r3, r1
 8003c50:	d31c      	bcc.n	8003c8c <HAL_RCC_ClockConfig+0x54>
 8003c52:	6822      	ldr	r2, [r4, #0]
 8003c54:	0793      	lsls	r3, r2, #30
 8003c56:	d422      	bmi.n	8003c9e <HAL_RCC_ClockConfig+0x66>
 8003c58:	07d2      	lsls	r2, r2, #31
 8003c5a:	d42f      	bmi.n	8003cbc <HAL_RCC_ClockConfig+0x84>
 8003c5c:	2301      	movs	r3, #1
 8003c5e:	682a      	ldr	r2, [r5, #0]
 8003c60:	401a      	ands	r2, r3
 8003c62:	42b2      	cmp	r2, r6
 8003c64:	d851      	bhi.n	8003d0a <HAL_RCC_ClockConfig+0xd2>
 8003c66:	6823      	ldr	r3, [r4, #0]
 8003c68:	4d30      	ldr	r5, [pc, #192]	; (8003d2c <HAL_RCC_ClockConfig+0xf4>)
 8003c6a:	075b      	lsls	r3, r3, #29
 8003c6c:	d454      	bmi.n	8003d18 <HAL_RCC_ClockConfig+0xe0>
 8003c6e:	f7ff ffbd 	bl	8003bec <HAL_RCC_GetSysClockFreq>
 8003c72:	686b      	ldr	r3, [r5, #4]
 8003c74:	4a2e      	ldr	r2, [pc, #184]	; (8003d30 <HAL_RCC_ClockConfig+0xf8>)
 8003c76:	061b      	lsls	r3, r3, #24
 8003c78:	0f1b      	lsrs	r3, r3, #28
 8003c7a:	5cd3      	ldrb	r3, [r2, r3]
 8003c7c:	492d      	ldr	r1, [pc, #180]	; (8003d34 <HAL_RCC_ClockConfig+0xfc>)
 8003c7e:	40d8      	lsrs	r0, r3
 8003c80:	6008      	str	r0, [r1, #0]
 8003c82:	2000      	movs	r0, #0
 8003c84:	f7ff f956 	bl	8002f34 <HAL_InitTick>
 8003c88:	2000      	movs	r0, #0
 8003c8a:	e7db      	b.n	8003c44 <HAL_RCC_ClockConfig+0xc>
 8003c8c:	682b      	ldr	r3, [r5, #0]
 8003c8e:	4393      	bics	r3, r2
 8003c90:	430b      	orrs	r3, r1
 8003c92:	602b      	str	r3, [r5, #0]
 8003c94:	682b      	ldr	r3, [r5, #0]
 8003c96:	4013      	ands	r3, r2
 8003c98:	428b      	cmp	r3, r1
 8003c9a:	d1d2      	bne.n	8003c42 <HAL_RCC_ClockConfig+0xa>
 8003c9c:	e7d9      	b.n	8003c52 <HAL_RCC_ClockConfig+0x1a>
 8003c9e:	4923      	ldr	r1, [pc, #140]	; (8003d2c <HAL_RCC_ClockConfig+0xf4>)
 8003ca0:	0753      	lsls	r3, r2, #29
 8003ca2:	d504      	bpl.n	8003cae <HAL_RCC_ClockConfig+0x76>
 8003ca4:	23e0      	movs	r3, #224	; 0xe0
 8003ca6:	6848      	ldr	r0, [r1, #4]
 8003ca8:	00db      	lsls	r3, r3, #3
 8003caa:	4303      	orrs	r3, r0
 8003cac:	604b      	str	r3, [r1, #4]
 8003cae:	20f0      	movs	r0, #240	; 0xf0
 8003cb0:	684b      	ldr	r3, [r1, #4]
 8003cb2:	4383      	bics	r3, r0
 8003cb4:	68a0      	ldr	r0, [r4, #8]
 8003cb6:	4303      	orrs	r3, r0
 8003cb8:	604b      	str	r3, [r1, #4]
 8003cba:	e7cd      	b.n	8003c58 <HAL_RCC_ClockConfig+0x20>
 8003cbc:	4f1b      	ldr	r7, [pc, #108]	; (8003d2c <HAL_RCC_ClockConfig+0xf4>)
 8003cbe:	6862      	ldr	r2, [r4, #4]
 8003cc0:	683b      	ldr	r3, [r7, #0]
 8003cc2:	2a01      	cmp	r2, #1
 8003cc4:	d119      	bne.n	8003cfa <HAL_RCC_ClockConfig+0xc2>
 8003cc6:	039b      	lsls	r3, r3, #14
 8003cc8:	d5bb      	bpl.n	8003c42 <HAL_RCC_ClockConfig+0xa>
 8003cca:	2103      	movs	r1, #3
 8003ccc:	687b      	ldr	r3, [r7, #4]
 8003cce:	438b      	bics	r3, r1
 8003cd0:	4313      	orrs	r3, r2
 8003cd2:	607b      	str	r3, [r7, #4]
 8003cd4:	f7ff f96e 	bl	8002fb4 <HAL_GetTick>
 8003cd8:	9001      	str	r0, [sp, #4]
 8003cda:	230c      	movs	r3, #12
 8003cdc:	687a      	ldr	r2, [r7, #4]
 8003cde:	401a      	ands	r2, r3
 8003ce0:	6863      	ldr	r3, [r4, #4]
 8003ce2:	009b      	lsls	r3, r3, #2
 8003ce4:	429a      	cmp	r2, r3
 8003ce6:	d0b9      	beq.n	8003c5c <HAL_RCC_ClockConfig+0x24>
 8003ce8:	f7ff f964 	bl	8002fb4 <HAL_GetTick>
 8003cec:	9b01      	ldr	r3, [sp, #4]
 8003cee:	1ac0      	subs	r0, r0, r3
 8003cf0:	4b11      	ldr	r3, [pc, #68]	; (8003d38 <HAL_RCC_ClockConfig+0x100>)
 8003cf2:	4298      	cmp	r0, r3
 8003cf4:	d9f1      	bls.n	8003cda <HAL_RCC_ClockConfig+0xa2>
 8003cf6:	2003      	movs	r0, #3
 8003cf8:	e7a4      	b.n	8003c44 <HAL_RCC_ClockConfig+0xc>
 8003cfa:	2a02      	cmp	r2, #2
 8003cfc:	d102      	bne.n	8003d04 <HAL_RCC_ClockConfig+0xcc>
 8003cfe:	019b      	lsls	r3, r3, #6
 8003d00:	d4e3      	bmi.n	8003cca <HAL_RCC_ClockConfig+0x92>
 8003d02:	e79e      	b.n	8003c42 <HAL_RCC_ClockConfig+0xa>
 8003d04:	079b      	lsls	r3, r3, #30
 8003d06:	d4e0      	bmi.n	8003cca <HAL_RCC_ClockConfig+0x92>
 8003d08:	e79b      	b.n	8003c42 <HAL_RCC_ClockConfig+0xa>
 8003d0a:	682a      	ldr	r2, [r5, #0]
 8003d0c:	439a      	bics	r2, r3
 8003d0e:	602a      	str	r2, [r5, #0]
 8003d10:	682a      	ldr	r2, [r5, #0]
 8003d12:	421a      	tst	r2, r3
 8003d14:	d0a7      	beq.n	8003c66 <HAL_RCC_ClockConfig+0x2e>
 8003d16:	e794      	b.n	8003c42 <HAL_RCC_ClockConfig+0xa>
 8003d18:	686b      	ldr	r3, [r5, #4]
 8003d1a:	4a08      	ldr	r2, [pc, #32]	; (8003d3c <HAL_RCC_ClockConfig+0x104>)
 8003d1c:	4013      	ands	r3, r2
 8003d1e:	68e2      	ldr	r2, [r4, #12]
 8003d20:	4313      	orrs	r3, r2
 8003d22:	606b      	str	r3, [r5, #4]
 8003d24:	e7a3      	b.n	8003c6e <HAL_RCC_ClockConfig+0x36>
 8003d26:	46c0      	nop			; (mov r8, r8)
 8003d28:	40022000 	.word	0x40022000
 8003d2c:	40021000 	.word	0x40021000
 8003d30:	0800687a 	.word	0x0800687a
 8003d34:	20000000 	.word	0x20000000
 8003d38:	00001388 	.word	0x00001388
 8003d3c:	fffff8ff 	.word	0xfffff8ff

08003d40 <HAL_RCC_GetPCLK1Freq>:
 8003d40:	4b04      	ldr	r3, [pc, #16]	; (8003d54 <HAL_RCC_GetPCLK1Freq+0x14>)
 8003d42:	4a05      	ldr	r2, [pc, #20]	; (8003d58 <HAL_RCC_GetPCLK1Freq+0x18>)
 8003d44:	685b      	ldr	r3, [r3, #4]
 8003d46:	4905      	ldr	r1, [pc, #20]	; (8003d5c <HAL_RCC_GetPCLK1Freq+0x1c>)
 8003d48:	055b      	lsls	r3, r3, #21
 8003d4a:	0f5b      	lsrs	r3, r3, #29
 8003d4c:	5ccb      	ldrb	r3, [r1, r3]
 8003d4e:	6810      	ldr	r0, [r2, #0]
 8003d50:	40d8      	lsrs	r0, r3
 8003d52:	4770      	bx	lr
 8003d54:	40021000 	.word	0x40021000
 8003d58:	20000000 	.word	0x20000000
 8003d5c:	0800688a 	.word	0x0800688a

08003d60 <HAL_RCCEx_PeriphCLKConfig>:
 8003d60:	b5f0      	push	{r4, r5, r6, r7, lr}
 8003d62:	6803      	ldr	r3, [r0, #0]
 8003d64:	0005      	movs	r5, r0
 8003d66:	b085      	sub	sp, #20
 8003d68:	03db      	lsls	r3, r3, #15
 8003d6a:	d52b      	bpl.n	8003dc4 <HAL_RCCEx_PeriphCLKConfig+0x64>
 8003d6c:	2280      	movs	r2, #128	; 0x80
 8003d6e:	2100      	movs	r1, #0
 8003d70:	4c38      	ldr	r4, [pc, #224]	; (8003e54 <HAL_RCCEx_PeriphCLKConfig+0xf4>)
 8003d72:	0552      	lsls	r2, r2, #21
 8003d74:	69e3      	ldr	r3, [r4, #28]
 8003d76:	9100      	str	r1, [sp, #0]
 8003d78:	4213      	tst	r3, r2
 8003d7a:	d108      	bne.n	8003d8e <HAL_RCCEx_PeriphCLKConfig+0x2e>
 8003d7c:	69e3      	ldr	r3, [r4, #28]
 8003d7e:	4313      	orrs	r3, r2
 8003d80:	61e3      	str	r3, [r4, #28]
 8003d82:	69e3      	ldr	r3, [r4, #28]
 8003d84:	4013      	ands	r3, r2
 8003d86:	9303      	str	r3, [sp, #12]
 8003d88:	9b03      	ldr	r3, [sp, #12]
 8003d8a:	2301      	movs	r3, #1
 8003d8c:	9300      	str	r3, [sp, #0]
 8003d8e:	2780      	movs	r7, #128	; 0x80
 8003d90:	4e31      	ldr	r6, [pc, #196]	; (8003e58 <HAL_RCCEx_PeriphCLKConfig+0xf8>)
 8003d92:	007f      	lsls	r7, r7, #1
 8003d94:	6833      	ldr	r3, [r6, #0]
 8003d96:	423b      	tst	r3, r7
 8003d98:	d029      	beq.n	8003dee <HAL_RCCEx_PeriphCLKConfig+0x8e>
 8003d9a:	6a21      	ldr	r1, [r4, #32]
 8003d9c:	22c0      	movs	r2, #192	; 0xc0
 8003d9e:	0008      	movs	r0, r1
 8003da0:	0092      	lsls	r2, r2, #2
 8003da2:	686b      	ldr	r3, [r5, #4]
 8003da4:	4e2d      	ldr	r6, [pc, #180]	; (8003e5c <HAL_RCCEx_PeriphCLKConfig+0xfc>)
 8003da6:	4010      	ands	r0, r2
 8003da8:	4211      	tst	r1, r2
 8003daa:	d132      	bne.n	8003e12 <HAL_RCCEx_PeriphCLKConfig+0xb2>
 8003dac:	6a23      	ldr	r3, [r4, #32]
 8003dae:	686a      	ldr	r2, [r5, #4]
 8003db0:	4033      	ands	r3, r6
 8003db2:	4313      	orrs	r3, r2
 8003db4:	6223      	str	r3, [r4, #32]
 8003db6:	9b00      	ldr	r3, [sp, #0]
 8003db8:	2b01      	cmp	r3, #1
 8003dba:	d103      	bne.n	8003dc4 <HAL_RCCEx_PeriphCLKConfig+0x64>
 8003dbc:	69e3      	ldr	r3, [r4, #28]
 8003dbe:	4a28      	ldr	r2, [pc, #160]	; (8003e60 <HAL_RCCEx_PeriphCLKConfig+0x100>)
 8003dc0:	4013      	ands	r3, r2
 8003dc2:	61e3      	str	r3, [r4, #28]
 8003dc4:	682a      	ldr	r2, [r5, #0]
 8003dc6:	07d3      	lsls	r3, r2, #31
 8003dc8:	d506      	bpl.n	8003dd8 <HAL_RCCEx_PeriphCLKConfig+0x78>
 8003dca:	2003      	movs	r0, #3
 8003dcc:	4921      	ldr	r1, [pc, #132]	; (8003e54 <HAL_RCCEx_PeriphCLKConfig+0xf4>)
 8003dce:	6b0b      	ldr	r3, [r1, #48]	; 0x30
 8003dd0:	4383      	bics	r3, r0
 8003dd2:	68a8      	ldr	r0, [r5, #8]
 8003dd4:	4303      	orrs	r3, r0
 8003dd6:	630b      	str	r3, [r1, #48]	; 0x30
 8003dd8:	2000      	movs	r0, #0
 8003dda:	0692      	lsls	r2, r2, #26
 8003ddc:	d517      	bpl.n	8003e0e <HAL_RCCEx_PeriphCLKConfig+0xae>
 8003dde:	2110      	movs	r1, #16
 8003de0:	4a1c      	ldr	r2, [pc, #112]	; (8003e54 <HAL_RCCEx_PeriphCLKConfig+0xf4>)
 8003de2:	6b13      	ldr	r3, [r2, #48]	; 0x30
 8003de4:	438b      	bics	r3, r1
 8003de6:	68e9      	ldr	r1, [r5, #12]
 8003de8:	430b      	orrs	r3, r1
 8003dea:	6313      	str	r3, [r2, #48]	; 0x30
 8003dec:	e00f      	b.n	8003e0e <HAL_RCCEx_PeriphCLKConfig+0xae>
 8003dee:	6833      	ldr	r3, [r6, #0]
 8003df0:	433b      	orrs	r3, r7
 8003df2:	6033      	str	r3, [r6, #0]
 8003df4:	f7ff f8de 	bl	8002fb4 <HAL_GetTick>
 8003df8:	9001      	str	r0, [sp, #4]
 8003dfa:	6833      	ldr	r3, [r6, #0]
 8003dfc:	423b      	tst	r3, r7
 8003dfe:	d1cc      	bne.n	8003d9a <HAL_RCCEx_PeriphCLKConfig+0x3a>
 8003e00:	f7ff f8d8 	bl	8002fb4 <HAL_GetTick>
 8003e04:	9b01      	ldr	r3, [sp, #4]
 8003e06:	1ac0      	subs	r0, r0, r3
 8003e08:	2864      	cmp	r0, #100	; 0x64
 8003e0a:	d9f6      	bls.n	8003dfa <HAL_RCCEx_PeriphCLKConfig+0x9a>
 8003e0c:	2003      	movs	r0, #3
 8003e0e:	b005      	add	sp, #20
 8003e10:	bdf0      	pop	{r4, r5, r6, r7, pc}
 8003e12:	4013      	ands	r3, r2
 8003e14:	4283      	cmp	r3, r0
 8003e16:	d0c9      	beq.n	8003dac <HAL_RCCEx_PeriphCLKConfig+0x4c>
 8003e18:	2280      	movs	r2, #128	; 0x80
 8003e1a:	6a23      	ldr	r3, [r4, #32]
 8003e1c:	6a20      	ldr	r0, [r4, #32]
 8003e1e:	0019      	movs	r1, r3
 8003e20:	0252      	lsls	r2, r2, #9
 8003e22:	4302      	orrs	r2, r0
 8003e24:	6222      	str	r2, [r4, #32]
 8003e26:	6a22      	ldr	r2, [r4, #32]
 8003e28:	480e      	ldr	r0, [pc, #56]	; (8003e64 <HAL_RCCEx_PeriphCLKConfig+0x104>)
 8003e2a:	4031      	ands	r1, r6
 8003e2c:	4002      	ands	r2, r0
 8003e2e:	6222      	str	r2, [r4, #32]
 8003e30:	6221      	str	r1, [r4, #32]
 8003e32:	07db      	lsls	r3, r3, #31
 8003e34:	d5ba      	bpl.n	8003dac <HAL_RCCEx_PeriphCLKConfig+0x4c>
 8003e36:	f7ff f8bd 	bl	8002fb4 <HAL_GetTick>
 8003e3a:	0007      	movs	r7, r0
 8003e3c:	2202      	movs	r2, #2
 8003e3e:	6a23      	ldr	r3, [r4, #32]
 8003e40:	4213      	tst	r3, r2
 8003e42:	d1b3      	bne.n	8003dac <HAL_RCCEx_PeriphCLKConfig+0x4c>
 8003e44:	f7ff f8b6 	bl	8002fb4 <HAL_GetTick>
 8003e48:	4b07      	ldr	r3, [pc, #28]	; (8003e68 <HAL_RCCEx_PeriphCLKConfig+0x108>)
 8003e4a:	1bc0      	subs	r0, r0, r7
 8003e4c:	4298      	cmp	r0, r3
 8003e4e:	d9f5      	bls.n	8003e3c <HAL_RCCEx_PeriphCLKConfig+0xdc>
 8003e50:	e7dc      	b.n	8003e0c <HAL_RCCEx_PeriphCLKConfig+0xac>
 8003e52:	46c0      	nop			; (mov r8, r8)
 8003e54:	40021000 	.word	0x40021000
 8003e58:	40007000 	.word	0x40007000
 8003e5c:	fffffcff 	.word	0xfffffcff
 8003e60:	efffffff 	.word	0xefffffff
 8003e64:	fffeffff 	.word	0xfffeffff
 8003e68:	00001388 	.word	0x00001388

08003e6c <HAL_TIM_Base_Start_IT>:
 8003e6c:	0002      	movs	r2, r0
 8003e6e:	0003      	movs	r3, r0
 8003e70:	2001      	movs	r0, #1
 8003e72:	323d      	adds	r2, #61	; 0x3d
 8003e74:	7811      	ldrb	r1, [r2, #0]
 8003e76:	4281      	cmp	r1, r0
 8003e78:	d119      	bne.n	8003eae <HAL_TIM_Base_Start_IT+0x42>
 8003e7a:	2102      	movs	r1, #2
 8003e7c:	7011      	strb	r1, [r2, #0]
 8003e7e:	681b      	ldr	r3, [r3, #0]
 8003e80:	68da      	ldr	r2, [r3, #12]
 8003e82:	4302      	orrs	r2, r0
 8003e84:	60da      	str	r2, [r3, #12]
 8003e86:	4a0d      	ldr	r2, [pc, #52]	; (8003ebc <HAL_TIM_Base_Start_IT+0x50>)
 8003e88:	4293      	cmp	r3, r2
 8003e8a:	d006      	beq.n	8003e9a <HAL_TIM_Base_Start_IT+0x2e>
 8003e8c:	2280      	movs	r2, #128	; 0x80
 8003e8e:	05d2      	lsls	r2, r2, #23
 8003e90:	4293      	cmp	r3, r2
 8003e92:	d002      	beq.n	8003e9a <HAL_TIM_Base_Start_IT+0x2e>
 8003e94:	4a0a      	ldr	r2, [pc, #40]	; (8003ec0 <HAL_TIM_Base_Start_IT+0x54>)
 8003e96:	4293      	cmp	r3, r2
 8003e98:	d10a      	bne.n	8003eb0 <HAL_TIM_Base_Start_IT+0x44>
 8003e9a:	2107      	movs	r1, #7
 8003e9c:	689a      	ldr	r2, [r3, #8]
 8003e9e:	2000      	movs	r0, #0
 8003ea0:	400a      	ands	r2, r1
 8003ea2:	2a06      	cmp	r2, #6
 8003ea4:	d003      	beq.n	8003eae <HAL_TIM_Base_Start_IT+0x42>
 8003ea6:	2201      	movs	r2, #1
 8003ea8:	6819      	ldr	r1, [r3, #0]
 8003eaa:	430a      	orrs	r2, r1
 8003eac:	601a      	str	r2, [r3, #0]
 8003eae:	4770      	bx	lr
 8003eb0:	681a      	ldr	r2, [r3, #0]
 8003eb2:	4302      	orrs	r2, r0
 8003eb4:	601a      	str	r2, [r3, #0]
 8003eb6:	2000      	movs	r0, #0
 8003eb8:	e7f9      	b.n	8003eae <HAL_TIM_Base_Start_IT+0x42>
 8003eba:	46c0      	nop			; (mov r8, r8)
 8003ebc:	40012c00 	.word	0x40012c00
 8003ec0:	40000400 	.word	0x40000400

08003ec4 <HAL_TIM_OC_DelayElapsedCallback>:
 8003ec4:	4770      	bx	lr

08003ec6 <HAL_TIM_IC_CaptureCallback>:
 8003ec6:	4770      	bx	lr

08003ec8 <HAL_TIM_PWM_PulseFinishedCallback>:
 8003ec8:	4770      	bx	lr

08003eca <HAL_TIM_TriggerCallback>:
 8003eca:	4770      	bx	lr

08003ecc <HAL_TIM_IRQHandler>:
 8003ecc:	2202      	movs	r2, #2
 8003ece:	6803      	ldr	r3, [r0, #0]
 8003ed0:	b510      	push	{r4, lr}
 8003ed2:	6919      	ldr	r1, [r3, #16]
 8003ed4:	0004      	movs	r4, r0
 8003ed6:	4211      	tst	r1, r2
 8003ed8:	d00e      	beq.n	8003ef8 <HAL_TIM_IRQHandler+0x2c>
 8003eda:	68d9      	ldr	r1, [r3, #12]
 8003edc:	4211      	tst	r1, r2
 8003ede:	d00b      	beq.n	8003ef8 <HAL_TIM_IRQHandler+0x2c>
 8003ee0:	3a05      	subs	r2, #5
 8003ee2:	611a      	str	r2, [r3, #16]
 8003ee4:	3204      	adds	r2, #4
 8003ee6:	7702      	strb	r2, [r0, #28]
 8003ee8:	699b      	ldr	r3, [r3, #24]
 8003eea:	079b      	lsls	r3, r3, #30
 8003eec:	d100      	bne.n	8003ef0 <HAL_TIM_IRQHandler+0x24>
 8003eee:	e079      	b.n	8003fe4 <HAL_TIM_IRQHandler+0x118>
 8003ef0:	f7ff ffe9 	bl	8003ec6 <HAL_TIM_IC_CaptureCallback>
 8003ef4:	2300      	movs	r3, #0
 8003ef6:	7723      	strb	r3, [r4, #28]
 8003ef8:	2204      	movs	r2, #4
 8003efa:	6823      	ldr	r3, [r4, #0]
 8003efc:	6919      	ldr	r1, [r3, #16]
 8003efe:	4211      	tst	r1, r2
 8003f00:	d010      	beq.n	8003f24 <HAL_TIM_IRQHandler+0x58>
 8003f02:	68d9      	ldr	r1, [r3, #12]
 8003f04:	4211      	tst	r1, r2
 8003f06:	d00d      	beq.n	8003f24 <HAL_TIM_IRQHandler+0x58>
 8003f08:	3a09      	subs	r2, #9
 8003f0a:	611a      	str	r2, [r3, #16]
 8003f0c:	3207      	adds	r2, #7
 8003f0e:	7722      	strb	r2, [r4, #28]
 8003f10:	699a      	ldr	r2, [r3, #24]
 8003f12:	23c0      	movs	r3, #192	; 0xc0
 8003f14:	009b      	lsls	r3, r3, #2
 8003f16:	0020      	movs	r0, r4
 8003f18:	421a      	tst	r2, r3
 8003f1a:	d069      	beq.n	8003ff0 <HAL_TIM_IRQHandler+0x124>
 8003f1c:	f7ff ffd3 	bl	8003ec6 <HAL_TIM_IC_CaptureCallback>
 8003f20:	2300      	movs	r3, #0
 8003f22:	7723      	strb	r3, [r4, #28]
 8003f24:	2208      	movs	r2, #8
 8003f26:	6823      	ldr	r3, [r4, #0]
 8003f28:	6919      	ldr	r1, [r3, #16]
 8003f2a:	4211      	tst	r1, r2
 8003f2c:	d00e      	beq.n	8003f4c <HAL_TIM_IRQHandler+0x80>
 8003f2e:	68d9      	ldr	r1, [r3, #12]
 8003f30:	4211      	tst	r1, r2
 8003f32:	d00b      	beq.n	8003f4c <HAL_TIM_IRQHandler+0x80>
 8003f34:	3a11      	subs	r2, #17
 8003f36:	611a      	str	r2, [r3, #16]
 8003f38:	320d      	adds	r2, #13
 8003f3a:	7722      	strb	r2, [r4, #28]
 8003f3c:	69db      	ldr	r3, [r3, #28]
 8003f3e:	0020      	movs	r0, r4
 8003f40:	079b      	lsls	r3, r3, #30
 8003f42:	d05b      	beq.n	8003ffc <HAL_TIM_IRQHandler+0x130>
 8003f44:	f7ff ffbf 	bl	8003ec6 <HAL_TIM_IC_CaptureCallback>
 8003f48:	2300      	movs	r3, #0
 8003f4a:	7723      	strb	r3, [r4, #28]
 8003f4c:	2210      	movs	r2, #16
 8003f4e:	6823      	ldr	r3, [r4, #0]
 8003f50:	6919      	ldr	r1, [r3, #16]
 8003f52:	4211      	tst	r1, r2
 8003f54:	d010      	beq.n	8003f78 <HAL_TIM_IRQHandler+0xac>
 8003f56:	68d9      	ldr	r1, [r3, #12]
 8003f58:	4211      	tst	r1, r2
 8003f5a:	d00d      	beq.n	8003f78 <HAL_TIM_IRQHandler+0xac>
 8003f5c:	3a21      	subs	r2, #33	; 0x21
 8003f5e:	611a      	str	r2, [r3, #16]
 8003f60:	3219      	adds	r2, #25
 8003f62:	7722      	strb	r2, [r4, #28]
 8003f64:	69da      	ldr	r2, [r3, #28]
 8003f66:	23c0      	movs	r3, #192	; 0xc0
 8003f68:	009b      	lsls	r3, r3, #2
 8003f6a:	0020      	movs	r0, r4
 8003f6c:	421a      	tst	r2, r3
 8003f6e:	d04b      	beq.n	8004008 <HAL_TIM_IRQHandler+0x13c>
 8003f70:	f7ff ffa9 	bl	8003ec6 <HAL_TIM_IC_CaptureCallback>
 8003f74:	2300      	movs	r3, #0
 8003f76:	7723      	strb	r3, [r4, #28]
 8003f78:	2201      	movs	r2, #1
 8003f7a:	6823      	ldr	r3, [r4, #0]
 8003f7c:	6919      	ldr	r1, [r3, #16]
 8003f7e:	4211      	tst	r1, r2
 8003f80:	d007      	beq.n	8003f92 <HAL_TIM_IRQHandler+0xc6>
 8003f82:	68d9      	ldr	r1, [r3, #12]
 8003f84:	4211      	tst	r1, r2
 8003f86:	d004      	beq.n	8003f92 <HAL_TIM_IRQHandler+0xc6>
 8003f88:	3a03      	subs	r2, #3
 8003f8a:	0020      	movs	r0, r4
 8003f8c:	611a      	str	r2, [r3, #16]
 8003f8e:	f7fe fd69 	bl	8002a64 <HAL_TIM_PeriodElapsedCallback>
 8003f92:	2280      	movs	r2, #128	; 0x80
 8003f94:	6823      	ldr	r3, [r4, #0]
 8003f96:	6919      	ldr	r1, [r3, #16]
 8003f98:	4211      	tst	r1, r2
 8003f9a:	d008      	beq.n	8003fae <HAL_TIM_IRQHandler+0xe2>
 8003f9c:	68d9      	ldr	r1, [r3, #12]
 8003f9e:	4211      	tst	r1, r2
 8003fa0:	d005      	beq.n	8003fae <HAL_TIM_IRQHandler+0xe2>
 8003fa2:	3a02      	subs	r2, #2
 8003fa4:	3aff      	subs	r2, #255	; 0xff
 8003fa6:	0020      	movs	r0, r4
 8003fa8:	611a      	str	r2, [r3, #16]
 8003faa:	f000 f8a4 	bl	80040f6 <HAL_TIMEx_BreakCallback>
 8003fae:	2240      	movs	r2, #64	; 0x40
 8003fb0:	6823      	ldr	r3, [r4, #0]
 8003fb2:	6919      	ldr	r1, [r3, #16]
 8003fb4:	4211      	tst	r1, r2
 8003fb6:	d007      	beq.n	8003fc8 <HAL_TIM_IRQHandler+0xfc>
 8003fb8:	68d9      	ldr	r1, [r3, #12]
 8003fba:	4211      	tst	r1, r2
 8003fbc:	d004      	beq.n	8003fc8 <HAL_TIM_IRQHandler+0xfc>
 8003fbe:	3a81      	subs	r2, #129	; 0x81
 8003fc0:	0020      	movs	r0, r4
 8003fc2:	611a      	str	r2, [r3, #16]
 8003fc4:	f7ff ff81 	bl	8003eca <HAL_TIM_TriggerCallback>
 8003fc8:	2220      	movs	r2, #32
 8003fca:	6823      	ldr	r3, [r4, #0]
 8003fcc:	6919      	ldr	r1, [r3, #16]
 8003fce:	4211      	tst	r1, r2
 8003fd0:	d007      	beq.n	8003fe2 <HAL_TIM_IRQHandler+0x116>
 8003fd2:	68d9      	ldr	r1, [r3, #12]
 8003fd4:	4211      	tst	r1, r2
 8003fd6:	d004      	beq.n	8003fe2 <HAL_TIM_IRQHandler+0x116>
 8003fd8:	3a41      	subs	r2, #65	; 0x41
 8003fda:	0020      	movs	r0, r4
 8003fdc:	611a      	str	r2, [r3, #16]
 8003fde:	f000 f889 	bl	80040f4 <HAL_TIMEx_CommutCallback>
 8003fe2:	bd10      	pop	{r4, pc}
 8003fe4:	f7ff ff6e 	bl	8003ec4 <HAL_TIM_OC_DelayElapsedCallback>
 8003fe8:	0020      	movs	r0, r4
 8003fea:	f7ff ff6d 	bl	8003ec8 <HAL_TIM_PWM_PulseFinishedCallback>
 8003fee:	e781      	b.n	8003ef4 <HAL_TIM_IRQHandler+0x28>
 8003ff0:	f7ff ff68 	bl	8003ec4 <HAL_TIM_OC_DelayElapsedCallback>
 8003ff4:	0020      	movs	r0, r4
 8003ff6:	f7ff ff67 	bl	8003ec8 <HAL_TIM_PWM_PulseFinishedCallback>
 8003ffa:	e791      	b.n	8003f20 <HAL_TIM_IRQHandler+0x54>
 8003ffc:	f7ff ff62 	bl	8003ec4 <HAL_TIM_OC_DelayElapsedCallback>
 8004000:	0020      	movs	r0, r4
 8004002:	f7ff ff61 	bl	8003ec8 <HAL_TIM_PWM_PulseFinishedCallback>
 8004006:	e79f      	b.n	8003f48 <HAL_TIM_IRQHandler+0x7c>
 8004008:	f7ff ff5c 	bl	8003ec4 <HAL_TIM_OC_DelayElapsedCallback>
 800400c:	0020      	movs	r0, r4
 800400e:	f7ff ff5b 	bl	8003ec8 <HAL_TIM_PWM_PulseFinishedCallback>
 8004012:	e7af      	b.n	8003f74 <HAL_TIM_IRQHandler+0xa8>

08004014 <TIM_Base_SetConfig>:
 8004014:	4a1d      	ldr	r2, [pc, #116]	; (800408c <TIM_Base_SetConfig+0x78>)
 8004016:	b510      	push	{r4, lr}
 8004018:	6803      	ldr	r3, [r0, #0]
 800401a:	4290      	cmp	r0, r2
 800401c:	d006      	beq.n	800402c <TIM_Base_SetConfig+0x18>
 800401e:	2480      	movs	r4, #128	; 0x80
 8004020:	05e4      	lsls	r4, r4, #23
 8004022:	42a0      	cmp	r0, r4
 8004024:	d002      	beq.n	800402c <TIM_Base_SetConfig+0x18>
 8004026:	4c1a      	ldr	r4, [pc, #104]	; (8004090 <TIM_Base_SetConfig+0x7c>)
 8004028:	42a0      	cmp	r0, r4
 800402a:	d10c      	bne.n	8004046 <TIM_Base_SetConfig+0x32>
 800402c:	2470      	movs	r4, #112	; 0x70
 800402e:	43a3      	bics	r3, r4
 8004030:	684c      	ldr	r4, [r1, #4]
 8004032:	4323      	orrs	r3, r4
 8004034:	4290      	cmp	r0, r2
 8004036:	d00f      	beq.n	8004058 <TIM_Base_SetConfig+0x44>
 8004038:	2480      	movs	r4, #128	; 0x80
 800403a:	05e4      	lsls	r4, r4, #23
 800403c:	42a0      	cmp	r0, r4
 800403e:	d00b      	beq.n	8004058 <TIM_Base_SetConfig+0x44>
 8004040:	4c13      	ldr	r4, [pc, #76]	; (8004090 <TIM_Base_SetConfig+0x7c>)
 8004042:	42a0      	cmp	r0, r4
 8004044:	d008      	beq.n	8004058 <TIM_Base_SetConfig+0x44>
 8004046:	4c13      	ldr	r4, [pc, #76]	; (8004094 <TIM_Base_SetConfig+0x80>)
 8004048:	42a0      	cmp	r0, r4
 800404a:	d005      	beq.n	8004058 <TIM_Base_SetConfig+0x44>
 800404c:	4c12      	ldr	r4, [pc, #72]	; (8004098 <TIM_Base_SetConfig+0x84>)
 800404e:	42a0      	cmp	r0, r4
 8004050:	d002      	beq.n	8004058 <TIM_Base_SetConfig+0x44>
 8004052:	4c12      	ldr	r4, [pc, #72]	; (800409c <TIM_Base_SetConfig+0x88>)
 8004054:	42a0      	cmp	r0, r4
 8004056:	d103      	bne.n	8004060 <TIM_Base_SetConfig+0x4c>
 8004058:	4c11      	ldr	r4, [pc, #68]	; (80040a0 <TIM_Base_SetConfig+0x8c>)
 800405a:	401c      	ands	r4, r3
 800405c:	68cb      	ldr	r3, [r1, #12]
 800405e:	4323      	orrs	r3, r4
 8004060:	2480      	movs	r4, #128	; 0x80
 8004062:	43a3      	bics	r3, r4
 8004064:	694c      	ldr	r4, [r1, #20]
 8004066:	4323      	orrs	r3, r4
 8004068:	6003      	str	r3, [r0, #0]
 800406a:	688b      	ldr	r3, [r1, #8]
 800406c:	62c3      	str	r3, [r0, #44]	; 0x2c
 800406e:	680b      	ldr	r3, [r1, #0]
 8004070:	6283      	str	r3, [r0, #40]	; 0x28
 8004072:	4290      	cmp	r0, r2
 8004074:	d005      	beq.n	8004082 <TIM_Base_SetConfig+0x6e>
 8004076:	4b08      	ldr	r3, [pc, #32]	; (8004098 <TIM_Base_SetConfig+0x84>)
 8004078:	4298      	cmp	r0, r3
 800407a:	d002      	beq.n	8004082 <TIM_Base_SetConfig+0x6e>
 800407c:	4b07      	ldr	r3, [pc, #28]	; (800409c <TIM_Base_SetConfig+0x88>)
 800407e:	4298      	cmp	r0, r3
 8004080:	d101      	bne.n	8004086 <TIM_Base_SetConfig+0x72>
 8004082:	690b      	ldr	r3, [r1, #16]
 8004084:	6303      	str	r3, [r0, #48]	; 0x30
 8004086:	2301      	movs	r3, #1
 8004088:	6143      	str	r3, [r0, #20]
 800408a:	bd10      	pop	{r4, pc}
 800408c:	40012c00 	.word	0x40012c00
 8004090:	40000400 	.word	0x40000400
 8004094:	40002000 	.word	0x40002000
 8004098:	40014400 	.word	0x40014400
 800409c:	40014800 	.word	0x40014800
 80040a0:	fffffcff 	.word	0xfffffcff

080040a4 <HAL_TIM_Base_Init>:
 80040a4:	b570      	push	{r4, r5, r6, lr}
 80040a6:	0004      	movs	r4, r0
 80040a8:	2001      	movs	r0, #1
 80040aa:	2c00      	cmp	r4, #0
 80040ac:	d021      	beq.n	80040f2 <HAL_TIM_Base_Init+0x4e>
 80040ae:	0025      	movs	r5, r4
 80040b0:	353d      	adds	r5, #61	; 0x3d
 80040b2:	782b      	ldrb	r3, [r5, #0]
 80040b4:	b2da      	uxtb	r2, r3
 80040b6:	2b00      	cmp	r3, #0
 80040b8:	d105      	bne.n	80040c6 <HAL_TIM_Base_Init+0x22>
 80040ba:	0023      	movs	r3, r4
 80040bc:	333c      	adds	r3, #60	; 0x3c
 80040be:	0020      	movs	r0, r4
 80040c0:	701a      	strb	r2, [r3, #0]
 80040c2:	f7fe fe77 	bl	8002db4 <HAL_TIM_Base_MspInit>
 80040c6:	2302      	movs	r3, #2
 80040c8:	702b      	strb	r3, [r5, #0]
 80040ca:	6820      	ldr	r0, [r4, #0]
 80040cc:	1d21      	adds	r1, r4, #4
 80040ce:	f7ff ffa1 	bl	8004014 <TIM_Base_SetConfig>
 80040d2:	0022      	movs	r2, r4
 80040d4:	2301      	movs	r3, #1
 80040d6:	2000      	movs	r0, #0
 80040d8:	3246      	adds	r2, #70	; 0x46
 80040da:	7013      	strb	r3, [r2, #0]
 80040dc:	3445      	adds	r4, #69	; 0x45
 80040de:	3a08      	subs	r2, #8
 80040e0:	7013      	strb	r3, [r2, #0]
 80040e2:	7053      	strb	r3, [r2, #1]
 80040e4:	7093      	strb	r3, [r2, #2]
 80040e6:	70d3      	strb	r3, [r2, #3]
 80040e8:	7113      	strb	r3, [r2, #4]
 80040ea:	7153      	strb	r3, [r2, #5]
 80040ec:	7193      	strb	r3, [r2, #6]
 80040ee:	7023      	strb	r3, [r4, #0]
 80040f0:	702b      	strb	r3, [r5, #0]
 80040f2:	bd70      	pop	{r4, r5, r6, pc}

080040f4 <HAL_TIMEx_CommutCallback>:
 80040f4:	4770      	bx	lr

080040f6 <HAL_TIMEx_BreakCallback>:
 80040f6:	4770      	bx	lr

080040f8 <UART_EndRxTransfer>:
 80040f8:	b530      	push	{r4, r5, lr}
 80040fa:	f3ef 8410 	mrs	r4, PRIMASK
 80040fe:	2201      	movs	r2, #1
 8004100:	f382 8810 	msr	PRIMASK, r2
 8004104:	6801      	ldr	r1, [r0, #0]
 8004106:	4d12      	ldr	r5, [pc, #72]	; (8004150 <UART_EndRxTransfer+0x58>)
 8004108:	680b      	ldr	r3, [r1, #0]
 800410a:	402b      	ands	r3, r5
 800410c:	600b      	str	r3, [r1, #0]
 800410e:	f384 8810 	msr	PRIMASK, r4
 8004112:	f3ef 8410 	mrs	r4, PRIMASK
 8004116:	f382 8810 	msr	PRIMASK, r2
 800411a:	6801      	ldr	r1, [r0, #0]
 800411c:	688b      	ldr	r3, [r1, #8]
 800411e:	4393      	bics	r3, r2
 8004120:	608b      	str	r3, [r1, #8]
 8004122:	f384 8810 	msr	PRIMASK, r4
 8004126:	6e03      	ldr	r3, [r0, #96]	; 0x60
 8004128:	4293      	cmp	r3, r2
 800412a:	d10a      	bne.n	8004142 <UART_EndRxTransfer+0x4a>
 800412c:	f3ef 8110 	mrs	r1, PRIMASK
 8004130:	f383 8810 	msr	PRIMASK, r3
 8004134:	2410      	movs	r4, #16
 8004136:	6802      	ldr	r2, [r0, #0]
 8004138:	6813      	ldr	r3, [r2, #0]
 800413a:	43a3      	bics	r3, r4
 800413c:	6013      	str	r3, [r2, #0]
 800413e:	f381 8810 	msr	PRIMASK, r1
 8004142:	2220      	movs	r2, #32
 8004144:	1d03      	adds	r3, r0, #4
 8004146:	67da      	str	r2, [r3, #124]	; 0x7c
 8004148:	2300      	movs	r3, #0
 800414a:	6603      	str	r3, [r0, #96]	; 0x60
 800414c:	6683      	str	r3, [r0, #104]	; 0x68
 800414e:	bd30      	pop	{r4, r5, pc}
 8004150:	fffffedf 	.word	0xfffffedf

08004154 <HAL_UART_TxCpltCallback>:
 8004154:	4770      	bx	lr

08004156 <HAL_UART_RxCpltCallback>:
 8004156:	4770      	bx	lr

08004158 <HAL_UART_ErrorCallback>:
 8004158:	4770      	bx	lr

0800415a <UART_DMAAbortOnError>:
 800415a:	6a40      	ldr	r0, [r0, #36]	; 0x24
 800415c:	2300      	movs	r3, #0
 800415e:	0002      	movs	r2, r0
 8004160:	b510      	push	{r4, lr}
 8004162:	325a      	adds	r2, #90	; 0x5a
 8004164:	8013      	strh	r3, [r2, #0]
 8004166:	3a08      	subs	r2, #8
 8004168:	8013      	strh	r3, [r2, #0]
 800416a:	f7ff fff5 	bl	8004158 <HAL_UART_ErrorCallback>
 800416e:	bd10      	pop	{r4, pc}

08004170 <HAL_UARTEx_RxEventCallback>:
 8004170:	4770      	bx	lr
	...

08004174 <HAL_UART_IRQHandler>:
 8004174:	6802      	ldr	r2, [r0, #0]
 8004176:	b5f8      	push	{r3, r4, r5, r6, r7, lr}
 8004178:	69d3      	ldr	r3, [r2, #28]
 800417a:	0004      	movs	r4, r0
 800417c:	48a7      	ldr	r0, [pc, #668]	; (800441c <HAL_UART_IRQHandler+0x2a8>)
 800417e:	6811      	ldr	r1, [r2, #0]
 8004180:	6896      	ldr	r6, [r2, #8]
 8004182:	4203      	tst	r3, r0
 8004184:	d10b      	bne.n	800419e <HAL_UART_IRQHandler+0x2a>
 8004186:	2020      	movs	r0, #32
 8004188:	4203      	tst	r3, r0
 800418a:	d100      	bne.n	800418e <HAL_UART_IRQHandler+0x1a>
 800418c:	e080      	b.n	8004290 <HAL_UART_IRQHandler+0x11c>
 800418e:	4201      	tst	r1, r0
 8004190:	d100      	bne.n	8004194 <HAL_UART_IRQHandler+0x20>
 8004192:	e07d      	b.n	8004290 <HAL_UART_IRQHandler+0x11c>
 8004194:	6ea3      	ldr	r3, [r4, #104]	; 0x68
 8004196:	0020      	movs	r0, r4
 8004198:	2b00      	cmp	r3, #0
 800419a:	d16f      	bne.n	800427c <HAL_UART_IRQHandler+0x108>
 800419c:	e06f      	b.n	800427e <HAL_UART_IRQHandler+0x10a>
 800419e:	2001      	movs	r0, #1
 80041a0:	0037      	movs	r7, r6
 80041a2:	4d9f      	ldr	r5, [pc, #636]	; (8004420 <HAL_UART_IRQHandler+0x2ac>)
 80041a4:	4007      	ands	r7, r0
 80041a6:	400d      	ands	r5, r1
 80041a8:	433d      	orrs	r5, r7
 80041aa:	d100      	bne.n	80041ae <HAL_UART_IRQHandler+0x3a>
 80041ac:	e070      	b.n	8004290 <HAL_UART_IRQHandler+0x11c>
 80041ae:	0025      	movs	r5, r4
 80041b0:	3508      	adds	r5, #8
 80041b2:	4203      	tst	r3, r0
 80041b4:	d005      	beq.n	80041c2 <HAL_UART_IRQHandler+0x4e>
 80041b6:	05ce      	lsls	r6, r1, #23
 80041b8:	d503      	bpl.n	80041c2 <HAL_UART_IRQHandler+0x4e>
 80041ba:	6210      	str	r0, [r2, #32]
 80041bc:	6fee      	ldr	r6, [r5, #124]	; 0x7c
 80041be:	4330      	orrs	r0, r6
 80041c0:	67e8      	str	r0, [r5, #124]	; 0x7c
 80041c2:	2002      	movs	r0, #2
 80041c4:	4203      	tst	r3, r0
 80041c6:	d006      	beq.n	80041d6 <HAL_UART_IRQHandler+0x62>
 80041c8:	2f00      	cmp	r7, #0
 80041ca:	d004      	beq.n	80041d6 <HAL_UART_IRQHandler+0x62>
 80041cc:	6210      	str	r0, [r2, #32]
 80041ce:	6fee      	ldr	r6, [r5, #124]	; 0x7c
 80041d0:	1800      	adds	r0, r0, r0
 80041d2:	4330      	orrs	r0, r6
 80041d4:	67e8      	str	r0, [r5, #124]	; 0x7c
 80041d6:	2004      	movs	r0, #4
 80041d8:	4203      	tst	r3, r0
 80041da:	d006      	beq.n	80041ea <HAL_UART_IRQHandler+0x76>
 80041dc:	2f00      	cmp	r7, #0
 80041de:	d004      	beq.n	80041ea <HAL_UART_IRQHandler+0x76>
 80041e0:	6210      	str	r0, [r2, #32]
 80041e2:	6fee      	ldr	r6, [r5, #124]	; 0x7c
 80041e4:	3802      	subs	r0, #2
 80041e6:	4330      	orrs	r0, r6
 80041e8:	67e8      	str	r0, [r5, #124]	; 0x7c
 80041ea:	2008      	movs	r0, #8
 80041ec:	4203      	tst	r3, r0
 80041ee:	d007      	beq.n	8004200 <HAL_UART_IRQHandler+0x8c>
 80041f0:	2620      	movs	r6, #32
 80041f2:	400e      	ands	r6, r1
 80041f4:	433e      	orrs	r6, r7
 80041f6:	d003      	beq.n	8004200 <HAL_UART_IRQHandler+0x8c>
 80041f8:	6210      	str	r0, [r2, #32]
 80041fa:	6fee      	ldr	r6, [r5, #124]	; 0x7c
 80041fc:	4330      	orrs	r0, r6
 80041fe:	67e8      	str	r0, [r5, #124]	; 0x7c
 8004200:	2080      	movs	r0, #128	; 0x80
 8004202:	0100      	lsls	r0, r0, #4
 8004204:	4203      	tst	r3, r0
 8004206:	d006      	beq.n	8004216 <HAL_UART_IRQHandler+0xa2>
 8004208:	014e      	lsls	r6, r1, #5
 800420a:	d504      	bpl.n	8004216 <HAL_UART_IRQHandler+0xa2>
 800420c:	6210      	str	r0, [r2, #32]
 800420e:	2220      	movs	r2, #32
 8004210:	6fe8      	ldr	r0, [r5, #124]	; 0x7c
 8004212:	4302      	orrs	r2, r0
 8004214:	67ea      	str	r2, [r5, #124]	; 0x7c
 8004216:	6fea      	ldr	r2, [r5, #124]	; 0x7c
 8004218:	2a00      	cmp	r2, #0
 800421a:	d030      	beq.n	800427e <HAL_UART_IRQHandler+0x10a>
 800421c:	2220      	movs	r2, #32
 800421e:	4213      	tst	r3, r2
 8004220:	d006      	beq.n	8004230 <HAL_UART_IRQHandler+0xbc>
 8004222:	4211      	tst	r1, r2
 8004224:	d004      	beq.n	8004230 <HAL_UART_IRQHandler+0xbc>
 8004226:	6ea3      	ldr	r3, [r4, #104]	; 0x68
 8004228:	2b00      	cmp	r3, #0
 800422a:	d001      	beq.n	8004230 <HAL_UART_IRQHandler+0xbc>
 800422c:	0020      	movs	r0, r4
 800422e:	4798      	blx	r3
 8004230:	6822      	ldr	r2, [r4, #0]
 8004232:	6feb      	ldr	r3, [r5, #124]	; 0x7c
 8004234:	2740      	movs	r7, #64	; 0x40
 8004236:	6896      	ldr	r6, [r2, #8]
 8004238:	2228      	movs	r2, #40	; 0x28
 800423a:	403e      	ands	r6, r7
 800423c:	4013      	ands	r3, r2
 800423e:	0020      	movs	r0, r4
 8004240:	431e      	orrs	r6, r3
 8004242:	d021      	beq.n	8004288 <HAL_UART_IRQHandler+0x114>
 8004244:	f7ff ff58 	bl	80040f8 <UART_EndRxTransfer>
 8004248:	6823      	ldr	r3, [r4, #0]
 800424a:	689b      	ldr	r3, [r3, #8]
 800424c:	423b      	tst	r3, r7
 800424e:	d017      	beq.n	8004280 <HAL_UART_IRQHandler+0x10c>
 8004250:	f3ef 8110 	mrs	r1, PRIMASK
 8004254:	2301      	movs	r3, #1
 8004256:	f383 8810 	msr	PRIMASK, r3
 800425a:	6822      	ldr	r2, [r4, #0]
 800425c:	6893      	ldr	r3, [r2, #8]
 800425e:	43bb      	bics	r3, r7
 8004260:	6093      	str	r3, [r2, #8]
 8004262:	f381 8810 	msr	PRIMASK, r1
 8004266:	6f60      	ldr	r0, [r4, #116]	; 0x74
 8004268:	2800      	cmp	r0, #0
 800426a:	d009      	beq.n	8004280 <HAL_UART_IRQHandler+0x10c>
 800426c:	4b6d      	ldr	r3, [pc, #436]	; (8004424 <HAL_UART_IRQHandler+0x2b0>)
 800426e:	6343      	str	r3, [r0, #52]	; 0x34
 8004270:	f7fe ff14 	bl	800309c <HAL_DMA_Abort_IT>
 8004274:	2800      	cmp	r0, #0
 8004276:	d002      	beq.n	800427e <HAL_UART_IRQHandler+0x10a>
 8004278:	6f60      	ldr	r0, [r4, #116]	; 0x74
 800427a:	6b43      	ldr	r3, [r0, #52]	; 0x34
 800427c:	4798      	blx	r3
 800427e:	bdf8      	pop	{r3, r4, r5, r6, r7, pc}
 8004280:	0020      	movs	r0, r4
 8004282:	f7ff ff69 	bl	8004158 <HAL_UART_ErrorCallback>
 8004286:	e7fa      	b.n	800427e <HAL_UART_IRQHandler+0x10a>
 8004288:	f7ff ff66 	bl	8004158 <HAL_UART_ErrorCallback>
 800428c:	67ee      	str	r6, [r5, #124]	; 0x7c
 800428e:	e7f6      	b.n	800427e <HAL_UART_IRQHandler+0x10a>
 8004290:	6e20      	ldr	r0, [r4, #96]	; 0x60
 8004292:	2801      	cmp	r0, #1
 8004294:	d000      	beq.n	8004298 <HAL_UART_IRQHandler+0x124>
 8004296:	e095      	b.n	80043c4 <HAL_UART_IRQHandler+0x250>
 8004298:	2510      	movs	r5, #16
 800429a:	422b      	tst	r3, r5
 800429c:	d100      	bne.n	80042a0 <HAL_UART_IRQHandler+0x12c>
 800429e:	e091      	b.n	80043c4 <HAL_UART_IRQHandler+0x250>
 80042a0:	4229      	tst	r1, r5
 80042a2:	d100      	bne.n	80042a6 <HAL_UART_IRQHandler+0x132>
 80042a4:	e08e      	b.n	80043c4 <HAL_UART_IRQHandler+0x250>
 80042a6:	6215      	str	r5, [r2, #32]
 80042a8:	6893      	ldr	r3, [r2, #8]
 80042aa:	2140      	movs	r1, #64	; 0x40
 80042ac:	001e      	movs	r6, r3
 80042ae:	400e      	ands	r6, r1
 80042b0:	420b      	tst	r3, r1
 80042b2:	d04f      	beq.n	8004354 <HAL_UART_IRQHandler+0x1e0>
 80042b4:	6f62      	ldr	r2, [r4, #116]	; 0x74
 80042b6:	6813      	ldr	r3, [r2, #0]
 80042b8:	685b      	ldr	r3, [r3, #4]
 80042ba:	b29b      	uxth	r3, r3
 80042bc:	2b00      	cmp	r3, #0
 80042be:	d0de      	beq.n	800427e <HAL_UART_IRQHandler+0x10a>
 80042c0:	0026      	movs	r6, r4
 80042c2:	3658      	adds	r6, #88	; 0x58
 80042c4:	8837      	ldrh	r7, [r6, #0]
 80042c6:	429f      	cmp	r7, r3
 80042c8:	d9d9      	bls.n	800427e <HAL_UART_IRQHandler+0x10a>
 80042ca:	0027      	movs	r7, r4
 80042cc:	375a      	adds	r7, #90	; 0x5a
 80042ce:	803b      	strh	r3, [r7, #0]
 80042d0:	6993      	ldr	r3, [r2, #24]
 80042d2:	2b20      	cmp	r3, #32
 80042d4:	d032      	beq.n	800433c <HAL_UART_IRQHandler+0x1c8>
 80042d6:	f3ef 8710 	mrs	r7, PRIMASK
 80042da:	f380 8810 	msr	PRIMASK, r0
 80042de:	6822      	ldr	r2, [r4, #0]
 80042e0:	4d51      	ldr	r5, [pc, #324]	; (8004428 <HAL_UART_IRQHandler+0x2b4>)
 80042e2:	6813      	ldr	r3, [r2, #0]
 80042e4:	402b      	ands	r3, r5
 80042e6:	6013      	str	r3, [r2, #0]
 80042e8:	f387 8810 	msr	PRIMASK, r7
 80042ec:	f3ef 8710 	mrs	r7, PRIMASK
 80042f0:	f380 8810 	msr	PRIMASK, r0
 80042f4:	6822      	ldr	r2, [r4, #0]
 80042f6:	6893      	ldr	r3, [r2, #8]
 80042f8:	4383      	bics	r3, r0
 80042fa:	6093      	str	r3, [r2, #8]
 80042fc:	f387 8810 	msr	PRIMASK, r7
 8004300:	f3ef 8c10 	mrs	ip, PRIMASK
 8004304:	f380 8810 	msr	PRIMASK, r0
 8004308:	0023      	movs	r3, r4
 800430a:	cb80      	ldmia	r3!, {r7}
 800430c:	68ba      	ldr	r2, [r7, #8]
 800430e:	438a      	bics	r2, r1
 8004310:	60ba      	str	r2, [r7, #8]
 8004312:	f38c 8810 	msr	PRIMASK, ip
 8004316:	2220      	movs	r2, #32
 8004318:	67da      	str	r2, [r3, #124]	; 0x7c
 800431a:	2300      	movs	r3, #0
 800431c:	6623      	str	r3, [r4, #96]	; 0x60
 800431e:	f3ef 8110 	mrs	r1, PRIMASK
 8004322:	f380 8810 	msr	PRIMASK, r0
 8004326:	6822      	ldr	r2, [r4, #0]
 8004328:	3512      	adds	r5, #18
 800432a:	6813      	ldr	r3, [r2, #0]
 800432c:	35ff      	adds	r5, #255	; 0xff
 800432e:	43ab      	bics	r3, r5
 8004330:	6013      	str	r3, [r2, #0]
 8004332:	f381 8810 	msr	PRIMASK, r1
 8004336:	6f60      	ldr	r0, [r4, #116]	; 0x74
 8004338:	f7fe fe92 	bl	8003060 <HAL_DMA_Abort>
 800433c:	2302      	movs	r3, #2
 800433e:	6663      	str	r3, [r4, #100]	; 0x64
 8004340:	0023      	movs	r3, r4
 8004342:	335a      	adds	r3, #90	; 0x5a
 8004344:	881b      	ldrh	r3, [r3, #0]
 8004346:	8831      	ldrh	r1, [r6, #0]
 8004348:	1ac9      	subs	r1, r1, r3
 800434a:	b289      	uxth	r1, r1
 800434c:	0020      	movs	r0, r4
 800434e:	f7ff ff0f 	bl	8004170 <HAL_UARTEx_RxEventCallback>
 8004352:	e794      	b.n	800427e <HAL_UART_IRQHandler+0x10a>
 8004354:	0023      	movs	r3, r4
 8004356:	0022      	movs	r2, r4
 8004358:	3358      	adds	r3, #88	; 0x58
 800435a:	325a      	adds	r2, #90	; 0x5a
 800435c:	8819      	ldrh	r1, [r3, #0]
 800435e:	8813      	ldrh	r3, [r2, #0]
 8004360:	8812      	ldrh	r2, [r2, #0]
 8004362:	b29b      	uxth	r3, r3
 8004364:	2a00      	cmp	r2, #0
 8004366:	d100      	bne.n	800436a <HAL_UART_IRQHandler+0x1f6>
 8004368:	e789      	b.n	800427e <HAL_UART_IRQHandler+0x10a>
 800436a:	1ac9      	subs	r1, r1, r3
 800436c:	b289      	uxth	r1, r1
 800436e:	2900      	cmp	r1, #0
 8004370:	d100      	bne.n	8004374 <HAL_UART_IRQHandler+0x200>
 8004372:	e784      	b.n	800427e <HAL_UART_IRQHandler+0x10a>
 8004374:	f3ef 8710 	mrs	r7, PRIMASK
 8004378:	f380 8810 	msr	PRIMASK, r0
 800437c:	6822      	ldr	r2, [r4, #0]
 800437e:	4d2b      	ldr	r5, [pc, #172]	; (800442c <HAL_UART_IRQHandler+0x2b8>)
 8004380:	6813      	ldr	r3, [r2, #0]
 8004382:	402b      	ands	r3, r5
 8004384:	6013      	str	r3, [r2, #0]
 8004386:	f387 8810 	msr	PRIMASK, r7
 800438a:	f3ef 8c10 	mrs	ip, PRIMASK
 800438e:	f380 8810 	msr	PRIMASK, r0
 8004392:	0023      	movs	r3, r4
 8004394:	cb80      	ldmia	r3!, {r7}
 8004396:	68ba      	ldr	r2, [r7, #8]
 8004398:	4382      	bics	r2, r0
 800439a:	60ba      	str	r2, [r7, #8]
 800439c:	f38c 8810 	msr	PRIMASK, ip
 80043a0:	2220      	movs	r2, #32
 80043a2:	67da      	str	r2, [r3, #124]	; 0x7c
 80043a4:	6626      	str	r6, [r4, #96]	; 0x60
 80043a6:	66a6      	str	r6, [r4, #104]	; 0x68
 80043a8:	f3ef 8610 	mrs	r6, PRIMASK
 80043ac:	f380 8810 	msr	PRIMASK, r0
 80043b0:	2010      	movs	r0, #16
 80043b2:	6822      	ldr	r2, [r4, #0]
 80043b4:	6813      	ldr	r3, [r2, #0]
 80043b6:	4383      	bics	r3, r0
 80043b8:	6013      	str	r3, [r2, #0]
 80043ba:	f386 8810 	msr	PRIMASK, r6
 80043be:	2302      	movs	r3, #2
 80043c0:	6663      	str	r3, [r4, #100]	; 0x64
 80043c2:	e7c3      	b.n	800434c <HAL_UART_IRQHandler+0x1d8>
 80043c4:	2080      	movs	r0, #128	; 0x80
 80043c6:	0340      	lsls	r0, r0, #13
 80043c8:	4203      	tst	r3, r0
 80043ca:	d006      	beq.n	80043da <HAL_UART_IRQHandler+0x266>
 80043cc:	0276      	lsls	r6, r6, #9
 80043ce:	d504      	bpl.n	80043da <HAL_UART_IRQHandler+0x266>
 80043d0:	6210      	str	r0, [r2, #32]
 80043d2:	0020      	movs	r0, r4
 80043d4:	f000 fbba 	bl	8004b4c <HAL_UARTEx_WakeupCallback>
 80043d8:	e751      	b.n	800427e <HAL_UART_IRQHandler+0x10a>
 80043da:	2280      	movs	r2, #128	; 0x80
 80043dc:	4213      	tst	r3, r2
 80043de:	d003      	beq.n	80043e8 <HAL_UART_IRQHandler+0x274>
 80043e0:	4211      	tst	r1, r2
 80043e2:	d001      	beq.n	80043e8 <HAL_UART_IRQHandler+0x274>
 80043e4:	6ee3      	ldr	r3, [r4, #108]	; 0x6c
 80043e6:	e6d6      	b.n	8004196 <HAL_UART_IRQHandler+0x22>
 80043e8:	2240      	movs	r2, #64	; 0x40
 80043ea:	4213      	tst	r3, r2
 80043ec:	d100      	bne.n	80043f0 <HAL_UART_IRQHandler+0x27c>
 80043ee:	e746      	b.n	800427e <HAL_UART_IRQHandler+0x10a>
 80043f0:	4211      	tst	r1, r2
 80043f2:	d100      	bne.n	80043f6 <HAL_UART_IRQHandler+0x282>
 80043f4:	e743      	b.n	800427e <HAL_UART_IRQHandler+0x10a>
 80043f6:	f3ef 8010 	mrs	r0, PRIMASK
 80043fa:	2301      	movs	r3, #1
 80043fc:	f383 8810 	msr	PRIMASK, r3
 8004400:	6821      	ldr	r1, [r4, #0]
 8004402:	680b      	ldr	r3, [r1, #0]
 8004404:	4393      	bics	r3, r2
 8004406:	600b      	str	r3, [r1, #0]
 8004408:	f380 8810 	msr	PRIMASK, r0
 800440c:	2320      	movs	r3, #32
 800440e:	67e3      	str	r3, [r4, #124]	; 0x7c
 8004410:	2300      	movs	r3, #0
 8004412:	0020      	movs	r0, r4
 8004414:	66e3      	str	r3, [r4, #108]	; 0x6c
 8004416:	f7ff fe9d 	bl	8004154 <HAL_UART_TxCpltCallback>
 800441a:	e730      	b.n	800427e <HAL_UART_IRQHandler+0x10a>
 800441c:	0000080f 	.word	0x0000080f
 8004420:	04000120 	.word	0x04000120
 8004424:	0800415b 	.word	0x0800415b
 8004428:	fffffeff 	.word	0xfffffeff
 800442c:	fffffedf 	.word	0xfffffedf

08004430 <UART_RxISR_8BIT>:
 8004430:	b5f8      	push	{r3, r4, r5, r6, r7, lr}
 8004432:	0003      	movs	r3, r0
 8004434:	1d01      	adds	r1, r0, #4
 8004436:	6fcc      	ldr	r4, [r1, #124]	; 0x7c
 8004438:	335c      	adds	r3, #92	; 0x5c
 800443a:	881a      	ldrh	r2, [r3, #0]
 800443c:	6803      	ldr	r3, [r0, #0]
 800443e:	2c22      	cmp	r4, #34	; 0x22
 8004440:	d157      	bne.n	80044f2 <UART_RxISR_8BIT+0xc2>
 8004442:	8c9b      	ldrh	r3, [r3, #36]	; 0x24
 8004444:	6d44      	ldr	r4, [r0, #84]	; 0x54
 8004446:	4013      	ands	r3, r2
 8004448:	0002      	movs	r2, r0
 800444a:	7023      	strb	r3, [r4, #0]
 800444c:	6d43      	ldr	r3, [r0, #84]	; 0x54
 800444e:	325a      	adds	r2, #90	; 0x5a
 8004450:	3301      	adds	r3, #1
 8004452:	6543      	str	r3, [r0, #84]	; 0x54
 8004454:	8813      	ldrh	r3, [r2, #0]
 8004456:	3b01      	subs	r3, #1
 8004458:	b29b      	uxth	r3, r3
 800445a:	8013      	strh	r3, [r2, #0]
 800445c:	8813      	ldrh	r3, [r2, #0]
 800445e:	b29c      	uxth	r4, r3
 8004460:	2b00      	cmp	r3, #0
 8004462:	d142      	bne.n	80044ea <UART_RxISR_8BIT+0xba>
 8004464:	f3ef 8610 	mrs	r6, PRIMASK
 8004468:	3301      	adds	r3, #1
 800446a:	f383 8810 	msr	PRIMASK, r3
 800446e:	6805      	ldr	r5, [r0, #0]
 8004470:	4f22      	ldr	r7, [pc, #136]	; (80044fc <UART_RxISR_8BIT+0xcc>)
 8004472:	682a      	ldr	r2, [r5, #0]
 8004474:	403a      	ands	r2, r7
 8004476:	602a      	str	r2, [r5, #0]
 8004478:	f386 8810 	msr	PRIMASK, r6
 800447c:	f3ef 8610 	mrs	r6, PRIMASK
 8004480:	f383 8810 	msr	PRIMASK, r3
 8004484:	6805      	ldr	r5, [r0, #0]
 8004486:	68aa      	ldr	r2, [r5, #8]
 8004488:	439a      	bics	r2, r3
 800448a:	60aa      	str	r2, [r5, #8]
 800448c:	f386 8810 	msr	PRIMASK, r6
 8004490:	2220      	movs	r2, #32
 8004492:	67ca      	str	r2, [r1, #124]	; 0x7c
 8004494:	6802      	ldr	r2, [r0, #0]
 8004496:	6644      	str	r4, [r0, #100]	; 0x64
 8004498:	6852      	ldr	r2, [r2, #4]
 800449a:	6684      	str	r4, [r0, #104]	; 0x68
 800449c:	0212      	lsls	r2, r2, #8
 800449e:	d50a      	bpl.n	80044b6 <UART_RxISR_8BIT+0x86>
 80044a0:	f3ef 8110 	mrs	r1, PRIMASK
 80044a4:	f383 8810 	msr	PRIMASK, r3
 80044a8:	6802      	ldr	r2, [r0, #0]
 80044aa:	4c15      	ldr	r4, [pc, #84]	; (8004500 <UART_RxISR_8BIT+0xd0>)
 80044ac:	6813      	ldr	r3, [r2, #0]
 80044ae:	4023      	ands	r3, r4
 80044b0:	6013      	str	r3, [r2, #0]
 80044b2:	f381 8810 	msr	PRIMASK, r1
 80044b6:	6e03      	ldr	r3, [r0, #96]	; 0x60
 80044b8:	2b01      	cmp	r3, #1
 80044ba:	d117      	bne.n	80044ec <UART_RxISR_8BIT+0xbc>
 80044bc:	2200      	movs	r2, #0
 80044be:	6602      	str	r2, [r0, #96]	; 0x60
 80044c0:	f3ef 8410 	mrs	r4, PRIMASK
 80044c4:	f383 8810 	msr	PRIMASK, r3
 80044c8:	6801      	ldr	r1, [r0, #0]
 80044ca:	330f      	adds	r3, #15
 80044cc:	680a      	ldr	r2, [r1, #0]
 80044ce:	439a      	bics	r2, r3
 80044d0:	600a      	str	r2, [r1, #0]
 80044d2:	f384 8810 	msr	PRIMASK, r4
 80044d6:	6802      	ldr	r2, [r0, #0]
 80044d8:	69d1      	ldr	r1, [r2, #28]
 80044da:	4219      	tst	r1, r3
 80044dc:	d000      	beq.n	80044e0 <UART_RxISR_8BIT+0xb0>
 80044de:	6213      	str	r3, [r2, #32]
 80044e0:	0003      	movs	r3, r0
 80044e2:	3358      	adds	r3, #88	; 0x58
 80044e4:	8819      	ldrh	r1, [r3, #0]
 80044e6:	f7ff fe43 	bl	8004170 <HAL_UARTEx_RxEventCallback>
 80044ea:	bdf8      	pop	{r3, r4, r5, r6, r7, pc}
 80044ec:	f7ff fe33 	bl	8004156 <HAL_UART_RxCpltCallback>
 80044f0:	e7fb      	b.n	80044ea <UART_RxISR_8BIT+0xba>
 80044f2:	2208      	movs	r2, #8
 80044f4:	6999      	ldr	r1, [r3, #24]
 80044f6:	430a      	orrs	r2, r1
 80044f8:	619a      	str	r2, [r3, #24]
 80044fa:	e7f6      	b.n	80044ea <UART_RxISR_8BIT+0xba>
 80044fc:	fffffedf 	.word	0xfffffedf
 8004500:	fbffffff 	.word	0xfbffffff

08004504 <UART_RxISR_16BIT>:
 8004504:	b5f8      	push	{r3, r4, r5, r6, r7, lr}
 8004506:	0003      	movs	r3, r0
 8004508:	1d02      	adds	r2, r0, #4
 800450a:	6fd1      	ldr	r1, [r2, #124]	; 0x7c
 800450c:	335c      	adds	r3, #92	; 0x5c
 800450e:	881c      	ldrh	r4, [r3, #0]
 8004510:	6803      	ldr	r3, [r0, #0]
 8004512:	2922      	cmp	r1, #34	; 0x22
 8004514:	d156      	bne.n	80045c4 <UART_RxISR_16BIT+0xc0>
 8004516:	8c99      	ldrh	r1, [r3, #36]	; 0x24
 8004518:	6d43      	ldr	r3, [r0, #84]	; 0x54
 800451a:	4021      	ands	r1, r4
 800451c:	8019      	strh	r1, [r3, #0]
 800451e:	0001      	movs	r1, r0
 8004520:	3302      	adds	r3, #2
 8004522:	6543      	str	r3, [r0, #84]	; 0x54
 8004524:	315a      	adds	r1, #90	; 0x5a
 8004526:	880b      	ldrh	r3, [r1, #0]
 8004528:	3b01      	subs	r3, #1
 800452a:	b29b      	uxth	r3, r3
 800452c:	800b      	strh	r3, [r1, #0]
 800452e:	880b      	ldrh	r3, [r1, #0]
 8004530:	b29c      	uxth	r4, r3
 8004532:	2b00      	cmp	r3, #0
 8004534:	d142      	bne.n	80045bc <UART_RxISR_16BIT+0xb8>
 8004536:	f3ef 8610 	mrs	r6, PRIMASK
 800453a:	3301      	adds	r3, #1
 800453c:	f383 8810 	msr	PRIMASK, r3
 8004540:	6805      	ldr	r5, [r0, #0]
 8004542:	4f23      	ldr	r7, [pc, #140]	; (80045d0 <UART_RxISR_16BIT+0xcc>)
 8004544:	6829      	ldr	r1, [r5, #0]
 8004546:	4039      	ands	r1, r7
 8004548:	6029      	str	r1, [r5, #0]
 800454a:	f386 8810 	msr	PRIMASK, r6
 800454e:	f3ef 8610 	mrs	r6, PRIMASK
 8004552:	f383 8810 	msr	PRIMASK, r3
 8004556:	6805      	ldr	r5, [r0, #0]
 8004558:	68a9      	ldr	r1, [r5, #8]
 800455a:	4399      	bics	r1, r3
 800455c:	60a9      	str	r1, [r5, #8]
 800455e:	f386 8810 	msr	PRIMASK, r6
 8004562:	2120      	movs	r1, #32
 8004564:	67d1      	str	r1, [r2, #124]	; 0x7c
 8004566:	6802      	ldr	r2, [r0, #0]
 8004568:	6644      	str	r4, [r0, #100]	; 0x64
 800456a:	6852      	ldr	r2, [r2, #4]
 800456c:	6684      	str	r4, [r0, #104]	; 0x68
 800456e:	0212      	lsls	r2, r2, #8
 8004570:	d50a      	bpl.n	8004588 <UART_RxISR_16BIT+0x84>
 8004572:	f3ef 8110 	mrs	r1, PRIMASK
 8004576:	f383 8810 	msr	PRIMASK, r3
 800457a:	6802      	ldr	r2, [r0, #0]
 800457c:	4c15      	ldr	r4, [pc, #84]	; (80045d4 <UART_RxISR_16BIT+0xd0>)
 800457e:	6813      	ldr	r3, [r2, #0]
 8004580:	4023      	ands	r3, r4
 8004582:	6013      	str	r3, [r2, #0]
 8004584:	f381 8810 	msr	PRIMASK, r1
 8004588:	6e03      	ldr	r3, [r0, #96]	; 0x60
 800458a:	2b01      	cmp	r3, #1
 800458c:	d117      	bne.n	80045be <UART_RxISR_16BIT+0xba>
 800458e:	2200      	movs	r2, #0
 8004590:	6602      	str	r2, [r0, #96]	; 0x60
 8004592:	f3ef 8410 	mrs	r4, PRIMASK
 8004596:	f383 8810 	msr	PRIMASK, r3
 800459a:	6801      	ldr	r1, [r0, #0]
 800459c:	330f      	adds	r3, #15
 800459e:	680a      	ldr	r2, [r1, #0]
 80045a0:	439a      	bics	r2, r3
 80045a2:	600a      	str	r2, [r1, #0]
 80045a4:	f384 8810 	msr	PRIMASK, r4
 80045a8:	6802      	ldr	r2, [r0, #0]
 80045aa:	69d1      	ldr	r1, [r2, #28]
 80045ac:	4219      	tst	r1, r3
 80045ae:	d000      	beq.n	80045b2 <UART_RxISR_16BIT+0xae>
 80045b0:	6213      	str	r3, [r2, #32]
 80045b2:	0003      	movs	r3, r0
 80045b4:	3358      	adds	r3, #88	; 0x58
 80045b6:	8819      	ldrh	r1, [r3, #0]
 80045b8:	f7ff fdda 	bl	8004170 <HAL_UARTEx_RxEventCallback>
 80045bc:	bdf8      	pop	{r3, r4, r5, r6, r7, pc}
 80045be:	f7ff fdca 	bl	8004156 <HAL_UART_RxCpltCallback>
 80045c2:	e7fb      	b.n	80045bc <UART_RxISR_16BIT+0xb8>
 80045c4:	2208      	movs	r2, #8
 80045c6:	6999      	ldr	r1, [r3, #24]
 80045c8:	430a      	orrs	r2, r1
 80045ca:	619a      	str	r2, [r3, #24]
 80045cc:	e7f6      	b.n	80045bc <UART_RxISR_16BIT+0xb8>
 80045ce:	46c0      	nop			; (mov r8, r8)
 80045d0:	fffffedf 	.word	0xfffffedf
 80045d4:	fbffffff 	.word	0xfbffffff

080045d8 <UART_SetConfig>:
 80045d8:	b570      	push	{r4, r5, r6, lr}
 80045da:	0004      	movs	r4, r0
 80045dc:	6925      	ldr	r5, [r4, #16]
 80045de:	68a2      	ldr	r2, [r4, #8]
 80045e0:	6801      	ldr	r1, [r0, #0]
 80045e2:	432a      	orrs	r2, r5
 80045e4:	6965      	ldr	r5, [r4, #20]
 80045e6:	69c3      	ldr	r3, [r0, #28]
 80045e8:	432a      	orrs	r2, r5
 80045ea:	6808      	ldr	r0, [r1, #0]
 80045ec:	4d38      	ldr	r5, [pc, #224]	; (80046d0 <UART_SetConfig+0xf8>)
 80045ee:	431a      	orrs	r2, r3
 80045f0:	4028      	ands	r0, r5
 80045f2:	4302      	orrs	r2, r0
 80045f4:	600a      	str	r2, [r1, #0]
 80045f6:	684a      	ldr	r2, [r1, #4]
 80045f8:	4836      	ldr	r0, [pc, #216]	; (80046d4 <UART_SetConfig+0xfc>)
 80045fa:	6a25      	ldr	r5, [r4, #32]
 80045fc:	4002      	ands	r2, r0
 80045fe:	68e0      	ldr	r0, [r4, #12]
 8004600:	4302      	orrs	r2, r0
 8004602:	604a      	str	r2, [r1, #4]
 8004604:	69a2      	ldr	r2, [r4, #24]
 8004606:	6888      	ldr	r0, [r1, #8]
 8004608:	432a      	orrs	r2, r5
 800460a:	4d33      	ldr	r5, [pc, #204]	; (80046d8 <UART_SetConfig+0x100>)
 800460c:	4028      	ands	r0, r5
 800460e:	4302      	orrs	r2, r0
 8004610:	608a      	str	r2, [r1, #8]
 8004612:	2103      	movs	r1, #3
 8004614:	4a31      	ldr	r2, [pc, #196]	; (80046dc <UART_SetConfig+0x104>)
 8004616:	6b12      	ldr	r2, [r2, #48]	; 0x30
 8004618:	400a      	ands	r2, r1
 800461a:	2180      	movs	r1, #128	; 0x80
 800461c:	3a01      	subs	r2, #1
 800461e:	0209      	lsls	r1, r1, #8
 8004620:	2a02      	cmp	r2, #2
 8004622:	d849      	bhi.n	80046b8 <UART_SetConfig+0xe0>
 8004624:	482e      	ldr	r0, [pc, #184]	; (80046e0 <UART_SetConfig+0x108>)
 8004626:	5c80      	ldrb	r0, [r0, r2]
 8004628:	428b      	cmp	r3, r1
 800462a:	d123      	bne.n	8004674 <UART_SetConfig+0x9c>
 800462c:	2808      	cmp	r0, #8
 800462e:	d815      	bhi.n	800465c <UART_SetConfig+0x84>
 8004630:	f7fb fd74 	bl	800011c <__gnu_thumb1_case_uqi>
 8004634:	14081444 	.word	0x14081444
 8004638:	14141405 	.word	0x14141405
 800463c:	09          	.byte	0x09
 800463d:	00          	.byte	0x00
 800463e:	f7ff fad5 	bl	8003bec <HAL_RCC_GetSysClockFreq>
 8004642:	e03d      	b.n	80046c0 <UART_SetConfig+0xe8>
 8004644:	4b27      	ldr	r3, [pc, #156]	; (80046e4 <UART_SetConfig+0x10c>)
 8004646:	6861      	ldr	r1, [r4, #4]
 8004648:	0058      	lsls	r0, r3, #1
 800464a:	084b      	lsrs	r3, r1, #1
 800464c:	18c0      	adds	r0, r0, r3
 800464e:	f7fb fd79 	bl	8000144 <__udivsi3>
 8004652:	0002      	movs	r2, r0
 8004654:	4b24      	ldr	r3, [pc, #144]	; (80046e8 <UART_SetConfig+0x110>)
 8004656:	3a10      	subs	r2, #16
 8004658:	429a      	cmp	r2, r3
 800465a:	d901      	bls.n	8004660 <UART_SetConfig+0x88>
 800465c:	2001      	movs	r0, #1
 800465e:	e032      	b.n	80046c6 <UART_SetConfig+0xee>
 8004660:	230f      	movs	r3, #15
 8004662:	0002      	movs	r2, r0
 8004664:	0700      	lsls	r0, r0, #28
 8004666:	439a      	bics	r2, r3
 8004668:	b293      	uxth	r3, r2
 800466a:	0f40      	lsrs	r0, r0, #29
 800466c:	6822      	ldr	r2, [r4, #0]
 800466e:	4303      	orrs	r3, r0
 8004670:	60d3      	str	r3, [r2, #12]
 8004672:	e027      	b.n	80046c4 <UART_SetConfig+0xec>
 8004674:	2808      	cmp	r0, #8
 8004676:	d8f1      	bhi.n	800465c <UART_SetConfig+0x84>
 8004678:	f7fb fd46 	bl	8000108 <__gnu_thumb1_case_sqi>
 800467c:	f01cf014 	.word	0xf01cf014
 8004680:	f0f0f019 	.word	0xf0f0f019
 8004684:	05          	.byte	0x05
 8004685:	00          	.byte	0x00
 8004686:	2080      	movs	r0, #128	; 0x80
 8004688:	0200      	lsls	r0, r0, #8
 800468a:	6861      	ldr	r1, [r4, #4]
 800468c:	084b      	lsrs	r3, r1, #1
 800468e:	1818      	adds	r0, r3, r0
 8004690:	f7fb fd58 	bl	8000144 <__udivsi3>
 8004694:	0002      	movs	r2, r0
 8004696:	4b14      	ldr	r3, [pc, #80]	; (80046e8 <UART_SetConfig+0x110>)
 8004698:	3a10      	subs	r2, #16
 800469a:	429a      	cmp	r2, r3
 800469c:	d8de      	bhi.n	800465c <UART_SetConfig+0x84>
 800469e:	6823      	ldr	r3, [r4, #0]
 80046a0:	60d8      	str	r0, [r3, #12]
 80046a2:	e00f      	b.n	80046c4 <UART_SetConfig+0xec>
 80046a4:	f7ff fb4c 	bl	8003d40 <HAL_RCC_GetPCLK1Freq>
 80046a8:	2800      	cmp	r0, #0
 80046aa:	d00b      	beq.n	80046c4 <UART_SetConfig+0xec>
 80046ac:	e7ed      	b.n	800468a <UART_SetConfig+0xb2>
 80046ae:	f7ff fa9d 	bl	8003bec <HAL_RCC_GetSysClockFreq>
 80046b2:	e7f9      	b.n	80046a8 <UART_SetConfig+0xd0>
 80046b4:	480b      	ldr	r0, [pc, #44]	; (80046e4 <UART_SetConfig+0x10c>)
 80046b6:	e7e8      	b.n	800468a <UART_SetConfig+0xb2>
 80046b8:	428b      	cmp	r3, r1
 80046ba:	d1f3      	bne.n	80046a4 <UART_SetConfig+0xcc>
 80046bc:	f7ff fb40 	bl	8003d40 <HAL_RCC_GetPCLK1Freq>
 80046c0:	1e03      	subs	r3, r0, #0
 80046c2:	d1c0      	bne.n	8004646 <UART_SetConfig+0x6e>
 80046c4:	2000      	movs	r0, #0
 80046c6:	2300      	movs	r3, #0
 80046c8:	66a3      	str	r3, [r4, #104]	; 0x68
 80046ca:	66e3      	str	r3, [r4, #108]	; 0x6c
 80046cc:	bd70      	pop	{r4, r5, r6, pc}
 80046ce:	46c0      	nop			; (mov r8, r8)
 80046d0:	ffff69f3 	.word	0xffff69f3
 80046d4:	ffffcfff 	.word	0xffffcfff
 80046d8:	fffff4ff 	.word	0xfffff4ff
 80046dc:	40021000 	.word	0x40021000
 80046e0:	080068b2 	.word	0x080068b2
 80046e4:	007a1200 	.word	0x007a1200
 80046e8:	0000ffef 	.word	0x0000ffef

080046ec <UART_AdvFeatureConfig>:
 80046ec:	6a43      	ldr	r3, [r0, #36]	; 0x24
 80046ee:	b530      	push	{r4, r5, lr}
 80046f0:	07da      	lsls	r2, r3, #31
 80046f2:	d506      	bpl.n	8004702 <UART_AdvFeatureConfig+0x16>
 80046f4:	6801      	ldr	r1, [r0, #0]
 80046f6:	4c28      	ldr	r4, [pc, #160]	; (8004798 <UART_AdvFeatureConfig+0xac>)
 80046f8:	684a      	ldr	r2, [r1, #4]
 80046fa:	4022      	ands	r2, r4
 80046fc:	6a84      	ldr	r4, [r0, #40]	; 0x28
 80046fe:	4322      	orrs	r2, r4
 8004700:	604a      	str	r2, [r1, #4]
 8004702:	079a      	lsls	r2, r3, #30
 8004704:	d506      	bpl.n	8004714 <UART_AdvFeatureConfig+0x28>
 8004706:	6801      	ldr	r1, [r0, #0]
 8004708:	4c24      	ldr	r4, [pc, #144]	; (800479c <UART_AdvFeatureConfig+0xb0>)
 800470a:	684a      	ldr	r2, [r1, #4]
 800470c:	4022      	ands	r2, r4
 800470e:	6ac4      	ldr	r4, [r0, #44]	; 0x2c
 8004710:	4322      	orrs	r2, r4
 8004712:	604a      	str	r2, [r1, #4]
 8004714:	075a      	lsls	r2, r3, #29
 8004716:	d506      	bpl.n	8004726 <UART_AdvFeatureConfig+0x3a>
 8004718:	6801      	ldr	r1, [r0, #0]
 800471a:	4c21      	ldr	r4, [pc, #132]	; (80047a0 <UART_AdvFeatureConfig+0xb4>)
 800471c:	684a      	ldr	r2, [r1, #4]
 800471e:	4022      	ands	r2, r4
 8004720:	6b04      	ldr	r4, [r0, #48]	; 0x30
 8004722:	4322      	orrs	r2, r4
 8004724:	604a      	str	r2, [r1, #4]
 8004726:	071a      	lsls	r2, r3, #28
 8004728:	d506      	bpl.n	8004738 <UART_AdvFeatureConfig+0x4c>
 800472a:	6801      	ldr	r1, [r0, #0]
 800472c:	4c1d      	ldr	r4, [pc, #116]	; (80047a4 <UART_AdvFeatureConfig+0xb8>)
 800472e:	684a      	ldr	r2, [r1, #4]
 8004730:	4022      	ands	r2, r4
 8004732:	6b44      	ldr	r4, [r0, #52]	; 0x34
 8004734:	4322      	orrs	r2, r4
 8004736:	604a      	str	r2, [r1, #4]
 8004738:	06da      	lsls	r2, r3, #27
 800473a:	d506      	bpl.n	800474a <UART_AdvFeatureConfig+0x5e>
 800473c:	6801      	ldr	r1, [r0, #0]
 800473e:	4c1a      	ldr	r4, [pc, #104]	; (80047a8 <UART_AdvFeatureConfig+0xbc>)
 8004740:	688a      	ldr	r2, [r1, #8]
 8004742:	4022      	ands	r2, r4
 8004744:	6b84      	ldr	r4, [r0, #56]	; 0x38
 8004746:	4322      	orrs	r2, r4
 8004748:	608a      	str	r2, [r1, #8]
 800474a:	069a      	lsls	r2, r3, #26
 800474c:	d506      	bpl.n	800475c <UART_AdvFeatureConfig+0x70>
 800474e:	6801      	ldr	r1, [r0, #0]
 8004750:	4c16      	ldr	r4, [pc, #88]	; (80047ac <UART_AdvFeatureConfig+0xc0>)
 8004752:	688a      	ldr	r2, [r1, #8]
 8004754:	4022      	ands	r2, r4
 8004756:	6bc4      	ldr	r4, [r0, #60]	; 0x3c
 8004758:	4322      	orrs	r2, r4
 800475a:	608a      	str	r2, [r1, #8]
 800475c:	065a      	lsls	r2, r3, #25
 800475e:	d510      	bpl.n	8004782 <UART_AdvFeatureConfig+0x96>
 8004760:	6801      	ldr	r1, [r0, #0]
 8004762:	4d13      	ldr	r5, [pc, #76]	; (80047b0 <UART_AdvFeatureConfig+0xc4>)
 8004764:	684a      	ldr	r2, [r1, #4]
 8004766:	6c04      	ldr	r4, [r0, #64]	; 0x40
 8004768:	402a      	ands	r2, r5
 800476a:	4322      	orrs	r2, r4
 800476c:	604a      	str	r2, [r1, #4]
 800476e:	2280      	movs	r2, #128	; 0x80
 8004770:	0352      	lsls	r2, r2, #13
 8004772:	4294      	cmp	r4, r2
 8004774:	d105      	bne.n	8004782 <UART_AdvFeatureConfig+0x96>
 8004776:	684a      	ldr	r2, [r1, #4]
 8004778:	4c0e      	ldr	r4, [pc, #56]	; (80047b4 <UART_AdvFeatureConfig+0xc8>)
 800477a:	4022      	ands	r2, r4
 800477c:	6c44      	ldr	r4, [r0, #68]	; 0x44
 800477e:	4322      	orrs	r2, r4
 8004780:	604a      	str	r2, [r1, #4]
 8004782:	061b      	lsls	r3, r3, #24
 8004784:	d506      	bpl.n	8004794 <UART_AdvFeatureConfig+0xa8>
 8004786:	6802      	ldr	r2, [r0, #0]
 8004788:	490b      	ldr	r1, [pc, #44]	; (80047b8 <UART_AdvFeatureConfig+0xcc>)
 800478a:	6853      	ldr	r3, [r2, #4]
 800478c:	400b      	ands	r3, r1
 800478e:	6c81      	ldr	r1, [r0, #72]	; 0x48
 8004790:	430b      	orrs	r3, r1
 8004792:	6053      	str	r3, [r2, #4]
 8004794:	bd30      	pop	{r4, r5, pc}
 8004796:	46c0      	nop			; (mov r8, r8)
 8004798:	fffdffff 	.word	0xfffdffff
 800479c:	fffeffff 	.word	0xfffeffff
 80047a0:	fffbffff 	.word	0xfffbffff
 80047a4:	ffff7fff 	.word	0xffff7fff
 80047a8:	ffffefff 	.word	0xffffefff
 80047ac:	ffffdfff 	.word	0xffffdfff
 80047b0:	ffefffff 	.word	0xffefffff
 80047b4:	ff9fffff 	.word	0xff9fffff
 80047b8:	fff7ffff 	.word	0xfff7ffff

080047bc <UART_WaitOnFlagUntilTimeout>:
 80047bc:	b5f7      	push	{r0, r1, r2, r4, r5, r6, r7, lr}
 80047be:	0004      	movs	r4, r0
 80047c0:	000d      	movs	r5, r1
 80047c2:	0017      	movs	r7, r2
 80047c4:	2608      	movs	r6, #8
 80047c6:	9300      	str	r3, [sp, #0]
 80047c8:	6822      	ldr	r2, [r4, #0]
 80047ca:	69d3      	ldr	r3, [r2, #28]
 80047cc:	402b      	ands	r3, r5
 80047ce:	1b5b      	subs	r3, r3, r5
 80047d0:	4259      	negs	r1, r3
 80047d2:	414b      	adcs	r3, r1
 80047d4:	42bb      	cmp	r3, r7
 80047d6:	d001      	beq.n	80047dc <UART_WaitOnFlagUntilTimeout+0x20>
 80047d8:	2000      	movs	r0, #0
 80047da:	e021      	b.n	8004820 <UART_WaitOnFlagUntilTimeout+0x64>
 80047dc:	9b08      	ldr	r3, [sp, #32]
 80047de:	3301      	adds	r3, #1
 80047e0:	d0f3      	beq.n	80047ca <UART_WaitOnFlagUntilTimeout+0xe>
 80047e2:	f7fe fbe7 	bl	8002fb4 <HAL_GetTick>
 80047e6:	9b00      	ldr	r3, [sp, #0]
 80047e8:	1ac0      	subs	r0, r0, r3
 80047ea:	9b08      	ldr	r3, [sp, #32]
 80047ec:	4298      	cmp	r0, r3
 80047ee:	d828      	bhi.n	8004842 <UART_WaitOnFlagUntilTimeout+0x86>
 80047f0:	2b00      	cmp	r3, #0
 80047f2:	d026      	beq.n	8004842 <UART_WaitOnFlagUntilTimeout+0x86>
 80047f4:	2104      	movs	r1, #4
 80047f6:	6823      	ldr	r3, [r4, #0]
 80047f8:	681a      	ldr	r2, [r3, #0]
 80047fa:	420a      	tst	r2, r1
 80047fc:	d0e4      	beq.n	80047c8 <UART_WaitOnFlagUntilTimeout+0xc>
 80047fe:	69da      	ldr	r2, [r3, #28]
 8004800:	0011      	movs	r1, r2
 8004802:	4031      	ands	r1, r6
 8004804:	9101      	str	r1, [sp, #4]
 8004806:	4232      	tst	r2, r6
 8004808:	d00b      	beq.n	8004822 <UART_WaitOnFlagUntilTimeout+0x66>
 800480a:	0020      	movs	r0, r4
 800480c:	621e      	str	r6, [r3, #32]
 800480e:	f7ff fc73 	bl	80040f8 <UART_EndRxTransfer>
 8004812:	0023      	movs	r3, r4
 8004814:	3308      	adds	r3, #8
 8004816:	67de      	str	r6, [r3, #124]	; 0x7c
 8004818:	2300      	movs	r3, #0
 800481a:	2001      	movs	r0, #1
 800481c:	3478      	adds	r4, #120	; 0x78
 800481e:	7023      	strb	r3, [r4, #0]
 8004820:	bdfe      	pop	{r1, r2, r3, r4, r5, r6, r7, pc}
 8004822:	2280      	movs	r2, #128	; 0x80
 8004824:	69d9      	ldr	r1, [r3, #28]
 8004826:	0112      	lsls	r2, r2, #4
 8004828:	4211      	tst	r1, r2
 800482a:	d0cd      	beq.n	80047c8 <UART_WaitOnFlagUntilTimeout+0xc>
 800482c:	621a      	str	r2, [r3, #32]
 800482e:	0020      	movs	r0, r4
 8004830:	f7ff fc62 	bl	80040f8 <UART_EndRxTransfer>
 8004834:	0023      	movs	r3, r4
 8004836:	2220      	movs	r2, #32
 8004838:	3308      	adds	r3, #8
 800483a:	67da      	str	r2, [r3, #124]	; 0x7c
 800483c:	9b01      	ldr	r3, [sp, #4]
 800483e:	3478      	adds	r4, #120	; 0x78
 8004840:	7023      	strb	r3, [r4, #0]
 8004842:	2003      	movs	r0, #3
 8004844:	e7ec      	b.n	8004820 <UART_WaitOnFlagUntilTimeout+0x64>

08004846 <HAL_UART_Transmit>:
 8004846:	b5f0      	push	{r4, r5, r6, r7, lr}
 8004848:	b085      	sub	sp, #20
 800484a:	9303      	str	r3, [sp, #12]
 800484c:	6fc3      	ldr	r3, [r0, #124]	; 0x7c
 800484e:	0004      	movs	r4, r0
 8004850:	000d      	movs	r5, r1
 8004852:	0016      	movs	r6, r2
 8004854:	2002      	movs	r0, #2
 8004856:	2b20      	cmp	r3, #32
 8004858:	d139      	bne.n	80048ce <HAL_UART_Transmit+0x88>
 800485a:	3801      	subs	r0, #1
 800485c:	2900      	cmp	r1, #0
 800485e:	d036      	beq.n	80048ce <HAL_UART_Transmit+0x88>
 8004860:	2a00      	cmp	r2, #0
 8004862:	d034      	beq.n	80048ce <HAL_UART_Transmit+0x88>
 8004864:	2380      	movs	r3, #128	; 0x80
 8004866:	68a2      	ldr	r2, [r4, #8]
 8004868:	015b      	lsls	r3, r3, #5
 800486a:	429a      	cmp	r2, r3
 800486c:	d104      	bne.n	8004878 <HAL_UART_Transmit+0x32>
 800486e:	6923      	ldr	r3, [r4, #16]
 8004870:	2b00      	cmp	r3, #0
 8004872:	d101      	bne.n	8004878 <HAL_UART_Transmit+0x32>
 8004874:	4201      	tst	r1, r0
 8004876:	d12a      	bne.n	80048ce <HAL_UART_Transmit+0x88>
 8004878:	0023      	movs	r3, r4
 800487a:	2200      	movs	r2, #0
 800487c:	3308      	adds	r3, #8
 800487e:	67da      	str	r2, [r3, #124]	; 0x7c
 8004880:	2321      	movs	r3, #33	; 0x21
 8004882:	67e3      	str	r3, [r4, #124]	; 0x7c
 8004884:	f7fe fb96 	bl	8002fb4 <HAL_GetTick>
 8004888:	0023      	movs	r3, r4
 800488a:	3350      	adds	r3, #80	; 0x50
 800488c:	801e      	strh	r6, [r3, #0]
 800488e:	3302      	adds	r3, #2
 8004890:	801e      	strh	r6, [r3, #0]
 8004892:	9302      	str	r3, [sp, #8]
 8004894:	2380      	movs	r3, #128	; 0x80
 8004896:	68a2      	ldr	r2, [r4, #8]
 8004898:	0007      	movs	r7, r0
 800489a:	2600      	movs	r6, #0
 800489c:	015b      	lsls	r3, r3, #5
 800489e:	429a      	cmp	r2, r3
 80048a0:	d104      	bne.n	80048ac <HAL_UART_Transmit+0x66>
 80048a2:	6923      	ldr	r3, [r4, #16]
 80048a4:	42b3      	cmp	r3, r6
 80048a6:	d101      	bne.n	80048ac <HAL_UART_Transmit+0x66>
 80048a8:	002e      	movs	r6, r5
 80048aa:	001d      	movs	r5, r3
 80048ac:	0023      	movs	r3, r4
 80048ae:	3352      	adds	r3, #82	; 0x52
 80048b0:	881b      	ldrh	r3, [r3, #0]
 80048b2:	b29a      	uxth	r2, r3
 80048b4:	2b00      	cmp	r3, #0
 80048b6:	d10c      	bne.n	80048d2 <HAL_UART_Transmit+0x8c>
 80048b8:	9b03      	ldr	r3, [sp, #12]
 80048ba:	2140      	movs	r1, #64	; 0x40
 80048bc:	9300      	str	r3, [sp, #0]
 80048be:	0020      	movs	r0, r4
 80048c0:	003b      	movs	r3, r7
 80048c2:	f7ff ff7b 	bl	80047bc <UART_WaitOnFlagUntilTimeout>
 80048c6:	2320      	movs	r3, #32
 80048c8:	67e3      	str	r3, [r4, #124]	; 0x7c
 80048ca:	2800      	cmp	r0, #0
 80048cc:	d10d      	bne.n	80048ea <HAL_UART_Transmit+0xa4>
 80048ce:	b005      	add	sp, #20
 80048d0:	bdf0      	pop	{r4, r5, r6, r7, pc}
 80048d2:	9b03      	ldr	r3, [sp, #12]
 80048d4:	2200      	movs	r2, #0
 80048d6:	9300      	str	r3, [sp, #0]
 80048d8:	2180      	movs	r1, #128	; 0x80
 80048da:	003b      	movs	r3, r7
 80048dc:	0020      	movs	r0, r4
 80048de:	f7ff ff6d 	bl	80047bc <UART_WaitOnFlagUntilTimeout>
 80048e2:	2800      	cmp	r0, #0
 80048e4:	d003      	beq.n	80048ee <HAL_UART_Transmit+0xa8>
 80048e6:	2320      	movs	r3, #32
 80048e8:	67e3      	str	r3, [r4, #124]	; 0x7c
 80048ea:	2003      	movs	r0, #3
 80048ec:	e7ef      	b.n	80048ce <HAL_UART_Transmit+0x88>
 80048ee:	6822      	ldr	r2, [r4, #0]
 80048f0:	2d00      	cmp	r5, #0
 80048f2:	d10b      	bne.n	800490c <HAL_UART_Transmit+0xc6>
 80048f4:	8833      	ldrh	r3, [r6, #0]
 80048f6:	3602      	adds	r6, #2
 80048f8:	05db      	lsls	r3, r3, #23
 80048fa:	0ddb      	lsrs	r3, r3, #23
 80048fc:	8513      	strh	r3, [r2, #40]	; 0x28
 80048fe:	9b02      	ldr	r3, [sp, #8]
 8004900:	9a02      	ldr	r2, [sp, #8]
 8004902:	881b      	ldrh	r3, [r3, #0]
 8004904:	3b01      	subs	r3, #1
 8004906:	b29b      	uxth	r3, r3
 8004908:	8013      	strh	r3, [r2, #0]
 800490a:	e7cf      	b.n	80048ac <HAL_UART_Transmit+0x66>
 800490c:	782b      	ldrb	r3, [r5, #0]
 800490e:	3501      	adds	r5, #1
 8004910:	8513      	strh	r3, [r2, #40]	; 0x28
 8004912:	e7f4      	b.n	80048fe <HAL_UART_Transmit+0xb8>

08004914 <UART_CheckIdleState>:
 8004914:	0003      	movs	r3, r0
 8004916:	b573      	push	{r0, r1, r4, r5, r6, lr}
 8004918:	2500      	movs	r5, #0
 800491a:	0004      	movs	r4, r0
 800491c:	3308      	adds	r3, #8
 800491e:	67dd      	str	r5, [r3, #124]	; 0x7c
 8004920:	f7fe fb48 	bl	8002fb4 <HAL_GetTick>
 8004924:	6823      	ldr	r3, [r4, #0]
 8004926:	0006      	movs	r6, r0
 8004928:	681b      	ldr	r3, [r3, #0]
 800492a:	071b      	lsls	r3, r3, #28
 800492c:	d51d      	bpl.n	800496a <UART_CheckIdleState+0x56>
 800492e:	2180      	movs	r1, #128	; 0x80
 8004930:	4b26      	ldr	r3, [pc, #152]	; (80049cc <UART_CheckIdleState+0xb8>)
 8004932:	002a      	movs	r2, r5
 8004934:	9300      	str	r3, [sp, #0]
 8004936:	0389      	lsls	r1, r1, #14
 8004938:	0003      	movs	r3, r0
 800493a:	0020      	movs	r0, r4
 800493c:	f7ff ff3e 	bl	80047bc <UART_WaitOnFlagUntilTimeout>
 8004940:	42a8      	cmp	r0, r5
 8004942:	d012      	beq.n	800496a <UART_CheckIdleState+0x56>
 8004944:	f3ef 8110 	mrs	r1, PRIMASK
 8004948:	2301      	movs	r3, #1
 800494a:	f383 8810 	msr	PRIMASK, r3
 800494e:	2080      	movs	r0, #128	; 0x80
 8004950:	6822      	ldr	r2, [r4, #0]
 8004952:	6813      	ldr	r3, [r2, #0]
 8004954:	4383      	bics	r3, r0
 8004956:	6013      	str	r3, [r2, #0]
 8004958:	f381 8810 	msr	PRIMASK, r1
 800495c:	2320      	movs	r3, #32
 800495e:	67e3      	str	r3, [r4, #124]	; 0x7c
 8004960:	2003      	movs	r0, #3
 8004962:	2300      	movs	r3, #0
 8004964:	3478      	adds	r4, #120	; 0x78
 8004966:	7023      	strb	r3, [r4, #0]
 8004968:	bd76      	pop	{r1, r2, r4, r5, r6, pc}
 800496a:	0025      	movs	r5, r4
 800496c:	cd08      	ldmia	r5!, {r3}
 800496e:	681b      	ldr	r3, [r3, #0]
 8004970:	075b      	lsls	r3, r3, #29
 8004972:	d523      	bpl.n	80049bc <UART_CheckIdleState+0xa8>
 8004974:	2180      	movs	r1, #128	; 0x80
 8004976:	4b15      	ldr	r3, [pc, #84]	; (80049cc <UART_CheckIdleState+0xb8>)
 8004978:	2200      	movs	r2, #0
 800497a:	9300      	str	r3, [sp, #0]
 800497c:	0020      	movs	r0, r4
 800497e:	0033      	movs	r3, r6
 8004980:	03c9      	lsls	r1, r1, #15
 8004982:	f7ff ff1b 	bl	80047bc <UART_WaitOnFlagUntilTimeout>
 8004986:	2800      	cmp	r0, #0
 8004988:	d018      	beq.n	80049bc <UART_CheckIdleState+0xa8>
 800498a:	f3ef 8010 	mrs	r0, PRIMASK
 800498e:	2201      	movs	r2, #1
 8004990:	f382 8810 	msr	PRIMASK, r2
 8004994:	6821      	ldr	r1, [r4, #0]
 8004996:	4e0e      	ldr	r6, [pc, #56]	; (80049d0 <UART_CheckIdleState+0xbc>)
 8004998:	680b      	ldr	r3, [r1, #0]
 800499a:	4033      	ands	r3, r6
 800499c:	600b      	str	r3, [r1, #0]
 800499e:	f380 8810 	msr	PRIMASK, r0
 80049a2:	f3ef 8010 	mrs	r0, PRIMASK
 80049a6:	f382 8810 	msr	PRIMASK, r2
 80049aa:	6821      	ldr	r1, [r4, #0]
 80049ac:	688b      	ldr	r3, [r1, #8]
 80049ae:	4393      	bics	r3, r2
 80049b0:	608b      	str	r3, [r1, #8]
 80049b2:	f380 8810 	msr	PRIMASK, r0
 80049b6:	2320      	movs	r3, #32
 80049b8:	67eb      	str	r3, [r5, #124]	; 0x7c
 80049ba:	e7d1      	b.n	8004960 <UART_CheckIdleState+0x4c>
 80049bc:	2320      	movs	r3, #32
 80049be:	2000      	movs	r0, #0
 80049c0:	67e3      	str	r3, [r4, #124]	; 0x7c
 80049c2:	67eb      	str	r3, [r5, #124]	; 0x7c
 80049c4:	6620      	str	r0, [r4, #96]	; 0x60
 80049c6:	6660      	str	r0, [r4, #100]	; 0x64
 80049c8:	e7cb      	b.n	8004962 <UART_CheckIdleState+0x4e>
 80049ca:	46c0      	nop			; (mov r8, r8)
 80049cc:	01ffffff 	.word	0x01ffffff
 80049d0:	fffffedf 	.word	0xfffffedf

080049d4 <HAL_UART_Init>:
 80049d4:	b510      	push	{r4, lr}
 80049d6:	1e04      	subs	r4, r0, #0
 80049d8:	d101      	bne.n	80049de <HAL_UART_Init+0xa>
 80049da:	2001      	movs	r0, #1
 80049dc:	bd10      	pop	{r4, pc}
 80049de:	6fc3      	ldr	r3, [r0, #124]	; 0x7c
 80049e0:	2b00      	cmp	r3, #0
 80049e2:	d104      	bne.n	80049ee <HAL_UART_Init+0x1a>
 80049e4:	0002      	movs	r2, r0
 80049e6:	3278      	adds	r2, #120	; 0x78
 80049e8:	7013      	strb	r3, [r2, #0]
 80049ea:	f7fe fa15 	bl	8002e18 <HAL_UART_MspInit>
 80049ee:	2324      	movs	r3, #36	; 0x24
 80049f0:	2101      	movs	r1, #1
 80049f2:	6822      	ldr	r2, [r4, #0]
 80049f4:	67e3      	str	r3, [r4, #124]	; 0x7c
 80049f6:	6813      	ldr	r3, [r2, #0]
 80049f8:	0020      	movs	r0, r4
 80049fa:	438b      	bics	r3, r1
 80049fc:	6013      	str	r3, [r2, #0]
 80049fe:	f7ff fdeb 	bl	80045d8 <UART_SetConfig>
 8004a02:	2801      	cmp	r0, #1
 8004a04:	d0e9      	beq.n	80049da <HAL_UART_Init+0x6>
 8004a06:	6a63      	ldr	r3, [r4, #36]	; 0x24
 8004a08:	2b00      	cmp	r3, #0
 8004a0a:	d002      	beq.n	8004a12 <HAL_UART_Init+0x3e>
 8004a0c:	0020      	movs	r0, r4
 8004a0e:	f7ff fe6d 	bl	80046ec <UART_AdvFeatureConfig>
 8004a12:	6823      	ldr	r3, [r4, #0]
 8004a14:	4907      	ldr	r1, [pc, #28]	; (8004a34 <HAL_UART_Init+0x60>)
 8004a16:	685a      	ldr	r2, [r3, #4]
 8004a18:	0020      	movs	r0, r4
 8004a1a:	400a      	ands	r2, r1
 8004a1c:	212a      	movs	r1, #42	; 0x2a
 8004a1e:	605a      	str	r2, [r3, #4]
 8004a20:	689a      	ldr	r2, [r3, #8]
 8004a22:	438a      	bics	r2, r1
 8004a24:	609a      	str	r2, [r3, #8]
 8004a26:	2201      	movs	r2, #1
 8004a28:	6819      	ldr	r1, [r3, #0]
 8004a2a:	430a      	orrs	r2, r1
 8004a2c:	601a      	str	r2, [r3, #0]
 8004a2e:	f7ff ff71 	bl	8004914 <UART_CheckIdleState>
 8004a32:	e7d3      	b.n	80049dc <HAL_UART_Init+0x8>
 8004a34:	ffffb7ff 	.word	0xffffb7ff

08004a38 <UART_Start_Receive_IT>:
 8004a38:	0003      	movs	r3, r0
 8004a3a:	3358      	adds	r3, #88	; 0x58
 8004a3c:	b510      	push	{r4, lr}
 8004a3e:	6541      	str	r1, [r0, #84]	; 0x54
 8004a40:	801a      	strh	r2, [r3, #0]
 8004a42:	805a      	strh	r2, [r3, #2]
 8004a44:	2180      	movs	r1, #128	; 0x80
 8004a46:	2300      	movs	r3, #0
 8004a48:	6882      	ldr	r2, [r0, #8]
 8004a4a:	6683      	str	r3, [r0, #104]	; 0x68
 8004a4c:	0149      	lsls	r1, r1, #5
 8004a4e:	428a      	cmp	r2, r1
 8004a50:	d138      	bne.n	8004ac4 <UART_Start_Receive_IT+0x8c>
 8004a52:	6903      	ldr	r3, [r0, #16]
 8004a54:	1e5a      	subs	r2, r3, #1
 8004a56:	4193      	sbcs	r3, r2
 8004a58:	22ff      	movs	r2, #255	; 0xff
 8004a5a:	425b      	negs	r3, r3
 8004a5c:	4393      	bics	r3, r2
 8004a5e:	4a21      	ldr	r2, [pc, #132]	; (8004ae4 <UART_Start_Receive_IT+0xac>)
 8004a60:	189b      	adds	r3, r3, r2
 8004a62:	0002      	movs	r2, r0
 8004a64:	325c      	adds	r2, #92	; 0x5c
 8004a66:	8013      	strh	r3, [r2, #0]
 8004a68:	0003      	movs	r3, r0
 8004a6a:	2200      	movs	r2, #0
 8004a6c:	3308      	adds	r3, #8
 8004a6e:	67da      	str	r2, [r3, #124]	; 0x7c
 8004a70:	1d03      	adds	r3, r0, #4
 8004a72:	3222      	adds	r2, #34	; 0x22
 8004a74:	67da      	str	r2, [r3, #124]	; 0x7c
 8004a76:	f3ef 8110 	mrs	r1, PRIMASK
 8004a7a:	2301      	movs	r3, #1
 8004a7c:	f383 8810 	msr	PRIMASK, r3
 8004a80:	6802      	ldr	r2, [r0, #0]
 8004a82:	6894      	ldr	r4, [r2, #8]
 8004a84:	4323      	orrs	r3, r4
 8004a86:	6093      	str	r3, [r2, #8]
 8004a88:	f381 8810 	msr	PRIMASK, r1
 8004a8c:	2180      	movs	r1, #128	; 0x80
 8004a8e:	6884      	ldr	r4, [r0, #8]
 8004a90:	6902      	ldr	r2, [r0, #16]
 8004a92:	4b15      	ldr	r3, [pc, #84]	; (8004ae8 <UART_Start_Receive_IT+0xb0>)
 8004a94:	0149      	lsls	r1, r1, #5
 8004a96:	428c      	cmp	r4, r1
 8004a98:	d102      	bne.n	8004aa0 <UART_Start_Receive_IT+0x68>
 8004a9a:	2a00      	cmp	r2, #0
 8004a9c:	d100      	bne.n	8004aa0 <UART_Start_Receive_IT+0x68>
 8004a9e:	4b13      	ldr	r3, [pc, #76]	; (8004aec <UART_Start_Receive_IT+0xb4>)
 8004aa0:	6683      	str	r3, [r0, #104]	; 0x68
 8004aa2:	2301      	movs	r3, #1
 8004aa4:	2a00      	cmp	r2, #0
 8004aa6:	d015      	beq.n	8004ad4 <UART_Start_Receive_IT+0x9c>
 8004aa8:	f3ef 8110 	mrs	r1, PRIMASK
 8004aac:	f383 8810 	msr	PRIMASK, r3
 8004ab0:	6802      	ldr	r2, [r0, #0]
 8004ab2:	3320      	adds	r3, #32
 8004ab4:	6810      	ldr	r0, [r2, #0]
 8004ab6:	33ff      	adds	r3, #255	; 0xff
 8004ab8:	4303      	orrs	r3, r0
 8004aba:	6013      	str	r3, [r2, #0]
 8004abc:	f381 8810 	msr	PRIMASK, r1
 8004ac0:	2000      	movs	r0, #0
 8004ac2:	bd10      	pop	{r4, pc}
 8004ac4:	2a00      	cmp	r2, #0
 8004ac6:	d1cc      	bne.n	8004a62 <UART_Start_Receive_IT+0x2a>
 8004ac8:	6902      	ldr	r2, [r0, #16]
 8004aca:	23ff      	movs	r3, #255	; 0xff
 8004acc:	2a00      	cmp	r2, #0
 8004ace:	d0c8      	beq.n	8004a62 <UART_Start_Receive_IT+0x2a>
 8004ad0:	3b80      	subs	r3, #128	; 0x80
 8004ad2:	e7c6      	b.n	8004a62 <UART_Start_Receive_IT+0x2a>
 8004ad4:	f3ef 8110 	mrs	r1, PRIMASK
 8004ad8:	f383 8810 	msr	PRIMASK, r3
 8004adc:	6802      	ldr	r2, [r0, #0]
 8004ade:	2320      	movs	r3, #32
 8004ae0:	6810      	ldr	r0, [r2, #0]
 8004ae2:	e7e9      	b.n	8004ab8 <UART_Start_Receive_IT+0x80>
 8004ae4:	000001ff 	.word	0x000001ff
 8004ae8:	08004431 	.word	0x08004431
 8004aec:	08004505 	.word	0x08004505

08004af0 <HAL_UART_Receive_IT>:
 8004af0:	0003      	movs	r3, r0
 8004af2:	3004      	adds	r0, #4
 8004af4:	b570      	push	{r4, r5, r6, lr}
 8004af6:	6fc4      	ldr	r4, [r0, #124]	; 0x7c
 8004af8:	2002      	movs	r0, #2
 8004afa:	2c20      	cmp	r4, #32
 8004afc:	d125      	bne.n	8004b4a <HAL_UART_Receive_IT+0x5a>
 8004afe:	3801      	subs	r0, #1
 8004b00:	2900      	cmp	r1, #0
 8004b02:	d022      	beq.n	8004b4a <HAL_UART_Receive_IT+0x5a>
 8004b04:	2a00      	cmp	r2, #0
 8004b06:	d020      	beq.n	8004b4a <HAL_UART_Receive_IT+0x5a>
 8004b08:	2080      	movs	r0, #128	; 0x80
 8004b0a:	689c      	ldr	r4, [r3, #8]
 8004b0c:	0140      	lsls	r0, r0, #5
 8004b0e:	4284      	cmp	r4, r0
 8004b10:	d105      	bne.n	8004b1e <HAL_UART_Receive_IT+0x2e>
 8004b12:	6918      	ldr	r0, [r3, #16]
 8004b14:	2800      	cmp	r0, #0
 8004b16:	d102      	bne.n	8004b1e <HAL_UART_Receive_IT+0x2e>
 8004b18:	3001      	adds	r0, #1
 8004b1a:	4201      	tst	r1, r0
 8004b1c:	d115      	bne.n	8004b4a <HAL_UART_Receive_IT+0x5a>
 8004b1e:	2000      	movs	r0, #0
 8004b20:	6618      	str	r0, [r3, #96]	; 0x60
 8004b22:	6818      	ldr	r0, [r3, #0]
 8004b24:	6840      	ldr	r0, [r0, #4]
 8004b26:	0200      	lsls	r0, r0, #8
 8004b28:	d50c      	bpl.n	8004b44 <HAL_UART_Receive_IT+0x54>
 8004b2a:	f3ef 8510 	mrs	r5, PRIMASK
 8004b2e:	2001      	movs	r0, #1
 8004b30:	f380 8810 	msr	PRIMASK, r0
 8004b34:	2080      	movs	r0, #128	; 0x80
 8004b36:	681c      	ldr	r4, [r3, #0]
 8004b38:	04c0      	lsls	r0, r0, #19
 8004b3a:	6826      	ldr	r6, [r4, #0]
 8004b3c:	4330      	orrs	r0, r6
 8004b3e:	6020      	str	r0, [r4, #0]
 8004b40:	f385 8810 	msr	PRIMASK, r5
 8004b44:	0018      	movs	r0, r3
 8004b46:	f7ff ff77 	bl	8004a38 <UART_Start_Receive_IT>
 8004b4a:	bd70      	pop	{r4, r5, r6, pc}

08004b4c <HAL_UARTEx_WakeupCallback>:
 8004b4c:	4770      	bx	lr
	...

08004b50 <asin>:
 8004b50:	b5f8      	push	{r3, r4, r5, r6, r7, lr}
 8004b52:	0004      	movs	r4, r0
 8004b54:	000d      	movs	r5, r1
 8004b56:	f000 fbc9 	bl	80052ec <__ieee754_asin>
 8004b5a:	0022      	movs	r2, r4
 8004b5c:	0006      	movs	r6, r0
 8004b5e:	000f      	movs	r7, r1
 8004b60:	002b      	movs	r3, r5
 8004b62:	0020      	movs	r0, r4
 8004b64:	0029      	movs	r1, r5
 8004b66:	f7fd fa3f 	bl	8001fe8 <__aeabi_dcmpun>
 8004b6a:	2800      	cmp	r0, #0
 8004b6c:	d112      	bne.n	8004b94 <asin+0x44>
 8004b6e:	0020      	movs	r0, r4
 8004b70:	0029      	movs	r1, r5
 8004b72:	f000 fa01 	bl	8004f78 <fabs>
 8004b76:	2200      	movs	r2, #0
 8004b78:	4b08      	ldr	r3, [pc, #32]	; (8004b9c <asin+0x4c>)
 8004b7a:	f7fb fc83 	bl	8000484 <__aeabi_dcmpgt>
 8004b7e:	2800      	cmp	r0, #0
 8004b80:	d008      	beq.n	8004b94 <asin+0x44>
 8004b82:	f001 fde7 	bl	8006754 <__errno>
 8004b86:	2321      	movs	r3, #33	; 0x21
 8004b88:	6003      	str	r3, [r0, #0]
 8004b8a:	4805      	ldr	r0, [pc, #20]	; (8004ba0 <asin+0x50>)
 8004b8c:	f000 fa3c 	bl	8005008 <nan>
 8004b90:	0006      	movs	r6, r0
 8004b92:	000f      	movs	r7, r1
 8004b94:	0030      	movs	r0, r6
 8004b96:	0039      	movs	r1, r7
 8004b98:	bdf8      	pop	{r3, r4, r5, r6, r7, pc}
 8004b9a:	46c0      	nop			; (mov r8, r8)
 8004b9c:	3ff00000 	.word	0x3ff00000
 8004ba0:	0800684f 	.word	0x0800684f

08004ba4 <fmod>:
 8004ba4:	b5f7      	push	{r0, r1, r2, r4, r5, r6, r7, lr}
 8004ba6:	0006      	movs	r6, r0
 8004ba8:	000f      	movs	r7, r1
 8004baa:	0014      	movs	r4, r2
 8004bac:	001d      	movs	r5, r3
 8004bae:	f000 fd75 	bl	800569c <__ieee754_fmod>
 8004bb2:	0022      	movs	r2, r4
 8004bb4:	9000      	str	r0, [sp, #0]
 8004bb6:	9101      	str	r1, [sp, #4]
 8004bb8:	002b      	movs	r3, r5
 8004bba:	0030      	movs	r0, r6
 8004bbc:	0039      	movs	r1, r7
 8004bbe:	f7fd fa13 	bl	8001fe8 <__aeabi_dcmpun>
 8004bc2:	2800      	cmp	r0, #0
 8004bc4:	d113      	bne.n	8004bee <fmod+0x4a>
 8004bc6:	2200      	movs	r2, #0
 8004bc8:	2300      	movs	r3, #0
 8004bca:	0020      	movs	r0, r4
 8004bcc:	0029      	movs	r1, r5
 8004bce:	f7fb fc3f 	bl	8000450 <__aeabi_dcmpeq>
 8004bd2:	2800      	cmp	r0, #0
 8004bd4:	d00b      	beq.n	8004bee <fmod+0x4a>
 8004bd6:	f001 fdbd 	bl	8006754 <__errno>
 8004bda:	2321      	movs	r3, #33	; 0x21
 8004bdc:	2200      	movs	r2, #0
 8004bde:	6003      	str	r3, [r0, #0]
 8004be0:	2300      	movs	r3, #0
 8004be2:	0010      	movs	r0, r2
 8004be4:	0019      	movs	r1, r3
 8004be6:	f7fb ffc1 	bl	8000b6c <__aeabi_ddiv>
 8004bea:	9000      	str	r0, [sp, #0]
 8004bec:	9101      	str	r1, [sp, #4]
 8004bee:	9800      	ldr	r0, [sp, #0]
 8004bf0:	9901      	ldr	r1, [sp, #4]
 8004bf2:	b003      	add	sp, #12
 8004bf4:	bdf0      	pop	{r4, r5, r6, r7, pc}
	...

08004bf8 <atan>:
 8004bf8:	b5f0      	push	{r4, r5, r6, r7, lr}
 8004bfa:	4b98      	ldr	r3, [pc, #608]	; (8004e5c <atan+0x264>)
 8004bfc:	b085      	sub	sp, #20
 8004bfe:	004e      	lsls	r6, r1, #1
 8004c00:	0004      	movs	r4, r0
 8004c02:	000d      	movs	r5, r1
 8004c04:	9103      	str	r1, [sp, #12]
 8004c06:	0876      	lsrs	r6, r6, #1
 8004c08:	429e      	cmp	r6, r3
 8004c0a:	dd18      	ble.n	8004c3e <atan+0x46>
 8004c0c:	4b94      	ldr	r3, [pc, #592]	; (8004e60 <atan+0x268>)
 8004c0e:	429e      	cmp	r6, r3
 8004c10:	dc02      	bgt.n	8004c18 <atan+0x20>
 8004c12:	d10a      	bne.n	8004c2a <atan+0x32>
 8004c14:	2800      	cmp	r0, #0
 8004c16:	d008      	beq.n	8004c2a <atan+0x32>
 8004c18:	0022      	movs	r2, r4
 8004c1a:	002b      	movs	r3, r5
 8004c1c:	0020      	movs	r0, r4
 8004c1e:	0029      	movs	r1, r5
 8004c20:	f7fb fc44 	bl	80004ac <__aeabi_dadd>
 8004c24:	0004      	movs	r4, r0
 8004c26:	000d      	movs	r5, r1
 8004c28:	e005      	b.n	8004c36 <atan+0x3e>
 8004c2a:	9b03      	ldr	r3, [sp, #12]
 8004c2c:	4c8d      	ldr	r4, [pc, #564]	; (8004e64 <atan+0x26c>)
 8004c2e:	2b00      	cmp	r3, #0
 8004c30:	dd00      	ble.n	8004c34 <atan+0x3c>
 8004c32:	e110      	b.n	8004e56 <atan+0x25e>
 8004c34:	4d8c      	ldr	r5, [pc, #560]	; (8004e68 <atan+0x270>)
 8004c36:	0020      	movs	r0, r4
 8004c38:	0029      	movs	r1, r5
 8004c3a:	b005      	add	sp, #20
 8004c3c:	bdf0      	pop	{r4, r5, r6, r7, pc}
 8004c3e:	4b8b      	ldr	r3, [pc, #556]	; (8004e6c <atan+0x274>)
 8004c40:	429e      	cmp	r6, r3
 8004c42:	dc0f      	bgt.n	8004c64 <atan+0x6c>
 8004c44:	4b8a      	ldr	r3, [pc, #552]	; (8004e70 <atan+0x278>)
 8004c46:	429e      	cmp	r6, r3
 8004c48:	dc09      	bgt.n	8004c5e <atan+0x66>
 8004c4a:	4a8a      	ldr	r2, [pc, #552]	; (8004e74 <atan+0x27c>)
 8004c4c:	4b8a      	ldr	r3, [pc, #552]	; (8004e78 <atan+0x280>)
 8004c4e:	f7fb fc2d 	bl	80004ac <__aeabi_dadd>
 8004c52:	2200      	movs	r2, #0
 8004c54:	4b89      	ldr	r3, [pc, #548]	; (8004e7c <atan+0x284>)
 8004c56:	f7fb fc15 	bl	8000484 <__aeabi_dcmpgt>
 8004c5a:	2800      	cmp	r0, #0
 8004c5c:	d1eb      	bne.n	8004c36 <atan+0x3e>
 8004c5e:	2301      	movs	r3, #1
 8004c60:	425b      	negs	r3, r3
 8004c62:	e025      	b.n	8004cb0 <atan+0xb8>
 8004c64:	f000 f988 	bl	8004f78 <fabs>
 8004c68:	4b85      	ldr	r3, [pc, #532]	; (8004e80 <atan+0x288>)
 8004c6a:	0004      	movs	r4, r0
 8004c6c:	000d      	movs	r5, r1
 8004c6e:	429e      	cmp	r6, r3
 8004c70:	dd00      	ble.n	8004c74 <atan+0x7c>
 8004c72:	e0aa      	b.n	8004dca <atan+0x1d2>
 8004c74:	4b83      	ldr	r3, [pc, #524]	; (8004e84 <atan+0x28c>)
 8004c76:	429e      	cmp	r6, r3
 8004c78:	dd00      	ble.n	8004c7c <atan+0x84>
 8004c7a:	e090      	b.n	8004d9e <atan+0x1a6>
 8004c7c:	0002      	movs	r2, r0
 8004c7e:	000b      	movs	r3, r1
 8004c80:	f7fb fc14 	bl	80004ac <__aeabi_dadd>
 8004c84:	2200      	movs	r2, #0
 8004c86:	4b7d      	ldr	r3, [pc, #500]	; (8004e7c <atan+0x284>)
 8004c88:	f7fc fe2c 	bl	80018e4 <__aeabi_dsub>
 8004c8c:	2380      	movs	r3, #128	; 0x80
 8004c8e:	0006      	movs	r6, r0
 8004c90:	000f      	movs	r7, r1
 8004c92:	2200      	movs	r2, #0
 8004c94:	0020      	movs	r0, r4
 8004c96:	0029      	movs	r1, r5
 8004c98:	05db      	lsls	r3, r3, #23
 8004c9a:	f7fb fc07 	bl	80004ac <__aeabi_dadd>
 8004c9e:	000b      	movs	r3, r1
 8004ca0:	0002      	movs	r2, r0
 8004ca2:	0039      	movs	r1, r7
 8004ca4:	0030      	movs	r0, r6
 8004ca6:	f7fb ff61 	bl	8000b6c <__aeabi_ddiv>
 8004caa:	2300      	movs	r3, #0
 8004cac:	0004      	movs	r4, r0
 8004cae:	000d      	movs	r5, r1
 8004cb0:	0022      	movs	r2, r4
 8004cb2:	9302      	str	r3, [sp, #8]
 8004cb4:	0020      	movs	r0, r4
 8004cb6:	002b      	movs	r3, r5
 8004cb8:	0029      	movs	r1, r5
 8004cba:	f7fc fb51 	bl	8001360 <__aeabi_dmul>
 8004cbe:	0002      	movs	r2, r0
 8004cc0:	000b      	movs	r3, r1
 8004cc2:	9000      	str	r0, [sp, #0]
 8004cc4:	9101      	str	r1, [sp, #4]
 8004cc6:	f7fc fb4b 	bl	8001360 <__aeabi_dmul>
 8004cca:	0006      	movs	r6, r0
 8004ccc:	000f      	movs	r7, r1
 8004cce:	4a6e      	ldr	r2, [pc, #440]	; (8004e88 <atan+0x290>)
 8004cd0:	4b6e      	ldr	r3, [pc, #440]	; (8004e8c <atan+0x294>)
 8004cd2:	f7fc fb45 	bl	8001360 <__aeabi_dmul>
 8004cd6:	4a6e      	ldr	r2, [pc, #440]	; (8004e90 <atan+0x298>)
 8004cd8:	4b6e      	ldr	r3, [pc, #440]	; (8004e94 <atan+0x29c>)
 8004cda:	f7fb fbe7 	bl	80004ac <__aeabi_dadd>
 8004cde:	0032      	movs	r2, r6
 8004ce0:	003b      	movs	r3, r7
 8004ce2:	f7fc fb3d 	bl	8001360 <__aeabi_dmul>
 8004ce6:	4a6c      	ldr	r2, [pc, #432]	; (8004e98 <atan+0x2a0>)
 8004ce8:	4b6c      	ldr	r3, [pc, #432]	; (8004e9c <atan+0x2a4>)
 8004cea:	f7fb fbdf 	bl	80004ac <__aeabi_dadd>
 8004cee:	0032      	movs	r2, r6
 8004cf0:	003b      	movs	r3, r7
 8004cf2:	f7fc fb35 	bl	8001360 <__aeabi_dmul>
 8004cf6:	4a6a      	ldr	r2, [pc, #424]	; (8004ea0 <atan+0x2a8>)
 8004cf8:	4b6a      	ldr	r3, [pc, #424]	; (8004ea4 <atan+0x2ac>)
 8004cfa:	f7fb fbd7 	bl	80004ac <__aeabi_dadd>
 8004cfe:	0032      	movs	r2, r6
 8004d00:	003b      	movs	r3, r7
 8004d02:	f7fc fb2d 	bl	8001360 <__aeabi_dmul>
 8004d06:	4a68      	ldr	r2, [pc, #416]	; (8004ea8 <atan+0x2b0>)
 8004d08:	4b68      	ldr	r3, [pc, #416]	; (8004eac <atan+0x2b4>)
 8004d0a:	f7fb fbcf 	bl	80004ac <__aeabi_dadd>
 8004d0e:	0032      	movs	r2, r6
 8004d10:	003b      	movs	r3, r7
 8004d12:	f7fc fb25 	bl	8001360 <__aeabi_dmul>
 8004d16:	4a66      	ldr	r2, [pc, #408]	; (8004eb0 <atan+0x2b8>)
 8004d18:	4b66      	ldr	r3, [pc, #408]	; (8004eb4 <atan+0x2bc>)
 8004d1a:	f7fb fbc7 	bl	80004ac <__aeabi_dadd>
 8004d1e:	9a00      	ldr	r2, [sp, #0]
 8004d20:	9b01      	ldr	r3, [sp, #4]
 8004d22:	f7fc fb1d 	bl	8001360 <__aeabi_dmul>
 8004d26:	4a64      	ldr	r2, [pc, #400]	; (8004eb8 <atan+0x2c0>)
 8004d28:	9000      	str	r0, [sp, #0]
 8004d2a:	9101      	str	r1, [sp, #4]
 8004d2c:	4b63      	ldr	r3, [pc, #396]	; (8004ebc <atan+0x2c4>)
 8004d2e:	0030      	movs	r0, r6
 8004d30:	0039      	movs	r1, r7
 8004d32:	f7fc fb15 	bl	8001360 <__aeabi_dmul>
 8004d36:	4a62      	ldr	r2, [pc, #392]	; (8004ec0 <atan+0x2c8>)
 8004d38:	4b62      	ldr	r3, [pc, #392]	; (8004ec4 <atan+0x2cc>)
 8004d3a:	f7fc fdd3 	bl	80018e4 <__aeabi_dsub>
 8004d3e:	0032      	movs	r2, r6
 8004d40:	003b      	movs	r3, r7
 8004d42:	f7fc fb0d 	bl	8001360 <__aeabi_dmul>
 8004d46:	4a60      	ldr	r2, [pc, #384]	; (8004ec8 <atan+0x2d0>)
 8004d48:	4b60      	ldr	r3, [pc, #384]	; (8004ecc <atan+0x2d4>)
 8004d4a:	f7fc fdcb 	bl	80018e4 <__aeabi_dsub>
 8004d4e:	0032      	movs	r2, r6
 8004d50:	003b      	movs	r3, r7
 8004d52:	f7fc fb05 	bl	8001360 <__aeabi_dmul>
 8004d56:	4a5e      	ldr	r2, [pc, #376]	; (8004ed0 <atan+0x2d8>)
 8004d58:	4b5e      	ldr	r3, [pc, #376]	; (8004ed4 <atan+0x2dc>)
 8004d5a:	f7fc fdc3 	bl	80018e4 <__aeabi_dsub>
 8004d5e:	0032      	movs	r2, r6
 8004d60:	003b      	movs	r3, r7
 8004d62:	f7fc fafd 	bl	8001360 <__aeabi_dmul>
 8004d66:	4a5c      	ldr	r2, [pc, #368]	; (8004ed8 <atan+0x2e0>)
 8004d68:	4b5c      	ldr	r3, [pc, #368]	; (8004edc <atan+0x2e4>)
 8004d6a:	f7fc fdbb 	bl	80018e4 <__aeabi_dsub>
 8004d6e:	0032      	movs	r2, r6
 8004d70:	003b      	movs	r3, r7
 8004d72:	f7fc faf5 	bl	8001360 <__aeabi_dmul>
 8004d76:	0002      	movs	r2, r0
 8004d78:	000b      	movs	r3, r1
 8004d7a:	9800      	ldr	r0, [sp, #0]
 8004d7c:	9901      	ldr	r1, [sp, #4]
 8004d7e:	f7fb fb95 	bl	80004ac <__aeabi_dadd>
 8004d82:	002b      	movs	r3, r5
 8004d84:	0022      	movs	r2, r4
 8004d86:	f7fc faeb 	bl	8001360 <__aeabi_dmul>
 8004d8a:	9b02      	ldr	r3, [sp, #8]
 8004d8c:	3301      	adds	r3, #1
 8004d8e:	d143      	bne.n	8004e18 <atan+0x220>
 8004d90:	0002      	movs	r2, r0
 8004d92:	000b      	movs	r3, r1
 8004d94:	0020      	movs	r0, r4
 8004d96:	0029      	movs	r1, r5
 8004d98:	f7fc fda4 	bl	80018e4 <__aeabi_dsub>
 8004d9c:	e742      	b.n	8004c24 <atan+0x2c>
 8004d9e:	2200      	movs	r2, #0
 8004da0:	4b36      	ldr	r3, [pc, #216]	; (8004e7c <atan+0x284>)
 8004da2:	f7fc fd9f 	bl	80018e4 <__aeabi_dsub>
 8004da6:	2200      	movs	r2, #0
 8004da8:	0006      	movs	r6, r0
 8004daa:	000f      	movs	r7, r1
 8004dac:	0020      	movs	r0, r4
 8004dae:	0029      	movs	r1, r5
 8004db0:	4b32      	ldr	r3, [pc, #200]	; (8004e7c <atan+0x284>)
 8004db2:	f7fb fb7b 	bl	80004ac <__aeabi_dadd>
 8004db6:	000b      	movs	r3, r1
 8004db8:	0002      	movs	r2, r0
 8004dba:	0039      	movs	r1, r7
 8004dbc:	0030      	movs	r0, r6
 8004dbe:	f7fb fed5 	bl	8000b6c <__aeabi_ddiv>
 8004dc2:	2301      	movs	r3, #1
 8004dc4:	0004      	movs	r4, r0
 8004dc6:	000d      	movs	r5, r1
 8004dc8:	e772      	b.n	8004cb0 <atan+0xb8>
 8004dca:	4b45      	ldr	r3, [pc, #276]	; (8004ee0 <atan+0x2e8>)
 8004dcc:	429e      	cmp	r6, r3
 8004dce:	dc19      	bgt.n	8004e04 <atan+0x20c>
 8004dd0:	2200      	movs	r2, #0
 8004dd2:	4b44      	ldr	r3, [pc, #272]	; (8004ee4 <atan+0x2ec>)
 8004dd4:	f7fc fd86 	bl	80018e4 <__aeabi_dsub>
 8004dd8:	2200      	movs	r2, #0
 8004dda:	0006      	movs	r6, r0
 8004ddc:	000f      	movs	r7, r1
 8004dde:	0020      	movs	r0, r4
 8004de0:	0029      	movs	r1, r5
 8004de2:	4b40      	ldr	r3, [pc, #256]	; (8004ee4 <atan+0x2ec>)
 8004de4:	f7fc fabc 	bl	8001360 <__aeabi_dmul>
 8004de8:	2200      	movs	r2, #0
 8004dea:	4b24      	ldr	r3, [pc, #144]	; (8004e7c <atan+0x284>)
 8004dec:	f7fb fb5e 	bl	80004ac <__aeabi_dadd>
 8004df0:	000b      	movs	r3, r1
 8004df2:	0002      	movs	r2, r0
 8004df4:	0039      	movs	r1, r7
 8004df6:	0030      	movs	r0, r6
 8004df8:	f7fb feb8 	bl	8000b6c <__aeabi_ddiv>
 8004dfc:	2302      	movs	r3, #2
 8004dfe:	0004      	movs	r4, r0
 8004e00:	000d      	movs	r5, r1
 8004e02:	e755      	b.n	8004cb0 <atan+0xb8>
 8004e04:	000b      	movs	r3, r1
 8004e06:	0002      	movs	r2, r0
 8004e08:	4937      	ldr	r1, [pc, #220]	; (8004ee8 <atan+0x2f0>)
 8004e0a:	2000      	movs	r0, #0
 8004e0c:	f7fb feae 	bl	8000b6c <__aeabi_ddiv>
 8004e10:	2303      	movs	r3, #3
 8004e12:	0004      	movs	r4, r0
 8004e14:	000d      	movs	r5, r1
 8004e16:	e74b      	b.n	8004cb0 <atan+0xb8>
 8004e18:	9b02      	ldr	r3, [sp, #8]
 8004e1a:	4e34      	ldr	r6, [pc, #208]	; (8004eec <atan+0x2f4>)
 8004e1c:	00db      	lsls	r3, r3, #3
 8004e1e:	4f34      	ldr	r7, [pc, #208]	; (8004ef0 <atan+0x2f8>)
 8004e20:	18f6      	adds	r6, r6, r3
 8004e22:	18ff      	adds	r7, r7, r3
 8004e24:	6832      	ldr	r2, [r6, #0]
 8004e26:	6873      	ldr	r3, [r6, #4]
 8004e28:	f7fc fd5c 	bl	80018e4 <__aeabi_dsub>
 8004e2c:	0022      	movs	r2, r4
 8004e2e:	002b      	movs	r3, r5
 8004e30:	f7fc fd58 	bl	80018e4 <__aeabi_dsub>
 8004e34:	000b      	movs	r3, r1
 8004e36:	0002      	movs	r2, r0
 8004e38:	6838      	ldr	r0, [r7, #0]
 8004e3a:	6879      	ldr	r1, [r7, #4]
 8004e3c:	f7fc fd52 	bl	80018e4 <__aeabi_dsub>
 8004e40:	9b03      	ldr	r3, [sp, #12]
 8004e42:	0004      	movs	r4, r0
 8004e44:	000d      	movs	r5, r1
 8004e46:	2b00      	cmp	r3, #0
 8004e48:	db00      	blt.n	8004e4c <atan+0x254>
 8004e4a:	e6f4      	b.n	8004c36 <atan+0x3e>
 8004e4c:	2180      	movs	r1, #128	; 0x80
 8004e4e:	0609      	lsls	r1, r1, #24
 8004e50:	186b      	adds	r3, r5, r1
 8004e52:	001d      	movs	r5, r3
 8004e54:	e6ef      	b.n	8004c36 <atan+0x3e>
 8004e56:	4d27      	ldr	r5, [pc, #156]	; (8004ef4 <atan+0x2fc>)
 8004e58:	e6ed      	b.n	8004c36 <atan+0x3e>
 8004e5a:	46c0      	nop			; (mov r8, r8)
 8004e5c:	440fffff 	.word	0x440fffff
 8004e60:	7ff00000 	.word	0x7ff00000
 8004e64:	54442d18 	.word	0x54442d18
 8004e68:	bff921fb 	.word	0xbff921fb
 8004e6c:	3fdbffff 	.word	0x3fdbffff
 8004e70:	3e1fffff 	.word	0x3e1fffff
 8004e74:	8800759c 	.word	0x8800759c
 8004e78:	7e37e43c 	.word	0x7e37e43c
 8004e7c:	3ff00000 	.word	0x3ff00000
 8004e80:	3ff2ffff 	.word	0x3ff2ffff
 8004e84:	3fe5ffff 	.word	0x3fe5ffff
 8004e88:	e322da11 	.word	0xe322da11
 8004e8c:	3f90ad3a 	.word	0x3f90ad3a
 8004e90:	24760deb 	.word	0x24760deb
 8004e94:	3fa97b4b 	.word	0x3fa97b4b
 8004e98:	a0d03d51 	.word	0xa0d03d51
 8004e9c:	3fb10d66 	.word	0x3fb10d66
 8004ea0:	c54c206e 	.word	0xc54c206e
 8004ea4:	3fb745cd 	.word	0x3fb745cd
 8004ea8:	920083ff 	.word	0x920083ff
 8004eac:	3fc24924 	.word	0x3fc24924
 8004eb0:	5555550d 	.word	0x5555550d
 8004eb4:	3fd55555 	.word	0x3fd55555
 8004eb8:	2c6a6c2f 	.word	0x2c6a6c2f
 8004ebc:	bfa2b444 	.word	0xbfa2b444
 8004ec0:	52defd9a 	.word	0x52defd9a
 8004ec4:	3fadde2d 	.word	0x3fadde2d
 8004ec8:	af749a6d 	.word	0xaf749a6d
 8004ecc:	3fb3b0f2 	.word	0x3fb3b0f2
 8004ed0:	fe231671 	.word	0xfe231671
 8004ed4:	3fbc71c6 	.word	0x3fbc71c6
 8004ed8:	9998ebc4 	.word	0x9998ebc4
 8004edc:	3fc99999 	.word	0x3fc99999
 8004ee0:	40037fff 	.word	0x40037fff
 8004ee4:	3ff80000 	.word	0x3ff80000
 8004ee8:	bff00000 	.word	0xbff00000
 8004eec:	080068d8 	.word	0x080068d8
 8004ef0:	080068b8 	.word	0x080068b8
 8004ef4:	3ff921fb 	.word	0x3ff921fb

08004ef8 <cos>:
 8004ef8:	b5f0      	push	{r4, r5, r6, r7, lr}
 8004efa:	4a1d      	ldr	r2, [pc, #116]	; (8004f70 <cos+0x78>)
 8004efc:	004b      	lsls	r3, r1, #1
 8004efe:	b087      	sub	sp, #28
 8004f00:	085b      	lsrs	r3, r3, #1
 8004f02:	4293      	cmp	r3, r2
 8004f04:	dc04      	bgt.n	8004f10 <cos+0x18>
 8004f06:	2200      	movs	r2, #0
 8004f08:	2300      	movs	r3, #0
 8004f0a:	f000 f883 	bl	8005014 <__kernel_cos>
 8004f0e:	e006      	b.n	8004f1e <cos+0x26>
 8004f10:	4a18      	ldr	r2, [pc, #96]	; (8004f74 <cos+0x7c>)
 8004f12:	4293      	cmp	r3, r2
 8004f14:	dd05      	ble.n	8004f22 <cos+0x2a>
 8004f16:	0002      	movs	r2, r0
 8004f18:	000b      	movs	r3, r1
 8004f1a:	f7fc fce3 	bl	80018e4 <__aeabi_dsub>
 8004f1e:	b007      	add	sp, #28
 8004f20:	bdf0      	pop	{r4, r5, r6, r7, pc}
 8004f22:	aa02      	add	r2, sp, #8
 8004f24:	f000 fcd0 	bl	80058c8 <__ieee754_rem_pio2>
 8004f28:	9c04      	ldr	r4, [sp, #16]
 8004f2a:	9d05      	ldr	r5, [sp, #20]
 8004f2c:	2303      	movs	r3, #3
 8004f2e:	4003      	ands	r3, r0
 8004f30:	9802      	ldr	r0, [sp, #8]
 8004f32:	9903      	ldr	r1, [sp, #12]
 8004f34:	2b01      	cmp	r3, #1
 8004f36:	d006      	beq.n	8004f46 <cos+0x4e>
 8004f38:	2b02      	cmp	r3, #2
 8004f3a:	d00d      	beq.n	8004f58 <cos+0x60>
 8004f3c:	2b00      	cmp	r3, #0
 8004f3e:	d110      	bne.n	8004f62 <cos+0x6a>
 8004f40:	0022      	movs	r2, r4
 8004f42:	002b      	movs	r3, r5
 8004f44:	e7e1      	b.n	8004f0a <cos+0x12>
 8004f46:	9300      	str	r3, [sp, #0]
 8004f48:	0022      	movs	r2, r4
 8004f4a:	002b      	movs	r3, r5
 8004f4c:	f000 f922 	bl	8005194 <__kernel_sin>
 8004f50:	2380      	movs	r3, #128	; 0x80
 8004f52:	061b      	lsls	r3, r3, #24
 8004f54:	18c9      	adds	r1, r1, r3
 8004f56:	e7e2      	b.n	8004f1e <cos+0x26>
 8004f58:	0022      	movs	r2, r4
 8004f5a:	002b      	movs	r3, r5
 8004f5c:	f000 f85a 	bl	8005014 <__kernel_cos>
 8004f60:	e7f6      	b.n	8004f50 <cos+0x58>
 8004f62:	2301      	movs	r3, #1
 8004f64:	0022      	movs	r2, r4
 8004f66:	9300      	str	r3, [sp, #0]
 8004f68:	002b      	movs	r3, r5
 8004f6a:	f000 f913 	bl	8005194 <__kernel_sin>
 8004f6e:	e7d6      	b.n	8004f1e <cos+0x26>
 8004f70:	3fe921fb 	.word	0x3fe921fb
 8004f74:	7fefffff 	.word	0x7fefffff

08004f78 <fabs>:
 8004f78:	0049      	lsls	r1, r1, #1
 8004f7a:	084b      	lsrs	r3, r1, #1
 8004f7c:	0019      	movs	r1, r3
 8004f7e:	4770      	bx	lr

08004f80 <sin>:
 8004f80:	b5f0      	push	{r4, r5, r6, r7, lr}
 8004f82:	4a1f      	ldr	r2, [pc, #124]	; (8005000 <sin+0x80>)
 8004f84:	004b      	lsls	r3, r1, #1
 8004f86:	b087      	sub	sp, #28
 8004f88:	085b      	lsrs	r3, r3, #1
 8004f8a:	4293      	cmp	r3, r2
 8004f8c:	dc06      	bgt.n	8004f9c <sin+0x1c>
 8004f8e:	2300      	movs	r3, #0
 8004f90:	2200      	movs	r2, #0
 8004f92:	9300      	str	r3, [sp, #0]
 8004f94:	2300      	movs	r3, #0
 8004f96:	f000 f8fd 	bl	8005194 <__kernel_sin>
 8004f9a:	e006      	b.n	8004faa <sin+0x2a>
 8004f9c:	4a19      	ldr	r2, [pc, #100]	; (8005004 <sin+0x84>)
 8004f9e:	4293      	cmp	r3, r2
 8004fa0:	dd05      	ble.n	8004fae <sin+0x2e>
 8004fa2:	0002      	movs	r2, r0
 8004fa4:	000b      	movs	r3, r1
 8004fa6:	f7fc fc9d 	bl	80018e4 <__aeabi_dsub>
 8004faa:	b007      	add	sp, #28
 8004fac:	bdf0      	pop	{r4, r5, r6, r7, pc}
 8004fae:	aa02      	add	r2, sp, #8
 8004fb0:	f000 fc8a 	bl	80058c8 <__ieee754_rem_pio2>
 8004fb4:	9c04      	ldr	r4, [sp, #16]
 8004fb6:	9d05      	ldr	r5, [sp, #20]
 8004fb8:	2303      	movs	r3, #3
 8004fba:	4003      	ands	r3, r0
 8004fbc:	9802      	ldr	r0, [sp, #8]
 8004fbe:	9903      	ldr	r1, [sp, #12]
 8004fc0:	2b01      	cmp	r3, #1
 8004fc2:	d008      	beq.n	8004fd6 <sin+0x56>
 8004fc4:	2b02      	cmp	r3, #2
 8004fc6:	d00b      	beq.n	8004fe0 <sin+0x60>
 8004fc8:	2b00      	cmp	r3, #0
 8004fca:	d113      	bne.n	8004ff4 <sin+0x74>
 8004fcc:	3301      	adds	r3, #1
 8004fce:	9300      	str	r3, [sp, #0]
 8004fd0:	0022      	movs	r2, r4
 8004fd2:	002b      	movs	r3, r5
 8004fd4:	e7df      	b.n	8004f96 <sin+0x16>
 8004fd6:	0022      	movs	r2, r4
 8004fd8:	002b      	movs	r3, r5
 8004fda:	f000 f81b 	bl	8005014 <__kernel_cos>
 8004fde:	e7e4      	b.n	8004faa <sin+0x2a>
 8004fe0:	2301      	movs	r3, #1
 8004fe2:	0022      	movs	r2, r4
 8004fe4:	9300      	str	r3, [sp, #0]
 8004fe6:	002b      	movs	r3, r5
 8004fe8:	f000 f8d4 	bl	8005194 <__kernel_sin>
 8004fec:	2380      	movs	r3, #128	; 0x80
 8004fee:	061b      	lsls	r3, r3, #24
 8004ff0:	18c9      	adds	r1, r1, r3
 8004ff2:	e7da      	b.n	8004faa <sin+0x2a>
 8004ff4:	0022      	movs	r2, r4
 8004ff6:	002b      	movs	r3, r5
 8004ff8:	f000 f80c 	bl	8005014 <__kernel_cos>
 8004ffc:	e7f6      	b.n	8004fec <sin+0x6c>
 8004ffe:	46c0      	nop			; (mov r8, r8)
 8005000:	3fe921fb 	.word	0x3fe921fb
 8005004:	7fefffff 	.word	0x7fefffff

08005008 <nan>:
 8005008:	2000      	movs	r0, #0
 800500a:	4901      	ldr	r1, [pc, #4]	; (8005010 <nan+0x8>)
 800500c:	4770      	bx	lr
 800500e:	46c0      	nop			; (mov r8, r8)
 8005010:	7ff80000 	.word	0x7ff80000

08005014 <__kernel_cos>:
 8005014:	b5f0      	push	{r4, r5, r6, r7, lr}
 8005016:	b087      	sub	sp, #28
 8005018:	9204      	str	r2, [sp, #16]
 800501a:	9305      	str	r3, [sp, #20]
 800501c:	004b      	lsls	r3, r1, #1
 800501e:	085b      	lsrs	r3, r3, #1
 8005020:	9300      	str	r3, [sp, #0]
 8005022:	23f9      	movs	r3, #249	; 0xf9
 8005024:	9a00      	ldr	r2, [sp, #0]
 8005026:	0007      	movs	r7, r0
 8005028:	000e      	movs	r6, r1
 800502a:	059b      	lsls	r3, r3, #22
 800502c:	429a      	cmp	r2, r3
 800502e:	da04      	bge.n	800503a <__kernel_cos+0x26>
 8005030:	f7fc fff8 	bl	8002024 <__aeabi_d2iz>
 8005034:	2800      	cmp	r0, #0
 8005036:	d100      	bne.n	800503a <__kernel_cos+0x26>
 8005038:	e084      	b.n	8005144 <__kernel_cos+0x130>
 800503a:	003a      	movs	r2, r7
 800503c:	0033      	movs	r3, r6
 800503e:	0038      	movs	r0, r7
 8005040:	0031      	movs	r1, r6
 8005042:	f7fc f98d 	bl	8001360 <__aeabi_dmul>
 8005046:	2200      	movs	r2, #0
 8005048:	4b40      	ldr	r3, [pc, #256]	; (800514c <__kernel_cos+0x138>)
 800504a:	0004      	movs	r4, r0
 800504c:	000d      	movs	r5, r1
 800504e:	f7fc f987 	bl	8001360 <__aeabi_dmul>
 8005052:	4a3f      	ldr	r2, [pc, #252]	; (8005150 <__kernel_cos+0x13c>)
 8005054:	9002      	str	r0, [sp, #8]
 8005056:	9103      	str	r1, [sp, #12]
 8005058:	4b3e      	ldr	r3, [pc, #248]	; (8005154 <__kernel_cos+0x140>)
 800505a:	0020      	movs	r0, r4
 800505c:	0029      	movs	r1, r5
 800505e:	f7fc f97f 	bl	8001360 <__aeabi_dmul>
 8005062:	4a3d      	ldr	r2, [pc, #244]	; (8005158 <__kernel_cos+0x144>)
 8005064:	4b3d      	ldr	r3, [pc, #244]	; (800515c <__kernel_cos+0x148>)
 8005066:	f7fb fa21 	bl	80004ac <__aeabi_dadd>
 800506a:	0022      	movs	r2, r4
 800506c:	002b      	movs	r3, r5
 800506e:	f7fc f977 	bl	8001360 <__aeabi_dmul>
 8005072:	4a3b      	ldr	r2, [pc, #236]	; (8005160 <__kernel_cos+0x14c>)
 8005074:	4b3b      	ldr	r3, [pc, #236]	; (8005164 <__kernel_cos+0x150>)
 8005076:	f7fc fc35 	bl	80018e4 <__aeabi_dsub>
 800507a:	0022      	movs	r2, r4
 800507c:	002b      	movs	r3, r5
 800507e:	f7fc f96f 	bl	8001360 <__aeabi_dmul>
 8005082:	4a39      	ldr	r2, [pc, #228]	; (8005168 <__kernel_cos+0x154>)
 8005084:	4b39      	ldr	r3, [pc, #228]	; (800516c <__kernel_cos+0x158>)
 8005086:	f7fb fa11 	bl	80004ac <__aeabi_dadd>
 800508a:	0022      	movs	r2, r4
 800508c:	002b      	movs	r3, r5
 800508e:	f7fc f967 	bl	8001360 <__aeabi_dmul>
 8005092:	4a37      	ldr	r2, [pc, #220]	; (8005170 <__kernel_cos+0x15c>)
 8005094:	4b37      	ldr	r3, [pc, #220]	; (8005174 <__kernel_cos+0x160>)
 8005096:	f7fc fc25 	bl	80018e4 <__aeabi_dsub>
 800509a:	0022      	movs	r2, r4
 800509c:	002b      	movs	r3, r5
 800509e:	f7fc f95f 	bl	8001360 <__aeabi_dmul>
 80050a2:	4a35      	ldr	r2, [pc, #212]	; (8005178 <__kernel_cos+0x164>)
 80050a4:	4b35      	ldr	r3, [pc, #212]	; (800517c <__kernel_cos+0x168>)
 80050a6:	f7fb fa01 	bl	80004ac <__aeabi_dadd>
 80050aa:	0022      	movs	r2, r4
 80050ac:	002b      	movs	r3, r5
 80050ae:	f7fc f957 	bl	8001360 <__aeabi_dmul>
 80050b2:	0022      	movs	r2, r4
 80050b4:	002b      	movs	r3, r5
 80050b6:	f7fc f953 	bl	8001360 <__aeabi_dmul>
 80050ba:	9a04      	ldr	r2, [sp, #16]
 80050bc:	9b05      	ldr	r3, [sp, #20]
 80050be:	0004      	movs	r4, r0
 80050c0:	000d      	movs	r5, r1
 80050c2:	0038      	movs	r0, r7
 80050c4:	0031      	movs	r1, r6
 80050c6:	f7fc f94b 	bl	8001360 <__aeabi_dmul>
 80050ca:	0002      	movs	r2, r0
 80050cc:	000b      	movs	r3, r1
 80050ce:	0020      	movs	r0, r4
 80050d0:	0029      	movs	r1, r5
 80050d2:	f7fc fc07 	bl	80018e4 <__aeabi_dsub>
 80050d6:	4b2a      	ldr	r3, [pc, #168]	; (8005180 <__kernel_cos+0x16c>)
 80050d8:	9a00      	ldr	r2, [sp, #0]
 80050da:	0004      	movs	r4, r0
 80050dc:	000d      	movs	r5, r1
 80050de:	429a      	cmp	r2, r3
 80050e0:	dc0d      	bgt.n	80050fe <__kernel_cos+0xea>
 80050e2:	0002      	movs	r2, r0
 80050e4:	000b      	movs	r3, r1
 80050e6:	9802      	ldr	r0, [sp, #8]
 80050e8:	9903      	ldr	r1, [sp, #12]
 80050ea:	f7fc fbfb 	bl	80018e4 <__aeabi_dsub>
 80050ee:	0002      	movs	r2, r0
 80050f0:	2000      	movs	r0, #0
 80050f2:	000b      	movs	r3, r1
 80050f4:	4923      	ldr	r1, [pc, #140]	; (8005184 <__kernel_cos+0x170>)
 80050f6:	f7fc fbf5 	bl	80018e4 <__aeabi_dsub>
 80050fa:	b007      	add	sp, #28
 80050fc:	bdf0      	pop	{r4, r5, r6, r7, pc}
 80050fe:	4b22      	ldr	r3, [pc, #136]	; (8005188 <__kernel_cos+0x174>)
 8005100:	9a00      	ldr	r2, [sp, #0]
 8005102:	2600      	movs	r6, #0
 8005104:	429a      	cmp	r2, r3
 8005106:	dc1b      	bgt.n	8005140 <__kernel_cos+0x12c>
 8005108:	0013      	movs	r3, r2
 800510a:	4a20      	ldr	r2, [pc, #128]	; (800518c <__kernel_cos+0x178>)
 800510c:	4694      	mov	ip, r2
 800510e:	4463      	add	r3, ip
 8005110:	001f      	movs	r7, r3
 8005112:	0032      	movs	r2, r6
 8005114:	003b      	movs	r3, r7
 8005116:	2000      	movs	r0, #0
 8005118:	491a      	ldr	r1, [pc, #104]	; (8005184 <__kernel_cos+0x170>)
 800511a:	f7fc fbe3 	bl	80018e4 <__aeabi_dsub>
 800511e:	0032      	movs	r2, r6
 8005120:	003b      	movs	r3, r7
 8005122:	9000      	str	r0, [sp, #0]
 8005124:	9101      	str	r1, [sp, #4]
 8005126:	9802      	ldr	r0, [sp, #8]
 8005128:	9903      	ldr	r1, [sp, #12]
 800512a:	f7fc fbdb 	bl	80018e4 <__aeabi_dsub>
 800512e:	0022      	movs	r2, r4
 8005130:	002b      	movs	r3, r5
 8005132:	f7fc fbd7 	bl	80018e4 <__aeabi_dsub>
 8005136:	0002      	movs	r2, r0
 8005138:	000b      	movs	r3, r1
 800513a:	9800      	ldr	r0, [sp, #0]
 800513c:	9901      	ldr	r1, [sp, #4]
 800513e:	e7da      	b.n	80050f6 <__kernel_cos+0xe2>
 8005140:	4f13      	ldr	r7, [pc, #76]	; (8005190 <__kernel_cos+0x17c>)
 8005142:	e7e6      	b.n	8005112 <__kernel_cos+0xfe>
 8005144:	2000      	movs	r0, #0
 8005146:	490f      	ldr	r1, [pc, #60]	; (8005184 <__kernel_cos+0x170>)
 8005148:	e7d7      	b.n	80050fa <__kernel_cos+0xe6>
 800514a:	46c0      	nop			; (mov r8, r8)
 800514c:	3fe00000 	.word	0x3fe00000
 8005150:	be8838d4 	.word	0xbe8838d4
 8005154:	bda8fae9 	.word	0xbda8fae9
 8005158:	bdb4b1c4 	.word	0xbdb4b1c4
 800515c:	3e21ee9e 	.word	0x3e21ee9e
 8005160:	809c52ad 	.word	0x809c52ad
 8005164:	3e927e4f 	.word	0x3e927e4f
 8005168:	19cb1590 	.word	0x19cb1590
 800516c:	3efa01a0 	.word	0x3efa01a0
 8005170:	16c15177 	.word	0x16c15177
 8005174:	3f56c16c 	.word	0x3f56c16c
 8005178:	5555554c 	.word	0x5555554c
 800517c:	3fa55555 	.word	0x3fa55555
 8005180:	3fd33332 	.word	0x3fd33332
 8005184:	3ff00000 	.word	0x3ff00000
 8005188:	3fe90000 	.word	0x3fe90000
 800518c:	ffe00000 	.word	0xffe00000
 8005190:	3fd20000 	.word	0x3fd20000

08005194 <__kernel_sin>:
 8005194:	b5f0      	push	{r4, r5, r6, r7, lr}
 8005196:	b089      	sub	sp, #36	; 0x24
 8005198:	9202      	str	r2, [sp, #8]
 800519a:	9303      	str	r3, [sp, #12]
 800519c:	22f9      	movs	r2, #249	; 0xf9
 800519e:	004b      	lsls	r3, r1, #1
 80051a0:	0007      	movs	r7, r0
 80051a2:	000e      	movs	r6, r1
 80051a4:	085b      	lsrs	r3, r3, #1
 80051a6:	0592      	lsls	r2, r2, #22
 80051a8:	4293      	cmp	r3, r2
 80051aa:	da03      	bge.n	80051b4 <__kernel_sin+0x20>
 80051ac:	f7fc ff3a 	bl	8002024 <__aeabi_d2iz>
 80051b0:	2800      	cmp	r0, #0
 80051b2:	d04c      	beq.n	800524e <__kernel_sin+0xba>
 80051b4:	003a      	movs	r2, r7
 80051b6:	0033      	movs	r3, r6
 80051b8:	0038      	movs	r0, r7
 80051ba:	0031      	movs	r1, r6
 80051bc:	f7fc f8d0 	bl	8001360 <__aeabi_dmul>
 80051c0:	0004      	movs	r4, r0
 80051c2:	000d      	movs	r5, r1
 80051c4:	0002      	movs	r2, r0
 80051c6:	000b      	movs	r3, r1
 80051c8:	0038      	movs	r0, r7
 80051ca:	0031      	movs	r1, r6
 80051cc:	f7fc f8c8 	bl	8001360 <__aeabi_dmul>
 80051d0:	4a39      	ldr	r2, [pc, #228]	; (80052b8 <__kernel_sin+0x124>)
 80051d2:	9000      	str	r0, [sp, #0]
 80051d4:	9101      	str	r1, [sp, #4]
 80051d6:	4b39      	ldr	r3, [pc, #228]	; (80052bc <__kernel_sin+0x128>)
 80051d8:	0020      	movs	r0, r4
 80051da:	0029      	movs	r1, r5
 80051dc:	f7fc f8c0 	bl	8001360 <__aeabi_dmul>
 80051e0:	4a37      	ldr	r2, [pc, #220]	; (80052c0 <__kernel_sin+0x12c>)
 80051e2:	4b38      	ldr	r3, [pc, #224]	; (80052c4 <__kernel_sin+0x130>)
 80051e4:	f7fc fb7e 	bl	80018e4 <__aeabi_dsub>
 80051e8:	0022      	movs	r2, r4
 80051ea:	002b      	movs	r3, r5
 80051ec:	f7fc f8b8 	bl	8001360 <__aeabi_dmul>
 80051f0:	4a35      	ldr	r2, [pc, #212]	; (80052c8 <__kernel_sin+0x134>)
 80051f2:	4b36      	ldr	r3, [pc, #216]	; (80052cc <__kernel_sin+0x138>)
 80051f4:	f7fb f95a 	bl	80004ac <__aeabi_dadd>
 80051f8:	0022      	movs	r2, r4
 80051fa:	002b      	movs	r3, r5
 80051fc:	f7fc f8b0 	bl	8001360 <__aeabi_dmul>
 8005200:	4a33      	ldr	r2, [pc, #204]	; (80052d0 <__kernel_sin+0x13c>)
 8005202:	4b34      	ldr	r3, [pc, #208]	; (80052d4 <__kernel_sin+0x140>)
 8005204:	f7fc fb6e 	bl	80018e4 <__aeabi_dsub>
 8005208:	0022      	movs	r2, r4
 800520a:	002b      	movs	r3, r5
 800520c:	f7fc f8a8 	bl	8001360 <__aeabi_dmul>
 8005210:	4b31      	ldr	r3, [pc, #196]	; (80052d8 <__kernel_sin+0x144>)
 8005212:	4a32      	ldr	r2, [pc, #200]	; (80052dc <__kernel_sin+0x148>)
 8005214:	f7fb f94a 	bl	80004ac <__aeabi_dadd>
 8005218:	9b0e      	ldr	r3, [sp, #56]	; 0x38
 800521a:	9004      	str	r0, [sp, #16]
 800521c:	9105      	str	r1, [sp, #20]
 800521e:	2b00      	cmp	r3, #0
 8005220:	d119      	bne.n	8005256 <__kernel_sin+0xc2>
 8005222:	0002      	movs	r2, r0
 8005224:	000b      	movs	r3, r1
 8005226:	0020      	movs	r0, r4
 8005228:	0029      	movs	r1, r5
 800522a:	f7fc f899 	bl	8001360 <__aeabi_dmul>
 800522e:	4a2c      	ldr	r2, [pc, #176]	; (80052e0 <__kernel_sin+0x14c>)
 8005230:	4b2c      	ldr	r3, [pc, #176]	; (80052e4 <__kernel_sin+0x150>)
 8005232:	f7fc fb57 	bl	80018e4 <__aeabi_dsub>
 8005236:	9a00      	ldr	r2, [sp, #0]
 8005238:	9b01      	ldr	r3, [sp, #4]
 800523a:	f7fc f891 	bl	8001360 <__aeabi_dmul>
 800523e:	0002      	movs	r2, r0
 8005240:	000b      	movs	r3, r1
 8005242:	0038      	movs	r0, r7
 8005244:	0031      	movs	r1, r6
 8005246:	f7fb f931 	bl	80004ac <__aeabi_dadd>
 800524a:	0007      	movs	r7, r0
 800524c:	000e      	movs	r6, r1
 800524e:	0038      	movs	r0, r7
 8005250:	0031      	movs	r1, r6
 8005252:	b009      	add	sp, #36	; 0x24
 8005254:	bdf0      	pop	{r4, r5, r6, r7, pc}
 8005256:	2200      	movs	r2, #0
 8005258:	9802      	ldr	r0, [sp, #8]
 800525a:	9903      	ldr	r1, [sp, #12]
 800525c:	4b22      	ldr	r3, [pc, #136]	; (80052e8 <__kernel_sin+0x154>)
 800525e:	f7fc f87f 	bl	8001360 <__aeabi_dmul>
 8005262:	9a04      	ldr	r2, [sp, #16]
 8005264:	9b05      	ldr	r3, [sp, #20]
 8005266:	9006      	str	r0, [sp, #24]
 8005268:	9107      	str	r1, [sp, #28]
 800526a:	9800      	ldr	r0, [sp, #0]
 800526c:	9901      	ldr	r1, [sp, #4]
 800526e:	f7fc f877 	bl	8001360 <__aeabi_dmul>
 8005272:	0002      	movs	r2, r0
 8005274:	000b      	movs	r3, r1
 8005276:	9806      	ldr	r0, [sp, #24]
 8005278:	9907      	ldr	r1, [sp, #28]
 800527a:	f7fc fb33 	bl	80018e4 <__aeabi_dsub>
 800527e:	0022      	movs	r2, r4
 8005280:	002b      	movs	r3, r5
 8005282:	f7fc f86d 	bl	8001360 <__aeabi_dmul>
 8005286:	9a02      	ldr	r2, [sp, #8]
 8005288:	9b03      	ldr	r3, [sp, #12]
 800528a:	f7fc fb2b 	bl	80018e4 <__aeabi_dsub>
 800528e:	4a14      	ldr	r2, [pc, #80]	; (80052e0 <__kernel_sin+0x14c>)
 8005290:	0004      	movs	r4, r0
 8005292:	000d      	movs	r5, r1
 8005294:	9800      	ldr	r0, [sp, #0]
 8005296:	9901      	ldr	r1, [sp, #4]
 8005298:	4b12      	ldr	r3, [pc, #72]	; (80052e4 <__kernel_sin+0x150>)
 800529a:	f7fc f861 	bl	8001360 <__aeabi_dmul>
 800529e:	0002      	movs	r2, r0
 80052a0:	000b      	movs	r3, r1
 80052a2:	0020      	movs	r0, r4
 80052a4:	0029      	movs	r1, r5
 80052a6:	f7fb f901 	bl	80004ac <__aeabi_dadd>
 80052aa:	0002      	movs	r2, r0
 80052ac:	000b      	movs	r3, r1
 80052ae:	0038      	movs	r0, r7
 80052b0:	0031      	movs	r1, r6
 80052b2:	f7fc fb17 	bl	80018e4 <__aeabi_dsub>
 80052b6:	e7c8      	b.n	800524a <__kernel_sin+0xb6>
 80052b8:	5acfd57c 	.word	0x5acfd57c
 80052bc:	3de5d93a 	.word	0x3de5d93a
 80052c0:	8a2b9ceb 	.word	0x8a2b9ceb
 80052c4:	3e5ae5e6 	.word	0x3e5ae5e6
 80052c8:	57b1fe7d 	.word	0x57b1fe7d
 80052cc:	3ec71de3 	.word	0x3ec71de3
 80052d0:	19c161d5 	.word	0x19c161d5
 80052d4:	3f2a01a0 	.word	0x3f2a01a0
 80052d8:	3f811111 	.word	0x3f811111
 80052dc:	1110f8a6 	.word	0x1110f8a6
 80052e0:	55555549 	.word	0x55555549
 80052e4:	3fc55555 	.word	0x3fc55555
 80052e8:	3fe00000 	.word	0x3fe00000

080052ec <__ieee754_asin>:
 80052ec:	b5f0      	push	{r4, r5, r6, r7, lr}
 80052ee:	4bca      	ldr	r3, [pc, #808]	; (8005618 <__ieee754_asin+0x32c>)
 80052f0:	b08b      	sub	sp, #44	; 0x2c
 80052f2:	004e      	lsls	r6, r1, #1
 80052f4:	0004      	movs	r4, r0
 80052f6:	000d      	movs	r5, r1
 80052f8:	9107      	str	r1, [sp, #28]
 80052fa:	0876      	lsrs	r6, r6, #1
 80052fc:	429e      	cmp	r6, r3
 80052fe:	dd24      	ble.n	800534a <__ieee754_asin+0x5e>
 8005300:	4bc6      	ldr	r3, [pc, #792]	; (800561c <__ieee754_asin+0x330>)
 8005302:	18f6      	adds	r6, r6, r3
 8005304:	4306      	orrs	r6, r0
 8005306:	d112      	bne.n	800532e <__ieee754_asin+0x42>
 8005308:	4ac5      	ldr	r2, [pc, #788]	; (8005620 <__ieee754_asin+0x334>)
 800530a:	4bc6      	ldr	r3, [pc, #792]	; (8005624 <__ieee754_asin+0x338>)
 800530c:	f7fc f828 	bl	8001360 <__aeabi_dmul>
 8005310:	4ac5      	ldr	r2, [pc, #788]	; (8005628 <__ieee754_asin+0x33c>)
 8005312:	0006      	movs	r6, r0
 8005314:	000f      	movs	r7, r1
 8005316:	4bc5      	ldr	r3, [pc, #788]	; (800562c <__ieee754_asin+0x340>)
 8005318:	0020      	movs	r0, r4
 800531a:	0029      	movs	r1, r5
 800531c:	f7fc f820 	bl	8001360 <__aeabi_dmul>
 8005320:	0002      	movs	r2, r0
 8005322:	000b      	movs	r3, r1
 8005324:	0030      	movs	r0, r6
 8005326:	0039      	movs	r1, r7
 8005328:	f7fb f8c0 	bl	80004ac <__aeabi_dadd>
 800532c:	e007      	b.n	800533e <__ieee754_asin+0x52>
 800532e:	0002      	movs	r2, r0
 8005330:	000b      	movs	r3, r1
 8005332:	f7fc fad7 	bl	80018e4 <__aeabi_dsub>
 8005336:	0002      	movs	r2, r0
 8005338:	000b      	movs	r3, r1
 800533a:	f7fb fc17 	bl	8000b6c <__aeabi_ddiv>
 800533e:	0004      	movs	r4, r0
 8005340:	000d      	movs	r5, r1
 8005342:	0020      	movs	r0, r4
 8005344:	0029      	movs	r1, r5
 8005346:	b00b      	add	sp, #44	; 0x2c
 8005348:	bdf0      	pop	{r4, r5, r6, r7, pc}
 800534a:	4bb9      	ldr	r3, [pc, #740]	; (8005630 <__ieee754_asin+0x344>)
 800534c:	429e      	cmp	r6, r3
 800534e:	dc0e      	bgt.n	800536e <__ieee754_asin+0x82>
 8005350:	23f9      	movs	r3, #249	; 0xf9
 8005352:	059b      	lsls	r3, r3, #22
 8005354:	429e      	cmp	r6, r3
 8005356:	db00      	blt.n	800535a <__ieee754_asin+0x6e>
 8005358:	e09c      	b.n	8005494 <__ieee754_asin+0x1a8>
 800535a:	4ab6      	ldr	r2, [pc, #728]	; (8005634 <__ieee754_asin+0x348>)
 800535c:	4bb6      	ldr	r3, [pc, #728]	; (8005638 <__ieee754_asin+0x34c>)
 800535e:	f7fb f8a5 	bl	80004ac <__aeabi_dadd>
 8005362:	2200      	movs	r2, #0
 8005364:	4bb5      	ldr	r3, [pc, #724]	; (800563c <__ieee754_asin+0x350>)
 8005366:	f7fb f88d 	bl	8000484 <__aeabi_dcmpgt>
 800536a:	2800      	cmp	r0, #0
 800536c:	d1e9      	bne.n	8005342 <__ieee754_asin+0x56>
 800536e:	0020      	movs	r0, r4
 8005370:	0029      	movs	r1, r5
 8005372:	f7ff fe01 	bl	8004f78 <fabs>
 8005376:	0002      	movs	r2, r0
 8005378:	000b      	movs	r3, r1
 800537a:	2000      	movs	r0, #0
 800537c:	49af      	ldr	r1, [pc, #700]	; (800563c <__ieee754_asin+0x350>)
 800537e:	f7fc fab1 	bl	80018e4 <__aeabi_dsub>
 8005382:	2200      	movs	r2, #0
 8005384:	4bae      	ldr	r3, [pc, #696]	; (8005640 <__ieee754_asin+0x354>)
 8005386:	f7fb ffeb 	bl	8001360 <__aeabi_dmul>
 800538a:	0004      	movs	r4, r0
 800538c:	000d      	movs	r5, r1
 800538e:	4aad      	ldr	r2, [pc, #692]	; (8005644 <__ieee754_asin+0x358>)
 8005390:	4bad      	ldr	r3, [pc, #692]	; (8005648 <__ieee754_asin+0x35c>)
 8005392:	f7fb ffe5 	bl	8001360 <__aeabi_dmul>
 8005396:	4aad      	ldr	r2, [pc, #692]	; (800564c <__ieee754_asin+0x360>)
 8005398:	4bad      	ldr	r3, [pc, #692]	; (8005650 <__ieee754_asin+0x364>)
 800539a:	f7fb f887 	bl	80004ac <__aeabi_dadd>
 800539e:	0022      	movs	r2, r4
 80053a0:	002b      	movs	r3, r5
 80053a2:	f7fb ffdd 	bl	8001360 <__aeabi_dmul>
 80053a6:	4aab      	ldr	r2, [pc, #684]	; (8005654 <__ieee754_asin+0x368>)
 80053a8:	4bab      	ldr	r3, [pc, #684]	; (8005658 <__ieee754_asin+0x36c>)
 80053aa:	f7fc fa9b 	bl	80018e4 <__aeabi_dsub>
 80053ae:	0022      	movs	r2, r4
 80053b0:	002b      	movs	r3, r5
 80053b2:	f7fb ffd5 	bl	8001360 <__aeabi_dmul>
 80053b6:	4aa9      	ldr	r2, [pc, #676]	; (800565c <__ieee754_asin+0x370>)
 80053b8:	4ba9      	ldr	r3, [pc, #676]	; (8005660 <__ieee754_asin+0x374>)
 80053ba:	f7fb f877 	bl	80004ac <__aeabi_dadd>
 80053be:	0022      	movs	r2, r4
 80053c0:	002b      	movs	r3, r5
 80053c2:	f7fb ffcd 	bl	8001360 <__aeabi_dmul>
 80053c6:	4aa7      	ldr	r2, [pc, #668]	; (8005664 <__ieee754_asin+0x378>)
 80053c8:	4ba7      	ldr	r3, [pc, #668]	; (8005668 <__ieee754_asin+0x37c>)
 80053ca:	f7fc fa8b 	bl	80018e4 <__aeabi_dsub>
 80053ce:	0022      	movs	r2, r4
 80053d0:	002b      	movs	r3, r5
 80053d2:	f7fb ffc5 	bl	8001360 <__aeabi_dmul>
 80053d6:	4aa5      	ldr	r2, [pc, #660]	; (800566c <__ieee754_asin+0x380>)
 80053d8:	4ba5      	ldr	r3, [pc, #660]	; (8005670 <__ieee754_asin+0x384>)
 80053da:	f7fb f867 	bl	80004ac <__aeabi_dadd>
 80053de:	0022      	movs	r2, r4
 80053e0:	002b      	movs	r3, r5
 80053e2:	f7fb ffbd 	bl	8001360 <__aeabi_dmul>
 80053e6:	4aa3      	ldr	r2, [pc, #652]	; (8005674 <__ieee754_asin+0x388>)
 80053e8:	9002      	str	r0, [sp, #8]
 80053ea:	9103      	str	r1, [sp, #12]
 80053ec:	4ba2      	ldr	r3, [pc, #648]	; (8005678 <__ieee754_asin+0x38c>)
 80053ee:	0020      	movs	r0, r4
 80053f0:	0029      	movs	r1, r5
 80053f2:	f7fb ffb5 	bl	8001360 <__aeabi_dmul>
 80053f6:	4aa1      	ldr	r2, [pc, #644]	; (800567c <__ieee754_asin+0x390>)
 80053f8:	4ba1      	ldr	r3, [pc, #644]	; (8005680 <__ieee754_asin+0x394>)
 80053fa:	f7fc fa73 	bl	80018e4 <__aeabi_dsub>
 80053fe:	0022      	movs	r2, r4
 8005400:	002b      	movs	r3, r5
 8005402:	f7fb ffad 	bl	8001360 <__aeabi_dmul>
 8005406:	4a9f      	ldr	r2, [pc, #636]	; (8005684 <__ieee754_asin+0x398>)
 8005408:	4b9f      	ldr	r3, [pc, #636]	; (8005688 <__ieee754_asin+0x39c>)
 800540a:	f7fb f84f 	bl	80004ac <__aeabi_dadd>
 800540e:	0022      	movs	r2, r4
 8005410:	002b      	movs	r3, r5
 8005412:	f7fb ffa5 	bl	8001360 <__aeabi_dmul>
 8005416:	4a9d      	ldr	r2, [pc, #628]	; (800568c <__ieee754_asin+0x3a0>)
 8005418:	4b9d      	ldr	r3, [pc, #628]	; (8005690 <__ieee754_asin+0x3a4>)
 800541a:	f7fc fa63 	bl	80018e4 <__aeabi_dsub>
 800541e:	0022      	movs	r2, r4
 8005420:	002b      	movs	r3, r5
 8005422:	f7fb ff9d 	bl	8001360 <__aeabi_dmul>
 8005426:	4b85      	ldr	r3, [pc, #532]	; (800563c <__ieee754_asin+0x350>)
 8005428:	2200      	movs	r2, #0
 800542a:	f7fb f83f 	bl	80004ac <__aeabi_dadd>
 800542e:	9004      	str	r0, [sp, #16]
 8005430:	9105      	str	r1, [sp, #20]
 8005432:	0020      	movs	r0, r4
 8005434:	0029      	movs	r1, r5
 8005436:	f000 fc37 	bl	8005ca8 <__ieee754_sqrt>
 800543a:	4b96      	ldr	r3, [pc, #600]	; (8005694 <__ieee754_asin+0x3a8>)
 800543c:	9000      	str	r0, [sp, #0]
 800543e:	9101      	str	r1, [sp, #4]
 8005440:	429e      	cmp	r6, r3
 8005442:	dc00      	bgt.n	8005446 <__ieee754_asin+0x15a>
 8005444:	e08b      	b.n	800555e <__ieee754_asin+0x272>
 8005446:	9a04      	ldr	r2, [sp, #16]
 8005448:	9b05      	ldr	r3, [sp, #20]
 800544a:	9802      	ldr	r0, [sp, #8]
 800544c:	9903      	ldr	r1, [sp, #12]
 800544e:	f7fb fb8d 	bl	8000b6c <__aeabi_ddiv>
 8005452:	9a00      	ldr	r2, [sp, #0]
 8005454:	9b01      	ldr	r3, [sp, #4]
 8005456:	f7fb ff83 	bl	8001360 <__aeabi_dmul>
 800545a:	9a00      	ldr	r2, [sp, #0]
 800545c:	9b01      	ldr	r3, [sp, #4]
 800545e:	f7fb f825 	bl	80004ac <__aeabi_dadd>
 8005462:	0002      	movs	r2, r0
 8005464:	000b      	movs	r3, r1
 8005466:	f7fb f821 	bl	80004ac <__aeabi_dadd>
 800546a:	4a6f      	ldr	r2, [pc, #444]	; (8005628 <__ieee754_asin+0x33c>)
 800546c:	4b6f      	ldr	r3, [pc, #444]	; (800562c <__ieee754_asin+0x340>)
 800546e:	f7fc fa39 	bl	80018e4 <__aeabi_dsub>
 8005472:	0002      	movs	r2, r0
 8005474:	000b      	movs	r3, r1
 8005476:	486a      	ldr	r0, [pc, #424]	; (8005620 <__ieee754_asin+0x334>)
 8005478:	496a      	ldr	r1, [pc, #424]	; (8005624 <__ieee754_asin+0x338>)
 800547a:	f7fc fa33 	bl	80018e4 <__aeabi_dsub>
 800547e:	9b07      	ldr	r3, [sp, #28]
 8005480:	0004      	movs	r4, r0
 8005482:	000d      	movs	r5, r1
 8005484:	2b00      	cmp	r3, #0
 8005486:	dd00      	ble.n	800548a <__ieee754_asin+0x19e>
 8005488:	e75b      	b.n	8005342 <__ieee754_asin+0x56>
 800548a:	2180      	movs	r1, #128	; 0x80
 800548c:	0609      	lsls	r1, r1, #24
 800548e:	186b      	adds	r3, r5, r1
 8005490:	001d      	movs	r5, r3
 8005492:	e756      	b.n	8005342 <__ieee754_asin+0x56>
 8005494:	0002      	movs	r2, r0
 8005496:	000b      	movs	r3, r1
 8005498:	f7fb ff62 	bl	8001360 <__aeabi_dmul>
 800549c:	0006      	movs	r6, r0
 800549e:	000f      	movs	r7, r1
 80054a0:	4a68      	ldr	r2, [pc, #416]	; (8005644 <__ieee754_asin+0x358>)
 80054a2:	4b69      	ldr	r3, [pc, #420]	; (8005648 <__ieee754_asin+0x35c>)
 80054a4:	f7fb ff5c 	bl	8001360 <__aeabi_dmul>
 80054a8:	4a68      	ldr	r2, [pc, #416]	; (800564c <__ieee754_asin+0x360>)
 80054aa:	4b69      	ldr	r3, [pc, #420]	; (8005650 <__ieee754_asin+0x364>)
 80054ac:	f7fa fffe 	bl	80004ac <__aeabi_dadd>
 80054b0:	0032      	movs	r2, r6
 80054b2:	003b      	movs	r3, r7
 80054b4:	f7fb ff54 	bl	8001360 <__aeabi_dmul>
 80054b8:	4a66      	ldr	r2, [pc, #408]	; (8005654 <__ieee754_asin+0x368>)
 80054ba:	4b67      	ldr	r3, [pc, #412]	; (8005658 <__ieee754_asin+0x36c>)
 80054bc:	f7fc fa12 	bl	80018e4 <__aeabi_dsub>
 80054c0:	0032      	movs	r2, r6
 80054c2:	003b      	movs	r3, r7
 80054c4:	f7fb ff4c 	bl	8001360 <__aeabi_dmul>
 80054c8:	4a64      	ldr	r2, [pc, #400]	; (800565c <__ieee754_asin+0x370>)
 80054ca:	4b65      	ldr	r3, [pc, #404]	; (8005660 <__ieee754_asin+0x374>)
 80054cc:	f7fa ffee 	bl	80004ac <__aeabi_dadd>
 80054d0:	0032      	movs	r2, r6
 80054d2:	003b      	movs	r3, r7
 80054d4:	f7fb ff44 	bl	8001360 <__aeabi_dmul>
 80054d8:	4a62      	ldr	r2, [pc, #392]	; (8005664 <__ieee754_asin+0x378>)
 80054da:	4b63      	ldr	r3, [pc, #396]	; (8005668 <__ieee754_asin+0x37c>)
 80054dc:	f7fc fa02 	bl	80018e4 <__aeabi_dsub>
 80054e0:	0032      	movs	r2, r6
 80054e2:	003b      	movs	r3, r7
 80054e4:	f7fb ff3c 	bl	8001360 <__aeabi_dmul>
 80054e8:	4a60      	ldr	r2, [pc, #384]	; (800566c <__ieee754_asin+0x380>)
 80054ea:	4b61      	ldr	r3, [pc, #388]	; (8005670 <__ieee754_asin+0x384>)
 80054ec:	f7fa ffde 	bl	80004ac <__aeabi_dadd>
 80054f0:	0032      	movs	r2, r6
 80054f2:	003b      	movs	r3, r7
 80054f4:	f7fb ff34 	bl	8001360 <__aeabi_dmul>
 80054f8:	4a5e      	ldr	r2, [pc, #376]	; (8005674 <__ieee754_asin+0x388>)
 80054fa:	9000      	str	r0, [sp, #0]
 80054fc:	9101      	str	r1, [sp, #4]
 80054fe:	4b5e      	ldr	r3, [pc, #376]	; (8005678 <__ieee754_asin+0x38c>)
 8005500:	0030      	movs	r0, r6
 8005502:	0039      	movs	r1, r7
 8005504:	f7fb ff2c 	bl	8001360 <__aeabi_dmul>
 8005508:	4a5c      	ldr	r2, [pc, #368]	; (800567c <__ieee754_asin+0x390>)
 800550a:	4b5d      	ldr	r3, [pc, #372]	; (8005680 <__ieee754_asin+0x394>)
 800550c:	f7fc f9ea 	bl	80018e4 <__aeabi_dsub>
 8005510:	0032      	movs	r2, r6
 8005512:	003b      	movs	r3, r7
 8005514:	f7fb ff24 	bl	8001360 <__aeabi_dmul>
 8005518:	4a5a      	ldr	r2, [pc, #360]	; (8005684 <__ieee754_asin+0x398>)
 800551a:	4b5b      	ldr	r3, [pc, #364]	; (8005688 <__ieee754_asin+0x39c>)
 800551c:	f7fa ffc6 	bl	80004ac <__aeabi_dadd>
 8005520:	0032      	movs	r2, r6
 8005522:	003b      	movs	r3, r7
 8005524:	f7fb ff1c 	bl	8001360 <__aeabi_dmul>
 8005528:	4a58      	ldr	r2, [pc, #352]	; (800568c <__ieee754_asin+0x3a0>)
 800552a:	4b59      	ldr	r3, [pc, #356]	; (8005690 <__ieee754_asin+0x3a4>)
 800552c:	f7fc f9da 	bl	80018e4 <__aeabi_dsub>
 8005530:	0032      	movs	r2, r6
 8005532:	003b      	movs	r3, r7
 8005534:	f7fb ff14 	bl	8001360 <__aeabi_dmul>
 8005538:	2200      	movs	r2, #0
 800553a:	4b40      	ldr	r3, [pc, #256]	; (800563c <__ieee754_asin+0x350>)
 800553c:	f7fa ffb6 	bl	80004ac <__aeabi_dadd>
 8005540:	0002      	movs	r2, r0
 8005542:	000b      	movs	r3, r1
 8005544:	9800      	ldr	r0, [sp, #0]
 8005546:	9901      	ldr	r1, [sp, #4]
 8005548:	f7fb fb10 	bl	8000b6c <__aeabi_ddiv>
 800554c:	0022      	movs	r2, r4
 800554e:	002b      	movs	r3, r5
 8005550:	f7fb ff06 	bl	8001360 <__aeabi_dmul>
 8005554:	0002      	movs	r2, r0
 8005556:	000b      	movs	r3, r1
 8005558:	0020      	movs	r0, r4
 800555a:	0029      	movs	r1, r5
 800555c:	e6e4      	b.n	8005328 <__ieee754_asin+0x3c>
 800555e:	9a00      	ldr	r2, [sp, #0]
 8005560:	9b01      	ldr	r3, [sp, #4]
 8005562:	0010      	movs	r0, r2
 8005564:	9e00      	ldr	r6, [sp, #0]
 8005566:	9f01      	ldr	r7, [sp, #4]
 8005568:	0019      	movs	r1, r3
 800556a:	f7fa ff9f 	bl	80004ac <__aeabi_dadd>
 800556e:	9a04      	ldr	r2, [sp, #16]
 8005570:	9b05      	ldr	r3, [sp, #20]
 8005572:	9008      	str	r0, [sp, #32]
 8005574:	9109      	str	r1, [sp, #36]	; 0x24
 8005576:	9802      	ldr	r0, [sp, #8]
 8005578:	9903      	ldr	r1, [sp, #12]
 800557a:	f7fb faf7 	bl	8000b6c <__aeabi_ddiv>
 800557e:	0002      	movs	r2, r0
 8005580:	000b      	movs	r3, r1
 8005582:	9808      	ldr	r0, [sp, #32]
 8005584:	9909      	ldr	r1, [sp, #36]	; 0x24
 8005586:	f7fb feeb 	bl	8001360 <__aeabi_dmul>
 800558a:	2600      	movs	r6, #0
 800558c:	9002      	str	r0, [sp, #8]
 800558e:	9103      	str	r1, [sp, #12]
 8005590:	0032      	movs	r2, r6
 8005592:	003b      	movs	r3, r7
 8005594:	0030      	movs	r0, r6
 8005596:	0039      	movs	r1, r7
 8005598:	f7fb fee2 	bl	8001360 <__aeabi_dmul>
 800559c:	0002      	movs	r2, r0
 800559e:	000b      	movs	r3, r1
 80055a0:	0020      	movs	r0, r4
 80055a2:	0029      	movs	r1, r5
 80055a4:	f7fc f99e 	bl	80018e4 <__aeabi_dsub>
 80055a8:	0032      	movs	r2, r6
 80055aa:	0004      	movs	r4, r0
 80055ac:	000d      	movs	r5, r1
 80055ae:	9800      	ldr	r0, [sp, #0]
 80055b0:	9901      	ldr	r1, [sp, #4]
 80055b2:	003b      	movs	r3, r7
 80055b4:	f7fa ff7a 	bl	80004ac <__aeabi_dadd>
 80055b8:	0002      	movs	r2, r0
 80055ba:	000b      	movs	r3, r1
 80055bc:	0020      	movs	r0, r4
 80055be:	0029      	movs	r1, r5
 80055c0:	f7fb fad4 	bl	8000b6c <__aeabi_ddiv>
 80055c4:	0002      	movs	r2, r0
 80055c6:	000b      	movs	r3, r1
 80055c8:	f7fa ff70 	bl	80004ac <__aeabi_dadd>
 80055cc:	0002      	movs	r2, r0
 80055ce:	000b      	movs	r3, r1
 80055d0:	4815      	ldr	r0, [pc, #84]	; (8005628 <__ieee754_asin+0x33c>)
 80055d2:	4916      	ldr	r1, [pc, #88]	; (800562c <__ieee754_asin+0x340>)
 80055d4:	f7fc f986 	bl	80018e4 <__aeabi_dsub>
 80055d8:	0002      	movs	r2, r0
 80055da:	000b      	movs	r3, r1
 80055dc:	9802      	ldr	r0, [sp, #8]
 80055de:	9903      	ldr	r1, [sp, #12]
 80055e0:	f7fc f980 	bl	80018e4 <__aeabi_dsub>
 80055e4:	0032      	movs	r2, r6
 80055e6:	0004      	movs	r4, r0
 80055e8:	000d      	movs	r5, r1
 80055ea:	003b      	movs	r3, r7
 80055ec:	0030      	movs	r0, r6
 80055ee:	0039      	movs	r1, r7
 80055f0:	f7fa ff5c 	bl	80004ac <__aeabi_dadd>
 80055f4:	0002      	movs	r2, r0
 80055f6:	000b      	movs	r3, r1
 80055f8:	4809      	ldr	r0, [pc, #36]	; (8005620 <__ieee754_asin+0x334>)
 80055fa:	4927      	ldr	r1, [pc, #156]	; (8005698 <__ieee754_asin+0x3ac>)
 80055fc:	f7fc f972 	bl	80018e4 <__aeabi_dsub>
 8005600:	0002      	movs	r2, r0
 8005602:	000b      	movs	r3, r1
 8005604:	0020      	movs	r0, r4
 8005606:	0029      	movs	r1, r5
 8005608:	f7fc f96c 	bl	80018e4 <__aeabi_dsub>
 800560c:	0002      	movs	r2, r0
 800560e:	000b      	movs	r3, r1
 8005610:	4803      	ldr	r0, [pc, #12]	; (8005620 <__ieee754_asin+0x334>)
 8005612:	4921      	ldr	r1, [pc, #132]	; (8005698 <__ieee754_asin+0x3ac>)
 8005614:	e731      	b.n	800547a <__ieee754_asin+0x18e>
 8005616:	46c0      	nop			; (mov r8, r8)
 8005618:	3fefffff 	.word	0x3fefffff
 800561c:	c0100000 	.word	0xc0100000
 8005620:	54442d18 	.word	0x54442d18
 8005624:	3ff921fb 	.word	0x3ff921fb
 8005628:	33145c07 	.word	0x33145c07
 800562c:	3c91a626 	.word	0x3c91a626
 8005630:	3fdfffff 	.word	0x3fdfffff
 8005634:	8800759c 	.word	0x8800759c
 8005638:	7e37e43c 	.word	0x7e37e43c
 800563c:	3ff00000 	.word	0x3ff00000
 8005640:	3fe00000 	.word	0x3fe00000
 8005644:	0dfdf709 	.word	0x0dfdf709
 8005648:	3f023de1 	.word	0x3f023de1
 800564c:	7501b288 	.word	0x7501b288
 8005650:	3f49efe0 	.word	0x3f49efe0
 8005654:	b5688f3b 	.word	0xb5688f3b
 8005658:	3fa48228 	.word	0x3fa48228
 800565c:	0e884455 	.word	0x0e884455
 8005660:	3fc9c155 	.word	0x3fc9c155
 8005664:	03eb6f7d 	.word	0x03eb6f7d
 8005668:	3fd4d612 	.word	0x3fd4d612
 800566c:	55555555 	.word	0x55555555
 8005670:	3fc55555 	.word	0x3fc55555
 8005674:	b12e9282 	.word	0xb12e9282
 8005678:	3fb3b8c5 	.word	0x3fb3b8c5
 800567c:	1b8d0159 	.word	0x1b8d0159
 8005680:	3fe6066c 	.word	0x3fe6066c
 8005684:	9c598ac8 	.word	0x9c598ac8
 8005688:	40002ae5 	.word	0x40002ae5
 800568c:	1c8a2d4b 	.word	0x1c8a2d4b
 8005690:	40033a27 	.word	0x40033a27
 8005694:	3fef3332 	.word	0x3fef3332
 8005698:	3fe921fb 	.word	0x3fe921fb

0800569c <__ieee754_fmod>:
 800569c:	b5f0      	push	{r4, r5, r6, r7, lr}
 800569e:	0005      	movs	r5, r0
 80056a0:	0010      	movs	r0, r2
 80056a2:	b085      	sub	sp, #20
 80056a4:	9200      	str	r2, [sp, #0]
 80056a6:	9302      	str	r3, [sp, #8]
 80056a8:	9201      	str	r2, [sp, #4]
 80056aa:	005a      	lsls	r2, r3, #1
 80056ac:	0003      	movs	r3, r0
 80056ae:	0852      	lsrs	r2, r2, #1
 80056b0:	000c      	movs	r4, r1
 80056b2:	4313      	orrs	r3, r2
 80056b4:	d00c      	beq.n	80056d0 <__ieee754_fmod+0x34>
 80056b6:	4b7a      	ldr	r3, [pc, #488]	; (80058a0 <__ieee754_fmod+0x204>)
 80056b8:	9103      	str	r1, [sp, #12]
 80056ba:	0049      	lsls	r1, r1, #1
 80056bc:	0849      	lsrs	r1, r1, #1
 80056be:	4299      	cmp	r1, r3
 80056c0:	dc06      	bgt.n	80056d0 <__ieee754_fmod+0x34>
 80056c2:	4243      	negs	r3, r0
 80056c4:	4303      	orrs	r3, r0
 80056c6:	4e77      	ldr	r6, [pc, #476]	; (80058a4 <__ieee754_fmod+0x208>)
 80056c8:	0fdb      	lsrs	r3, r3, #31
 80056ca:	4313      	orrs	r3, r2
 80056cc:	42b3      	cmp	r3, r6
 80056ce:	d90c      	bls.n	80056ea <__ieee754_fmod+0x4e>
 80056d0:	9a00      	ldr	r2, [sp, #0]
 80056d2:	9b02      	ldr	r3, [sp, #8]
 80056d4:	0028      	movs	r0, r5
 80056d6:	0021      	movs	r1, r4
 80056d8:	f7fb fe42 	bl	8001360 <__aeabi_dmul>
 80056dc:	0002      	movs	r2, r0
 80056de:	000b      	movs	r3, r1
 80056e0:	f7fb fa44 	bl	8000b6c <__aeabi_ddiv>
 80056e4:	0005      	movs	r5, r0
 80056e6:	000c      	movs	r4, r1
 80056e8:	e010      	b.n	800570c <__ieee754_fmod+0x70>
 80056ea:	0fe7      	lsrs	r7, r4, #31
 80056ec:	07ff      	lsls	r7, r7, #31
 80056ee:	002e      	movs	r6, r5
 80056f0:	002b      	movs	r3, r5
 80056f2:	46bc      	mov	ip, r7
 80056f4:	4291      	cmp	r1, r2
 80056f6:	dc0d      	bgt.n	8005714 <__ieee754_fmod+0x78>
 80056f8:	db08      	blt.n	800570c <__ieee754_fmod+0x70>
 80056fa:	4285      	cmp	r5, r0
 80056fc:	d306      	bcc.n	800570c <__ieee754_fmod+0x70>
 80056fe:	d109      	bne.n	8005714 <__ieee754_fmod+0x78>
 8005700:	4662      	mov	r2, ip
 8005702:	4b69      	ldr	r3, [pc, #420]	; (80058a8 <__ieee754_fmod+0x20c>)
 8005704:	0f12      	lsrs	r2, r2, #28
 8005706:	189b      	adds	r3, r3, r2
 8005708:	681d      	ldr	r5, [r3, #0]
 800570a:	685c      	ldr	r4, [r3, #4]
 800570c:	0028      	movs	r0, r5
 800570e:	0021      	movs	r1, r4
 8005710:	b005      	add	sp, #20
 8005712:	bdf0      	pop	{r4, r5, r6, r7, pc}
 8005714:	9c03      	ldr	r4, [sp, #12]
 8005716:	4d63      	ldr	r5, [pc, #396]	; (80058a4 <__ieee754_fmod+0x208>)
 8005718:	422c      	tst	r4, r5
 800571a:	d14c      	bne.n	80057b6 <__ieee754_fmod+0x11a>
 800571c:	2900      	cmp	r1, #0
 800571e:	d143      	bne.n	80057a8 <__ieee754_fmod+0x10c>
 8005720:	0035      	movs	r5, r6
 8005722:	4c62      	ldr	r4, [pc, #392]	; (80058ac <__ieee754_fmod+0x210>)
 8005724:	2d00      	cmp	r5, #0
 8005726:	dc3c      	bgt.n	80057a2 <__ieee754_fmod+0x106>
 8005728:	9d02      	ldr	r5, [sp, #8]
 800572a:	4f5e      	ldr	r7, [pc, #376]	; (80058a4 <__ieee754_fmod+0x208>)
 800572c:	422f      	tst	r7, r5
 800572e:	d150      	bne.n	80057d2 <__ieee754_fmod+0x136>
 8005730:	2a00      	cmp	r2, #0
 8005732:	d147      	bne.n	80057c4 <__ieee754_fmod+0x128>
 8005734:	4d5d      	ldr	r5, [pc, #372]	; (80058ac <__ieee754_fmod+0x210>)
 8005736:	2800      	cmp	r0, #0
 8005738:	dc41      	bgt.n	80057be <__ieee754_fmod+0x122>
 800573a:	485d      	ldr	r0, [pc, #372]	; (80058b0 <__ieee754_fmod+0x214>)
 800573c:	4284      	cmp	r4, r0
 800573e:	db4c      	blt.n	80057da <__ieee754_fmod+0x13e>
 8005740:	9903      	ldr	r1, [sp, #12]
 8005742:	030e      	lsls	r6, r1, #12
 8005744:	2180      	movs	r1, #128	; 0x80
 8005746:	0b36      	lsrs	r6, r6, #12
 8005748:	0349      	lsls	r1, r1, #13
 800574a:	4331      	orrs	r1, r6
 800574c:	4858      	ldr	r0, [pc, #352]	; (80058b0 <__ieee754_fmod+0x214>)
 800574e:	4285      	cmp	r5, r0
 8005750:	db56      	blt.n	8005800 <__ieee754_fmod+0x164>
 8005752:	9a02      	ldr	r2, [sp, #8]
 8005754:	0316      	lsls	r6, r2, #12
 8005756:	2280      	movs	r2, #128	; 0x80
 8005758:	0b36      	lsrs	r6, r6, #12
 800575a:	0352      	lsls	r2, r2, #13
 800575c:	4332      	orrs	r2, r6
 800575e:	1b64      	subs	r4, r4, r5
 8005760:	9801      	ldr	r0, [sp, #4]
 8005762:	1a8e      	subs	r6, r1, r2
 8005764:	1a1f      	subs	r7, r3, r0
 8005766:	2c00      	cmp	r4, #0
 8005768:	d15f      	bne.n	800582a <__ieee754_fmod+0x18e>
 800576a:	4283      	cmp	r3, r0
 800576c:	4192      	sbcs	r2, r2
 800576e:	4252      	negs	r2, r2
 8005770:	1ab6      	subs	r6, r6, r2
 8005772:	d401      	bmi.n	8005778 <__ieee754_fmod+0xdc>
 8005774:	003b      	movs	r3, r7
 8005776:	0031      	movs	r1, r6
 8005778:	000a      	movs	r2, r1
 800577a:	431a      	orrs	r2, r3
 800577c:	d0c0      	beq.n	8005700 <__ieee754_fmod+0x64>
 800577e:	2280      	movs	r2, #128	; 0x80
 8005780:	0352      	lsls	r2, r2, #13
 8005782:	4291      	cmp	r1, r2
 8005784:	db66      	blt.n	8005854 <__ieee754_fmod+0x1b8>
 8005786:	4a4a      	ldr	r2, [pc, #296]	; (80058b0 <__ieee754_fmod+0x214>)
 8005788:	4295      	cmp	r5, r2
 800578a:	db69      	blt.n	8005860 <__ieee754_fmod+0x1c4>
 800578c:	4a49      	ldr	r2, [pc, #292]	; (80058b4 <__ieee754_fmod+0x218>)
 800578e:	0018      	movs	r0, r3
 8005790:	1889      	adds	r1, r1, r2
 8005792:	4662      	mov	r2, ip
 8005794:	430a      	orrs	r2, r1
 8005796:	4948      	ldr	r1, [pc, #288]	; (80058b8 <__ieee754_fmod+0x21c>)
 8005798:	186d      	adds	r5, r5, r1
 800579a:	052d      	lsls	r5, r5, #20
 800579c:	432a      	orrs	r2, r5
 800579e:	0011      	movs	r1, r2
 80057a0:	e7a0      	b.n	80056e4 <__ieee754_fmod+0x48>
 80057a2:	3c01      	subs	r4, #1
 80057a4:	006d      	lsls	r5, r5, #1
 80057a6:	e7bd      	b.n	8005724 <__ieee754_fmod+0x88>
 80057a8:	4c41      	ldr	r4, [pc, #260]	; (80058b0 <__ieee754_fmod+0x214>)
 80057aa:	02cd      	lsls	r5, r1, #11
 80057ac:	2d00      	cmp	r5, #0
 80057ae:	ddbb      	ble.n	8005728 <__ieee754_fmod+0x8c>
 80057b0:	3c01      	subs	r4, #1
 80057b2:	006d      	lsls	r5, r5, #1
 80057b4:	e7fa      	b.n	80057ac <__ieee754_fmod+0x110>
 80057b6:	4d41      	ldr	r5, [pc, #260]	; (80058bc <__ieee754_fmod+0x220>)
 80057b8:	150c      	asrs	r4, r1, #20
 80057ba:	1964      	adds	r4, r4, r5
 80057bc:	e7b4      	b.n	8005728 <__ieee754_fmod+0x8c>
 80057be:	3d01      	subs	r5, #1
 80057c0:	0040      	lsls	r0, r0, #1
 80057c2:	e7b8      	b.n	8005736 <__ieee754_fmod+0x9a>
 80057c4:	4d3a      	ldr	r5, [pc, #232]	; (80058b0 <__ieee754_fmod+0x214>)
 80057c6:	02d0      	lsls	r0, r2, #11
 80057c8:	2800      	cmp	r0, #0
 80057ca:	ddb6      	ble.n	800573a <__ieee754_fmod+0x9e>
 80057cc:	3d01      	subs	r5, #1
 80057ce:	0040      	lsls	r0, r0, #1
 80057d0:	e7fa      	b.n	80057c8 <__ieee754_fmod+0x12c>
 80057d2:	483a      	ldr	r0, [pc, #232]	; (80058bc <__ieee754_fmod+0x220>)
 80057d4:	1515      	asrs	r5, r2, #20
 80057d6:	182d      	adds	r5, r5, r0
 80057d8:	e7af      	b.n	800573a <__ieee754_fmod+0x9e>
 80057da:	4b35      	ldr	r3, [pc, #212]	; (80058b0 <__ieee754_fmod+0x214>)
 80057dc:	1b1b      	subs	r3, r3, r4
 80057de:	2b1f      	cmp	r3, #31
 80057e0:	dc08      	bgt.n	80057f4 <__ieee754_fmod+0x158>
 80057e2:	4837      	ldr	r0, [pc, #220]	; (80058c0 <__ieee754_fmod+0x224>)
 80057e4:	4099      	lsls	r1, r3
 80057e6:	1827      	adds	r7, r4, r0
 80057e8:	0030      	movs	r0, r6
 80057ea:	409e      	lsls	r6, r3
 80057ec:	40f8      	lsrs	r0, r7
 80057ee:	0033      	movs	r3, r6
 80057f0:	4301      	orrs	r1, r0
 80057f2:	e7ab      	b.n	800574c <__ieee754_fmod+0xb0>
 80057f4:	0031      	movs	r1, r6
 80057f6:	4b33      	ldr	r3, [pc, #204]	; (80058c4 <__ieee754_fmod+0x228>)
 80057f8:	1b1b      	subs	r3, r3, r4
 80057fa:	4099      	lsls	r1, r3
 80057fc:	2300      	movs	r3, #0
 80057fe:	e7a5      	b.n	800574c <__ieee754_fmod+0xb0>
 8005800:	482b      	ldr	r0, [pc, #172]	; (80058b0 <__ieee754_fmod+0x214>)
 8005802:	1b46      	subs	r6, r0, r5
 8005804:	2e1f      	cmp	r6, #31
 8005806:	dc09      	bgt.n	800581c <__ieee754_fmod+0x180>
 8005808:	482d      	ldr	r0, [pc, #180]	; (80058c0 <__ieee754_fmod+0x224>)
 800580a:	40b2      	lsls	r2, r6
 800580c:	182f      	adds	r7, r5, r0
 800580e:	9800      	ldr	r0, [sp, #0]
 8005810:	40f8      	lsrs	r0, r7
 8005812:	4302      	orrs	r2, r0
 8005814:	9800      	ldr	r0, [sp, #0]
 8005816:	40b0      	lsls	r0, r6
 8005818:	9001      	str	r0, [sp, #4]
 800581a:	e7a0      	b.n	800575e <__ieee754_fmod+0xc2>
 800581c:	4a29      	ldr	r2, [pc, #164]	; (80058c4 <__ieee754_fmod+0x228>)
 800581e:	9800      	ldr	r0, [sp, #0]
 8005820:	1b52      	subs	r2, r2, r5
 8005822:	4090      	lsls	r0, r2
 8005824:	0002      	movs	r2, r0
 8005826:	2000      	movs	r0, #0
 8005828:	e7f6      	b.n	8005818 <__ieee754_fmod+0x17c>
 800582a:	9801      	ldr	r0, [sp, #4]
 800582c:	4283      	cmp	r3, r0
 800582e:	4180      	sbcs	r0, r0
 8005830:	4240      	negs	r0, r0
 8005832:	1a36      	subs	r6, r6, r0
 8005834:	d505      	bpl.n	8005842 <__ieee754_fmod+0x1a6>
 8005836:	0fde      	lsrs	r6, r3, #31
 8005838:	0049      	lsls	r1, r1, #1
 800583a:	1989      	adds	r1, r1, r6
 800583c:	005b      	lsls	r3, r3, #1
 800583e:	3c01      	subs	r4, #1
 8005840:	e78e      	b.n	8005760 <__ieee754_fmod+0xc4>
 8005842:	0033      	movs	r3, r6
 8005844:	433b      	orrs	r3, r7
 8005846:	d100      	bne.n	800584a <__ieee754_fmod+0x1ae>
 8005848:	e75a      	b.n	8005700 <__ieee754_fmod+0x64>
 800584a:	0076      	lsls	r6, r6, #1
 800584c:	0ff9      	lsrs	r1, r7, #31
 800584e:	1871      	adds	r1, r6, r1
 8005850:	007b      	lsls	r3, r7, #1
 8005852:	e7f4      	b.n	800583e <__ieee754_fmod+0x1a2>
 8005854:	0fdc      	lsrs	r4, r3, #31
 8005856:	0049      	lsls	r1, r1, #1
 8005858:	1909      	adds	r1, r1, r4
 800585a:	005b      	lsls	r3, r3, #1
 800585c:	3d01      	subs	r5, #1
 800585e:	e790      	b.n	8005782 <__ieee754_fmod+0xe6>
 8005860:	4a13      	ldr	r2, [pc, #76]	; (80058b0 <__ieee754_fmod+0x214>)
 8005862:	1b50      	subs	r0, r2, r5
 8005864:	2814      	cmp	r0, #20
 8005866:	dc0b      	bgt.n	8005880 <__ieee754_fmod+0x1e4>
 8005868:	000c      	movs	r4, r1
 800586a:	4a15      	ldr	r2, [pc, #84]	; (80058c0 <__ieee754_fmod+0x224>)
 800586c:	40c3      	lsrs	r3, r0
 800586e:	18ad      	adds	r5, r5, r2
 8005870:	40ac      	lsls	r4, r5
 8005872:	4101      	asrs	r1, r0
 8005874:	431c      	orrs	r4, r3
 8005876:	4660      	mov	r0, ip
 8005878:	4308      	orrs	r0, r1
 800587a:	0025      	movs	r5, r4
 800587c:	0004      	movs	r4, r0
 800587e:	e745      	b.n	800570c <__ieee754_fmod+0x70>
 8005880:	281f      	cmp	r0, #31
 8005882:	dc07      	bgt.n	8005894 <__ieee754_fmod+0x1f8>
 8005884:	4a0e      	ldr	r2, [pc, #56]	; (80058c0 <__ieee754_fmod+0x224>)
 8005886:	40c3      	lsrs	r3, r0
 8005888:	18ad      	adds	r5, r5, r2
 800588a:	40a9      	lsls	r1, r5
 800588c:	000c      	movs	r4, r1
 800588e:	431c      	orrs	r4, r3
 8005890:	4661      	mov	r1, ip
 8005892:	e7f0      	b.n	8005876 <__ieee754_fmod+0x1da>
 8005894:	4b0b      	ldr	r3, [pc, #44]	; (80058c4 <__ieee754_fmod+0x228>)
 8005896:	1b5b      	subs	r3, r3, r5
 8005898:	4119      	asrs	r1, r3
 800589a:	000c      	movs	r4, r1
 800589c:	e7f8      	b.n	8005890 <__ieee754_fmod+0x1f4>
 800589e:	46c0      	nop			; (mov r8, r8)
 80058a0:	7fefffff 	.word	0x7fefffff
 80058a4:	7ff00000 	.word	0x7ff00000
 80058a8:	080068f8 	.word	0x080068f8
 80058ac:	fffffbed 	.word	0xfffffbed
 80058b0:	fffffc02 	.word	0xfffffc02
 80058b4:	fff00000 	.word	0xfff00000
 80058b8:	000003ff 	.word	0x000003ff
 80058bc:	fffffc01 	.word	0xfffffc01
 80058c0:	0000041e 	.word	0x0000041e
 80058c4:	fffffbe2 	.word	0xfffffbe2

080058c8 <__ieee754_rem_pio2>:
 80058c8:	b5f0      	push	{r4, r5, r6, r7, lr}
 80058ca:	004b      	lsls	r3, r1, #1
 80058cc:	b091      	sub	sp, #68	; 0x44
 80058ce:	085b      	lsrs	r3, r3, #1
 80058d0:	9302      	str	r3, [sp, #8]
 80058d2:	0017      	movs	r7, r2
 80058d4:	4bb6      	ldr	r3, [pc, #728]	; (8005bb0 <__ieee754_rem_pio2+0x2e8>)
 80058d6:	9a02      	ldr	r2, [sp, #8]
 80058d8:	0004      	movs	r4, r0
 80058da:	000d      	movs	r5, r1
 80058dc:	9109      	str	r1, [sp, #36]	; 0x24
 80058de:	429a      	cmp	r2, r3
 80058e0:	dc09      	bgt.n	80058f6 <__ieee754_rem_pio2+0x2e>
 80058e2:	0002      	movs	r2, r0
 80058e4:	000b      	movs	r3, r1
 80058e6:	603a      	str	r2, [r7, #0]
 80058e8:	607b      	str	r3, [r7, #4]
 80058ea:	2200      	movs	r2, #0
 80058ec:	2300      	movs	r3, #0
 80058ee:	60ba      	str	r2, [r7, #8]
 80058f0:	60fb      	str	r3, [r7, #12]
 80058f2:	2600      	movs	r6, #0
 80058f4:	e025      	b.n	8005942 <__ieee754_rem_pio2+0x7a>
 80058f6:	4baf      	ldr	r3, [pc, #700]	; (8005bb4 <__ieee754_rem_pio2+0x2ec>)
 80058f8:	9a02      	ldr	r2, [sp, #8]
 80058fa:	429a      	cmp	r2, r3
 80058fc:	dd00      	ble.n	8005900 <__ieee754_rem_pio2+0x38>
 80058fe:	e06e      	b.n	80059de <__ieee754_rem_pio2+0x116>
 8005900:	4ead      	ldr	r6, [pc, #692]	; (8005bb8 <__ieee754_rem_pio2+0x2f0>)
 8005902:	4aae      	ldr	r2, [pc, #696]	; (8005bbc <__ieee754_rem_pio2+0x2f4>)
 8005904:	2d00      	cmp	r5, #0
 8005906:	dd35      	ble.n	8005974 <__ieee754_rem_pio2+0xac>
 8005908:	0020      	movs	r0, r4
 800590a:	0029      	movs	r1, r5
 800590c:	4baa      	ldr	r3, [pc, #680]	; (8005bb8 <__ieee754_rem_pio2+0x2f0>)
 800590e:	f7fb ffe9 	bl	80018e4 <__aeabi_dsub>
 8005912:	9b02      	ldr	r3, [sp, #8]
 8005914:	0004      	movs	r4, r0
 8005916:	000d      	movs	r5, r1
 8005918:	42b3      	cmp	r3, r6
 800591a:	d015      	beq.n	8005948 <__ieee754_rem_pio2+0x80>
 800591c:	4aa8      	ldr	r2, [pc, #672]	; (8005bc0 <__ieee754_rem_pio2+0x2f8>)
 800591e:	4ba9      	ldr	r3, [pc, #676]	; (8005bc4 <__ieee754_rem_pio2+0x2fc>)
 8005920:	f7fb ffe0 	bl	80018e4 <__aeabi_dsub>
 8005924:	0002      	movs	r2, r0
 8005926:	000b      	movs	r3, r1
 8005928:	0020      	movs	r0, r4
 800592a:	603a      	str	r2, [r7, #0]
 800592c:	607b      	str	r3, [r7, #4]
 800592e:	0029      	movs	r1, r5
 8005930:	f7fb ffd8 	bl	80018e4 <__aeabi_dsub>
 8005934:	4aa2      	ldr	r2, [pc, #648]	; (8005bc0 <__ieee754_rem_pio2+0x2f8>)
 8005936:	4ba3      	ldr	r3, [pc, #652]	; (8005bc4 <__ieee754_rem_pio2+0x2fc>)
 8005938:	f7fb ffd4 	bl	80018e4 <__aeabi_dsub>
 800593c:	2601      	movs	r6, #1
 800593e:	60b8      	str	r0, [r7, #8]
 8005940:	60f9      	str	r1, [r7, #12]
 8005942:	0030      	movs	r0, r6
 8005944:	b011      	add	sp, #68	; 0x44
 8005946:	bdf0      	pop	{r4, r5, r6, r7, pc}
 8005948:	22d3      	movs	r2, #211	; 0xd3
 800594a:	4b9e      	ldr	r3, [pc, #632]	; (8005bc4 <__ieee754_rem_pio2+0x2fc>)
 800594c:	0552      	lsls	r2, r2, #21
 800594e:	f7fb ffc9 	bl	80018e4 <__aeabi_dsub>
 8005952:	4a9d      	ldr	r2, [pc, #628]	; (8005bc8 <__ieee754_rem_pio2+0x300>)
 8005954:	4b9d      	ldr	r3, [pc, #628]	; (8005bcc <__ieee754_rem_pio2+0x304>)
 8005956:	0004      	movs	r4, r0
 8005958:	000d      	movs	r5, r1
 800595a:	f7fb ffc3 	bl	80018e4 <__aeabi_dsub>
 800595e:	0002      	movs	r2, r0
 8005960:	000b      	movs	r3, r1
 8005962:	0020      	movs	r0, r4
 8005964:	603a      	str	r2, [r7, #0]
 8005966:	607b      	str	r3, [r7, #4]
 8005968:	0029      	movs	r1, r5
 800596a:	f7fb ffbb 	bl	80018e4 <__aeabi_dsub>
 800596e:	4a96      	ldr	r2, [pc, #600]	; (8005bc8 <__ieee754_rem_pio2+0x300>)
 8005970:	4b96      	ldr	r3, [pc, #600]	; (8005bcc <__ieee754_rem_pio2+0x304>)
 8005972:	e7e1      	b.n	8005938 <__ieee754_rem_pio2+0x70>
 8005974:	0020      	movs	r0, r4
 8005976:	0029      	movs	r1, r5
 8005978:	4b8f      	ldr	r3, [pc, #572]	; (8005bb8 <__ieee754_rem_pio2+0x2f0>)
 800597a:	f7fa fd97 	bl	80004ac <__aeabi_dadd>
 800597e:	9b02      	ldr	r3, [sp, #8]
 8005980:	0004      	movs	r4, r0
 8005982:	000d      	movs	r5, r1
 8005984:	42b3      	cmp	r3, r6
 8005986:	d014      	beq.n	80059b2 <__ieee754_rem_pio2+0xea>
 8005988:	4a8d      	ldr	r2, [pc, #564]	; (8005bc0 <__ieee754_rem_pio2+0x2f8>)
 800598a:	4b8e      	ldr	r3, [pc, #568]	; (8005bc4 <__ieee754_rem_pio2+0x2fc>)
 800598c:	f7fa fd8e 	bl	80004ac <__aeabi_dadd>
 8005990:	0002      	movs	r2, r0
 8005992:	000b      	movs	r3, r1
 8005994:	0020      	movs	r0, r4
 8005996:	603a      	str	r2, [r7, #0]
 8005998:	607b      	str	r3, [r7, #4]
 800599a:	0029      	movs	r1, r5
 800599c:	f7fb ffa2 	bl	80018e4 <__aeabi_dsub>
 80059a0:	4a87      	ldr	r2, [pc, #540]	; (8005bc0 <__ieee754_rem_pio2+0x2f8>)
 80059a2:	4b88      	ldr	r3, [pc, #544]	; (8005bc4 <__ieee754_rem_pio2+0x2fc>)
 80059a4:	f7fa fd82 	bl	80004ac <__aeabi_dadd>
 80059a8:	2601      	movs	r6, #1
 80059aa:	60b8      	str	r0, [r7, #8]
 80059ac:	60f9      	str	r1, [r7, #12]
 80059ae:	4276      	negs	r6, r6
 80059b0:	e7c7      	b.n	8005942 <__ieee754_rem_pio2+0x7a>
 80059b2:	22d3      	movs	r2, #211	; 0xd3
 80059b4:	4b83      	ldr	r3, [pc, #524]	; (8005bc4 <__ieee754_rem_pio2+0x2fc>)
 80059b6:	0552      	lsls	r2, r2, #21
 80059b8:	f7fa fd78 	bl	80004ac <__aeabi_dadd>
 80059bc:	4a82      	ldr	r2, [pc, #520]	; (8005bc8 <__ieee754_rem_pio2+0x300>)
 80059be:	4b83      	ldr	r3, [pc, #524]	; (8005bcc <__ieee754_rem_pio2+0x304>)
 80059c0:	0004      	movs	r4, r0
 80059c2:	000d      	movs	r5, r1
 80059c4:	f7fa fd72 	bl	80004ac <__aeabi_dadd>
 80059c8:	0002      	movs	r2, r0
 80059ca:	000b      	movs	r3, r1
 80059cc:	0020      	movs	r0, r4
 80059ce:	603a      	str	r2, [r7, #0]
 80059d0:	607b      	str	r3, [r7, #4]
 80059d2:	0029      	movs	r1, r5
 80059d4:	f7fb ff86 	bl	80018e4 <__aeabi_dsub>
 80059d8:	4a7b      	ldr	r2, [pc, #492]	; (8005bc8 <__ieee754_rem_pio2+0x300>)
 80059da:	4b7c      	ldr	r3, [pc, #496]	; (8005bcc <__ieee754_rem_pio2+0x304>)
 80059dc:	e7e2      	b.n	80059a4 <__ieee754_rem_pio2+0xdc>
 80059de:	4b7c      	ldr	r3, [pc, #496]	; (8005bd0 <__ieee754_rem_pio2+0x308>)
 80059e0:	9a02      	ldr	r2, [sp, #8]
 80059e2:	429a      	cmp	r2, r3
 80059e4:	dd00      	ble.n	80059e8 <__ieee754_rem_pio2+0x120>
 80059e6:	e0d3      	b.n	8005b90 <__ieee754_rem_pio2+0x2c8>
 80059e8:	0020      	movs	r0, r4
 80059ea:	0029      	movs	r1, r5
 80059ec:	f7ff fac4 	bl	8004f78 <fabs>
 80059f0:	4a78      	ldr	r2, [pc, #480]	; (8005bd4 <__ieee754_rem_pio2+0x30c>)
 80059f2:	4b79      	ldr	r3, [pc, #484]	; (8005bd8 <__ieee754_rem_pio2+0x310>)
 80059f4:	0004      	movs	r4, r0
 80059f6:	000d      	movs	r5, r1
 80059f8:	f7fb fcb2 	bl	8001360 <__aeabi_dmul>
 80059fc:	2200      	movs	r2, #0
 80059fe:	4b77      	ldr	r3, [pc, #476]	; (8005bdc <__ieee754_rem_pio2+0x314>)
 8005a00:	f7fa fd54 	bl	80004ac <__aeabi_dadd>
 8005a04:	f7fc fb0e 	bl	8002024 <__aeabi_d2iz>
 8005a08:	0006      	movs	r6, r0
 8005a0a:	f7fc fb41 	bl	8002090 <__aeabi_i2d>
 8005a0e:	4a6b      	ldr	r2, [pc, #428]	; (8005bbc <__ieee754_rem_pio2+0x2f4>)
 8005a10:	4b69      	ldr	r3, [pc, #420]	; (8005bb8 <__ieee754_rem_pio2+0x2f0>)
 8005a12:	9006      	str	r0, [sp, #24]
 8005a14:	9107      	str	r1, [sp, #28]
 8005a16:	f7fb fca3 	bl	8001360 <__aeabi_dmul>
 8005a1a:	0002      	movs	r2, r0
 8005a1c:	000b      	movs	r3, r1
 8005a1e:	0020      	movs	r0, r4
 8005a20:	0029      	movs	r1, r5
 8005a22:	f7fb ff5f 	bl	80018e4 <__aeabi_dsub>
 8005a26:	4a66      	ldr	r2, [pc, #408]	; (8005bc0 <__ieee754_rem_pio2+0x2f8>)
 8005a28:	9004      	str	r0, [sp, #16]
 8005a2a:	9105      	str	r1, [sp, #20]
 8005a2c:	9806      	ldr	r0, [sp, #24]
 8005a2e:	9907      	ldr	r1, [sp, #28]
 8005a30:	4b64      	ldr	r3, [pc, #400]	; (8005bc4 <__ieee754_rem_pio2+0x2fc>)
 8005a32:	f7fb fc95 	bl	8001360 <__aeabi_dmul>
 8005a36:	0004      	movs	r4, r0
 8005a38:	000d      	movs	r5, r1
 8005a3a:	2e1f      	cmp	r6, #31
 8005a3c:	dc0f      	bgt.n	8005a5e <__ieee754_rem_pio2+0x196>
 8005a3e:	4b68      	ldr	r3, [pc, #416]	; (8005be0 <__ieee754_rem_pio2+0x318>)
 8005a40:	1e72      	subs	r2, r6, #1
 8005a42:	0092      	lsls	r2, r2, #2
 8005a44:	58d3      	ldr	r3, [r2, r3]
 8005a46:	9a02      	ldr	r2, [sp, #8]
 8005a48:	4293      	cmp	r3, r2
 8005a4a:	d008      	beq.n	8005a5e <__ieee754_rem_pio2+0x196>
 8005a4c:	9804      	ldr	r0, [sp, #16]
 8005a4e:	9905      	ldr	r1, [sp, #20]
 8005a50:	0022      	movs	r2, r4
 8005a52:	002b      	movs	r3, r5
 8005a54:	f7fb ff46 	bl	80018e4 <__aeabi_dsub>
 8005a58:	6038      	str	r0, [r7, #0]
 8005a5a:	6079      	str	r1, [r7, #4]
 8005a5c:	e012      	b.n	8005a84 <__ieee754_rem_pio2+0x1bc>
 8005a5e:	0022      	movs	r2, r4
 8005a60:	9804      	ldr	r0, [sp, #16]
 8005a62:	9905      	ldr	r1, [sp, #20]
 8005a64:	002b      	movs	r3, r5
 8005a66:	f7fb ff3d 	bl	80018e4 <__aeabi_dsub>
 8005a6a:	9b02      	ldr	r3, [sp, #8]
 8005a6c:	151b      	asrs	r3, r3, #20
 8005a6e:	9308      	str	r3, [sp, #32]
 8005a70:	9a08      	ldr	r2, [sp, #32]
 8005a72:	004b      	lsls	r3, r1, #1
 8005a74:	0d5b      	lsrs	r3, r3, #21
 8005a76:	1ad3      	subs	r3, r2, r3
 8005a78:	2b10      	cmp	r3, #16
 8005a7a:	dc21      	bgt.n	8005ac0 <__ieee754_rem_pio2+0x1f8>
 8005a7c:	0002      	movs	r2, r0
 8005a7e:	000b      	movs	r3, r1
 8005a80:	603a      	str	r2, [r7, #0]
 8005a82:	607b      	str	r3, [r7, #4]
 8005a84:	9804      	ldr	r0, [sp, #16]
 8005a86:	9905      	ldr	r1, [sp, #20]
 8005a88:	687b      	ldr	r3, [r7, #4]
 8005a8a:	683a      	ldr	r2, [r7, #0]
 8005a8c:	9302      	str	r3, [sp, #8]
 8005a8e:	9b02      	ldr	r3, [sp, #8]
 8005a90:	f7fb ff28 	bl	80018e4 <__aeabi_dsub>
 8005a94:	0022      	movs	r2, r4
 8005a96:	002b      	movs	r3, r5
 8005a98:	f7fb ff24 	bl	80018e4 <__aeabi_dsub>
 8005a9c:	000b      	movs	r3, r1
 8005a9e:	0002      	movs	r2, r0
 8005aa0:	60ba      	str	r2, [r7, #8]
 8005aa2:	60fb      	str	r3, [r7, #12]
 8005aa4:	9b09      	ldr	r3, [sp, #36]	; 0x24
 8005aa6:	2b00      	cmp	r3, #0
 8005aa8:	db00      	blt.n	8005aac <__ieee754_rem_pio2+0x1e4>
 8005aaa:	e74a      	b.n	8005942 <__ieee754_rem_pio2+0x7a>
 8005aac:	2380      	movs	r3, #128	; 0x80
 8005aae:	061b      	lsls	r3, r3, #24
 8005ab0:	469c      	mov	ip, r3
 8005ab2:	9c02      	ldr	r4, [sp, #8]
 8005ab4:	18c9      	adds	r1, r1, r3
 8005ab6:	4464      	add	r4, ip
 8005ab8:	607c      	str	r4, [r7, #4]
 8005aba:	60b8      	str	r0, [r7, #8]
 8005abc:	60f9      	str	r1, [r7, #12]
 8005abe:	e776      	b.n	80059ae <__ieee754_rem_pio2+0xe6>
 8005ac0:	22d3      	movs	r2, #211	; 0xd3
 8005ac2:	9806      	ldr	r0, [sp, #24]
 8005ac4:	9907      	ldr	r1, [sp, #28]
 8005ac6:	4b3f      	ldr	r3, [pc, #252]	; (8005bc4 <__ieee754_rem_pio2+0x2fc>)
 8005ac8:	0552      	lsls	r2, r2, #21
 8005aca:	f7fb fc49 	bl	8001360 <__aeabi_dmul>
 8005ace:	0004      	movs	r4, r0
 8005ad0:	000d      	movs	r5, r1
 8005ad2:	0002      	movs	r2, r0
 8005ad4:	000b      	movs	r3, r1
 8005ad6:	9804      	ldr	r0, [sp, #16]
 8005ad8:	9905      	ldr	r1, [sp, #20]
 8005ada:	f7fb ff03 	bl	80018e4 <__aeabi_dsub>
 8005ade:	0002      	movs	r2, r0
 8005ae0:	000b      	movs	r3, r1
 8005ae2:	9002      	str	r0, [sp, #8]
 8005ae4:	9103      	str	r1, [sp, #12]
 8005ae6:	9804      	ldr	r0, [sp, #16]
 8005ae8:	9905      	ldr	r1, [sp, #20]
 8005aea:	f7fb fefb 	bl	80018e4 <__aeabi_dsub>
 8005aee:	0022      	movs	r2, r4
 8005af0:	002b      	movs	r3, r5
 8005af2:	f7fb fef7 	bl	80018e4 <__aeabi_dsub>
 8005af6:	0004      	movs	r4, r0
 8005af8:	000d      	movs	r5, r1
 8005afa:	9806      	ldr	r0, [sp, #24]
 8005afc:	9907      	ldr	r1, [sp, #28]
 8005afe:	4a32      	ldr	r2, [pc, #200]	; (8005bc8 <__ieee754_rem_pio2+0x300>)
 8005b00:	4b32      	ldr	r3, [pc, #200]	; (8005bcc <__ieee754_rem_pio2+0x304>)
 8005b02:	f7fb fc2d 	bl	8001360 <__aeabi_dmul>
 8005b06:	0022      	movs	r2, r4
 8005b08:	002b      	movs	r3, r5
 8005b0a:	f7fb feeb 	bl	80018e4 <__aeabi_dsub>
 8005b0e:	0002      	movs	r2, r0
 8005b10:	000b      	movs	r3, r1
 8005b12:	0004      	movs	r4, r0
 8005b14:	000d      	movs	r5, r1
 8005b16:	9802      	ldr	r0, [sp, #8]
 8005b18:	9903      	ldr	r1, [sp, #12]
 8005b1a:	f7fb fee3 	bl	80018e4 <__aeabi_dsub>
 8005b1e:	9a08      	ldr	r2, [sp, #32]
 8005b20:	004b      	lsls	r3, r1, #1
 8005b22:	0d5b      	lsrs	r3, r3, #21
 8005b24:	1ad3      	subs	r3, r2, r3
 8005b26:	2b31      	cmp	r3, #49	; 0x31
 8005b28:	dc08      	bgt.n	8005b3c <__ieee754_rem_pio2+0x274>
 8005b2a:	0002      	movs	r2, r0
 8005b2c:	000b      	movs	r3, r1
 8005b2e:	603a      	str	r2, [r7, #0]
 8005b30:	607b      	str	r3, [r7, #4]
 8005b32:	9a02      	ldr	r2, [sp, #8]
 8005b34:	9b03      	ldr	r3, [sp, #12]
 8005b36:	9204      	str	r2, [sp, #16]
 8005b38:	9305      	str	r3, [sp, #20]
 8005b3a:	e7a3      	b.n	8005a84 <__ieee754_rem_pio2+0x1bc>
 8005b3c:	22b8      	movs	r2, #184	; 0xb8
 8005b3e:	9806      	ldr	r0, [sp, #24]
 8005b40:	9907      	ldr	r1, [sp, #28]
 8005b42:	4b22      	ldr	r3, [pc, #136]	; (8005bcc <__ieee754_rem_pio2+0x304>)
 8005b44:	0592      	lsls	r2, r2, #22
 8005b46:	f7fb fc0b 	bl	8001360 <__aeabi_dmul>
 8005b4a:	0004      	movs	r4, r0
 8005b4c:	000d      	movs	r5, r1
 8005b4e:	0002      	movs	r2, r0
 8005b50:	000b      	movs	r3, r1
 8005b52:	9802      	ldr	r0, [sp, #8]
 8005b54:	9903      	ldr	r1, [sp, #12]
 8005b56:	f7fb fec5 	bl	80018e4 <__aeabi_dsub>
 8005b5a:	0002      	movs	r2, r0
 8005b5c:	000b      	movs	r3, r1
 8005b5e:	9004      	str	r0, [sp, #16]
 8005b60:	9105      	str	r1, [sp, #20]
 8005b62:	9802      	ldr	r0, [sp, #8]
 8005b64:	9903      	ldr	r1, [sp, #12]
 8005b66:	f7fb febd 	bl	80018e4 <__aeabi_dsub>
 8005b6a:	0022      	movs	r2, r4
 8005b6c:	002b      	movs	r3, r5
 8005b6e:	f7fb feb9 	bl	80018e4 <__aeabi_dsub>
 8005b72:	0004      	movs	r4, r0
 8005b74:	000d      	movs	r5, r1
 8005b76:	9806      	ldr	r0, [sp, #24]
 8005b78:	9907      	ldr	r1, [sp, #28]
 8005b7a:	4a1a      	ldr	r2, [pc, #104]	; (8005be4 <__ieee754_rem_pio2+0x31c>)
 8005b7c:	4b1a      	ldr	r3, [pc, #104]	; (8005be8 <__ieee754_rem_pio2+0x320>)
 8005b7e:	f7fb fbef 	bl	8001360 <__aeabi_dmul>
 8005b82:	0022      	movs	r2, r4
 8005b84:	002b      	movs	r3, r5
 8005b86:	f7fb fead 	bl	80018e4 <__aeabi_dsub>
 8005b8a:	0004      	movs	r4, r0
 8005b8c:	000d      	movs	r5, r1
 8005b8e:	e75d      	b.n	8005a4c <__ieee754_rem_pio2+0x184>
 8005b90:	4b16      	ldr	r3, [pc, #88]	; (8005bec <__ieee754_rem_pio2+0x324>)
 8005b92:	9a02      	ldr	r2, [sp, #8]
 8005b94:	429a      	cmp	r2, r3
 8005b96:	dd2b      	ble.n	8005bf0 <__ieee754_rem_pio2+0x328>
 8005b98:	0022      	movs	r2, r4
 8005b9a:	002b      	movs	r3, r5
 8005b9c:	0020      	movs	r0, r4
 8005b9e:	0029      	movs	r1, r5
 8005ba0:	f7fb fea0 	bl	80018e4 <__aeabi_dsub>
 8005ba4:	60b8      	str	r0, [r7, #8]
 8005ba6:	60f9      	str	r1, [r7, #12]
 8005ba8:	6038      	str	r0, [r7, #0]
 8005baa:	6079      	str	r1, [r7, #4]
 8005bac:	e6a1      	b.n	80058f2 <__ieee754_rem_pio2+0x2a>
 8005bae:	46c0      	nop			; (mov r8, r8)
 8005bb0:	3fe921fb 	.word	0x3fe921fb
 8005bb4:	4002d97b 	.word	0x4002d97b
 8005bb8:	3ff921fb 	.word	0x3ff921fb
 8005bbc:	54400000 	.word	0x54400000
 8005bc0:	1a626331 	.word	0x1a626331
 8005bc4:	3dd0b461 	.word	0x3dd0b461
 8005bc8:	2e037073 	.word	0x2e037073
 8005bcc:	3ba3198a 	.word	0x3ba3198a
 8005bd0:	413921fb 	.word	0x413921fb
 8005bd4:	6dc9c883 	.word	0x6dc9c883
 8005bd8:	3fe45f30 	.word	0x3fe45f30
 8005bdc:	3fe00000 	.word	0x3fe00000
 8005be0:	08006908 	.word	0x08006908
 8005be4:	252049c1 	.word	0x252049c1
 8005be8:	397b839a 	.word	0x397b839a
 8005bec:	7fefffff 	.word	0x7fefffff
 8005bf0:	9a02      	ldr	r2, [sp, #8]
 8005bf2:	0020      	movs	r0, r4
 8005bf4:	1516      	asrs	r6, r2, #20
 8005bf6:	4a29      	ldr	r2, [pc, #164]	; (8005c9c <__ieee754_rem_pio2+0x3d4>)
 8005bf8:	18b6      	adds	r6, r6, r2
 8005bfa:	9a02      	ldr	r2, [sp, #8]
 8005bfc:	0533      	lsls	r3, r6, #20
 8005bfe:	1ad5      	subs	r5, r2, r3
 8005c00:	0029      	movs	r1, r5
 8005c02:	f7fc fa0f 	bl	8002024 <__aeabi_d2iz>
 8005c06:	f7fc fa43 	bl	8002090 <__aeabi_i2d>
 8005c0a:	0002      	movs	r2, r0
 8005c0c:	000b      	movs	r3, r1
 8005c0e:	0020      	movs	r0, r4
 8005c10:	0029      	movs	r1, r5
 8005c12:	920a      	str	r2, [sp, #40]	; 0x28
 8005c14:	930b      	str	r3, [sp, #44]	; 0x2c
 8005c16:	f7fb fe65 	bl	80018e4 <__aeabi_dsub>
 8005c1a:	2200      	movs	r2, #0
 8005c1c:	4b20      	ldr	r3, [pc, #128]	; (8005ca0 <__ieee754_rem_pio2+0x3d8>)
 8005c1e:	f7fb fb9f 	bl	8001360 <__aeabi_dmul>
 8005c22:	000d      	movs	r5, r1
 8005c24:	0004      	movs	r4, r0
 8005c26:	f7fc f9fd 	bl	8002024 <__aeabi_d2iz>
 8005c2a:	f7fc fa31 	bl	8002090 <__aeabi_i2d>
 8005c2e:	0002      	movs	r2, r0
 8005c30:	000b      	movs	r3, r1
 8005c32:	0020      	movs	r0, r4
 8005c34:	0029      	movs	r1, r5
 8005c36:	920c      	str	r2, [sp, #48]	; 0x30
 8005c38:	930d      	str	r3, [sp, #52]	; 0x34
 8005c3a:	f7fb fe53 	bl	80018e4 <__aeabi_dsub>
 8005c3e:	2200      	movs	r2, #0
 8005c40:	4b17      	ldr	r3, [pc, #92]	; (8005ca0 <__ieee754_rem_pio2+0x3d8>)
 8005c42:	f7fb fb8d 	bl	8001360 <__aeabi_dmul>
 8005c46:	2503      	movs	r5, #3
 8005c48:	900e      	str	r0, [sp, #56]	; 0x38
 8005c4a:	910f      	str	r1, [sp, #60]	; 0x3c
 8005c4c:	ac0a      	add	r4, sp, #40	; 0x28
 8005c4e:	2200      	movs	r2, #0
 8005c50:	6920      	ldr	r0, [r4, #16]
 8005c52:	6961      	ldr	r1, [r4, #20]
 8005c54:	2300      	movs	r3, #0
 8005c56:	9502      	str	r5, [sp, #8]
 8005c58:	3c08      	subs	r4, #8
 8005c5a:	3d01      	subs	r5, #1
 8005c5c:	f7fa fbf8 	bl	8000450 <__aeabi_dcmpeq>
 8005c60:	2800      	cmp	r0, #0
 8005c62:	d1f4      	bne.n	8005c4e <__ieee754_rem_pio2+0x386>
 8005c64:	4b0f      	ldr	r3, [pc, #60]	; (8005ca4 <__ieee754_rem_pio2+0x3dc>)
 8005c66:	0032      	movs	r2, r6
 8005c68:	9301      	str	r3, [sp, #4]
 8005c6a:	2302      	movs	r3, #2
 8005c6c:	0039      	movs	r1, r7
 8005c6e:	9300      	str	r3, [sp, #0]
 8005c70:	a80a      	add	r0, sp, #40	; 0x28
 8005c72:	9b02      	ldr	r3, [sp, #8]
 8005c74:	f000 f904 	bl	8005e80 <__kernel_rem_pio2>
 8005c78:	9b09      	ldr	r3, [sp, #36]	; 0x24
 8005c7a:	0006      	movs	r6, r0
 8005c7c:	2b00      	cmp	r3, #0
 8005c7e:	db00      	blt.n	8005c82 <__ieee754_rem_pio2+0x3ba>
 8005c80:	e65f      	b.n	8005942 <__ieee754_rem_pio2+0x7a>
 8005c82:	2080      	movs	r0, #128	; 0x80
 8005c84:	6879      	ldr	r1, [r7, #4]
 8005c86:	683a      	ldr	r2, [r7, #0]
 8005c88:	0600      	lsls	r0, r0, #24
 8005c8a:	180b      	adds	r3, r1, r0
 8005c8c:	68f9      	ldr	r1, [r7, #12]
 8005c8e:	603a      	str	r2, [r7, #0]
 8005c90:	607b      	str	r3, [r7, #4]
 8005c92:	68ba      	ldr	r2, [r7, #8]
 8005c94:	180b      	adds	r3, r1, r0
 8005c96:	60ba      	str	r2, [r7, #8]
 8005c98:	60fb      	str	r3, [r7, #12]
 8005c9a:	e688      	b.n	80059ae <__ieee754_rem_pio2+0xe6>
 8005c9c:	fffffbea 	.word	0xfffffbea
 8005ca0:	41700000 	.word	0x41700000
 8005ca4:	08006988 	.word	0x08006988

08005ca8 <__ieee754_sqrt>:
 8005ca8:	b5f0      	push	{r4, r5, r6, r7, lr}
 8005caa:	000a      	movs	r2, r1
 8005cac:	000c      	movs	r4, r1
 8005cae:	496f      	ldr	r1, [pc, #444]	; (8005e6c <__ieee754_sqrt+0x1c4>)
 8005cb0:	0005      	movs	r5, r0
 8005cb2:	0003      	movs	r3, r0
 8005cb4:	0008      	movs	r0, r1
 8005cb6:	b087      	sub	sp, #28
 8005cb8:	4020      	ands	r0, r4
 8005cba:	4288      	cmp	r0, r1
 8005cbc:	d111      	bne.n	8005ce2 <__ieee754_sqrt+0x3a>
 8005cbe:	002a      	movs	r2, r5
 8005cc0:	0023      	movs	r3, r4
 8005cc2:	0028      	movs	r0, r5
 8005cc4:	0021      	movs	r1, r4
 8005cc6:	f7fb fb4b 	bl	8001360 <__aeabi_dmul>
 8005cca:	0002      	movs	r2, r0
 8005ccc:	000b      	movs	r3, r1
 8005cce:	0028      	movs	r0, r5
 8005cd0:	0021      	movs	r1, r4
 8005cd2:	f7fa fbeb 	bl	80004ac <__aeabi_dadd>
 8005cd6:	0005      	movs	r5, r0
 8005cd8:	000c      	movs	r4, r1
 8005cda:	0028      	movs	r0, r5
 8005cdc:	0021      	movs	r1, r4
 8005cde:	b007      	add	sp, #28
 8005ce0:	bdf0      	pop	{r4, r5, r6, r7, pc}
 8005ce2:	2c00      	cmp	r4, #0
 8005ce4:	dc12      	bgt.n	8005d0c <__ieee754_sqrt+0x64>
 8005ce6:	0061      	lsls	r1, r4, #1
 8005ce8:	0849      	lsrs	r1, r1, #1
 8005cea:	4329      	orrs	r1, r5
 8005cec:	d0f5      	beq.n	8005cda <__ieee754_sqrt+0x32>
 8005cee:	2100      	movs	r1, #0
 8005cf0:	428c      	cmp	r4, r1
 8005cf2:	d100      	bne.n	8005cf6 <__ieee754_sqrt+0x4e>
 8005cf4:	e09f      	b.n	8005e36 <__ieee754_sqrt+0x18e>
 8005cf6:	002a      	movs	r2, r5
 8005cf8:	0023      	movs	r3, r4
 8005cfa:	0028      	movs	r0, r5
 8005cfc:	0021      	movs	r1, r4
 8005cfe:	f7fb fdf1 	bl	80018e4 <__aeabi_dsub>
 8005d02:	0002      	movs	r2, r0
 8005d04:	000b      	movs	r3, r1
 8005d06:	f7fa ff31 	bl	8000b6c <__aeabi_ddiv>
 8005d0a:	e7e4      	b.n	8005cd6 <__ieee754_sqrt+0x2e>
 8005d0c:	1521      	asrs	r1, r4, #20
 8005d0e:	d100      	bne.n	8005d12 <__ieee754_sqrt+0x6a>
 8005d10:	e091      	b.n	8005e36 <__ieee754_sqrt+0x18e>
 8005d12:	4857      	ldr	r0, [pc, #348]	; (8005e70 <__ieee754_sqrt+0x1c8>)
 8005d14:	0312      	lsls	r2, r2, #12
 8005d16:	180c      	adds	r4, r1, r0
 8005d18:	2080      	movs	r0, #128	; 0x80
 8005d1a:	0b12      	lsrs	r2, r2, #12
 8005d1c:	0340      	lsls	r0, r0, #13
 8005d1e:	4310      	orrs	r0, r2
 8005d20:	07c9      	lsls	r1, r1, #31
 8005d22:	d403      	bmi.n	8005d2c <__ieee754_sqrt+0x84>
 8005d24:	0fda      	lsrs	r2, r3, #31
 8005d26:	0040      	lsls	r0, r0, #1
 8005d28:	1810      	adds	r0, r2, r0
 8005d2a:	005b      	lsls	r3, r3, #1
 8005d2c:	2500      	movs	r5, #0
 8005d2e:	1062      	asrs	r2, r4, #1
 8005d30:	0040      	lsls	r0, r0, #1
 8005d32:	2480      	movs	r4, #128	; 0x80
 8005d34:	9205      	str	r2, [sp, #20]
 8005d36:	0fda      	lsrs	r2, r3, #31
 8005d38:	1812      	adds	r2, r2, r0
 8005d3a:	0029      	movs	r1, r5
 8005d3c:	2016      	movs	r0, #22
 8005d3e:	005b      	lsls	r3, r3, #1
 8005d40:	03a4      	lsls	r4, r4, #14
 8005d42:	190e      	adds	r6, r1, r4
 8005d44:	4296      	cmp	r6, r2
 8005d46:	dc02      	bgt.n	8005d4e <__ieee754_sqrt+0xa6>
 8005d48:	1931      	adds	r1, r6, r4
 8005d4a:	1b92      	subs	r2, r2, r6
 8005d4c:	192d      	adds	r5, r5, r4
 8005d4e:	0fde      	lsrs	r6, r3, #31
 8005d50:	0052      	lsls	r2, r2, #1
 8005d52:	3801      	subs	r0, #1
 8005d54:	18b2      	adds	r2, r6, r2
 8005d56:	005b      	lsls	r3, r3, #1
 8005d58:	0864      	lsrs	r4, r4, #1
 8005d5a:	2800      	cmp	r0, #0
 8005d5c:	d1f1      	bne.n	8005d42 <__ieee754_sqrt+0x9a>
 8005d5e:	2620      	movs	r6, #32
 8005d60:	2780      	movs	r7, #128	; 0x80
 8005d62:	0004      	movs	r4, r0
 8005d64:	9604      	str	r6, [sp, #16]
 8005d66:	063f      	lsls	r7, r7, #24
 8005d68:	183e      	adds	r6, r7, r0
 8005d6a:	46b4      	mov	ip, r6
 8005d6c:	428a      	cmp	r2, r1
 8005d6e:	dc02      	bgt.n	8005d76 <__ieee754_sqrt+0xce>
 8005d70:	d114      	bne.n	8005d9c <__ieee754_sqrt+0xf4>
 8005d72:	429e      	cmp	r6, r3
 8005d74:	d812      	bhi.n	8005d9c <__ieee754_sqrt+0xf4>
 8005d76:	4660      	mov	r0, ip
 8005d78:	4666      	mov	r6, ip
 8005d7a:	19c0      	adds	r0, r0, r7
 8005d7c:	9100      	str	r1, [sp, #0]
 8005d7e:	2e00      	cmp	r6, #0
 8005d80:	da03      	bge.n	8005d8a <__ieee754_sqrt+0xe2>
 8005d82:	43c6      	mvns	r6, r0
 8005d84:	0ff6      	lsrs	r6, r6, #31
 8005d86:	198e      	adds	r6, r1, r6
 8005d88:	9600      	str	r6, [sp, #0]
 8005d8a:	1a52      	subs	r2, r2, r1
 8005d8c:	4563      	cmp	r3, ip
 8005d8e:	4189      	sbcs	r1, r1
 8005d90:	4249      	negs	r1, r1
 8005d92:	1a52      	subs	r2, r2, r1
 8005d94:	4661      	mov	r1, ip
 8005d96:	1a5b      	subs	r3, r3, r1
 8005d98:	9900      	ldr	r1, [sp, #0]
 8005d9a:	19e4      	adds	r4, r4, r7
 8005d9c:	0fde      	lsrs	r6, r3, #31
 8005d9e:	0052      	lsls	r2, r2, #1
 8005da0:	18b2      	adds	r2, r6, r2
 8005da2:	9e04      	ldr	r6, [sp, #16]
 8005da4:	005b      	lsls	r3, r3, #1
 8005da6:	3e01      	subs	r6, #1
 8005da8:	087f      	lsrs	r7, r7, #1
 8005daa:	9604      	str	r6, [sp, #16]
 8005dac:	2e00      	cmp	r6, #0
 8005dae:	d1db      	bne.n	8005d68 <__ieee754_sqrt+0xc0>
 8005db0:	431a      	orrs	r2, r3
 8005db2:	d01f      	beq.n	8005df4 <__ieee754_sqrt+0x14c>
 8005db4:	4e2f      	ldr	r6, [pc, #188]	; (8005e74 <__ieee754_sqrt+0x1cc>)
 8005db6:	4f30      	ldr	r7, [pc, #192]	; (8005e78 <__ieee754_sqrt+0x1d0>)
 8005db8:	6830      	ldr	r0, [r6, #0]
 8005dba:	6871      	ldr	r1, [r6, #4]
 8005dbc:	683a      	ldr	r2, [r7, #0]
 8005dbe:	687b      	ldr	r3, [r7, #4]
 8005dc0:	9200      	str	r2, [sp, #0]
 8005dc2:	9301      	str	r3, [sp, #4]
 8005dc4:	6832      	ldr	r2, [r6, #0]
 8005dc6:	6873      	ldr	r3, [r6, #4]
 8005dc8:	9202      	str	r2, [sp, #8]
 8005dca:	9303      	str	r3, [sp, #12]
 8005dcc:	9a00      	ldr	r2, [sp, #0]
 8005dce:	9b01      	ldr	r3, [sp, #4]
 8005dd0:	f7fb fd88 	bl	80018e4 <__aeabi_dsub>
 8005dd4:	0002      	movs	r2, r0
 8005dd6:	000b      	movs	r3, r1
 8005dd8:	9802      	ldr	r0, [sp, #8]
 8005dda:	9903      	ldr	r1, [sp, #12]
 8005ddc:	f7fa fb48 	bl	8000470 <__aeabi_dcmple>
 8005de0:	2800      	cmp	r0, #0
 8005de2:	d007      	beq.n	8005df4 <__ieee754_sqrt+0x14c>
 8005de4:	6830      	ldr	r0, [r6, #0]
 8005de6:	6871      	ldr	r1, [r6, #4]
 8005de8:	683a      	ldr	r2, [r7, #0]
 8005dea:	687b      	ldr	r3, [r7, #4]
 8005dec:	1c67      	adds	r7, r4, #1
 8005dee:	d127      	bne.n	8005e40 <__ieee754_sqrt+0x198>
 8005df0:	9c04      	ldr	r4, [sp, #16]
 8005df2:	3501      	adds	r5, #1
 8005df4:	4b21      	ldr	r3, [pc, #132]	; (8005e7c <__ieee754_sqrt+0x1d4>)
 8005df6:	1069      	asrs	r1, r5, #1
 8005df8:	18c9      	adds	r1, r1, r3
 8005dfa:	0864      	lsrs	r4, r4, #1
 8005dfc:	07ed      	lsls	r5, r5, #31
 8005dfe:	d502      	bpl.n	8005e06 <__ieee754_sqrt+0x15e>
 8005e00:	2380      	movs	r3, #128	; 0x80
 8005e02:	061b      	lsls	r3, r3, #24
 8005e04:	431c      	orrs	r4, r3
 8005e06:	9b05      	ldr	r3, [sp, #20]
 8005e08:	0025      	movs	r5, r4
 8005e0a:	0518      	lsls	r0, r3, #20
 8005e0c:	1843      	adds	r3, r0, r1
 8005e0e:	001c      	movs	r4, r3
 8005e10:	e763      	b.n	8005cda <__ieee754_sqrt+0x32>
 8005e12:	0ada      	lsrs	r2, r3, #11
 8005e14:	3815      	subs	r0, #21
 8005e16:	055b      	lsls	r3, r3, #21
 8005e18:	2a00      	cmp	r2, #0
 8005e1a:	d0fa      	beq.n	8005e12 <__ieee754_sqrt+0x16a>
 8005e1c:	2480      	movs	r4, #128	; 0x80
 8005e1e:	0364      	lsls	r4, r4, #13
 8005e20:	4222      	tst	r2, r4
 8005e22:	d00a      	beq.n	8005e3a <__ieee754_sqrt+0x192>
 8005e24:	2420      	movs	r4, #32
 8005e26:	001e      	movs	r6, r3
 8005e28:	1a64      	subs	r4, r4, r1
 8005e2a:	40e6      	lsrs	r6, r4
 8005e2c:	1e4d      	subs	r5, r1, #1
 8005e2e:	408b      	lsls	r3, r1
 8005e30:	4332      	orrs	r2, r6
 8005e32:	1b41      	subs	r1, r0, r5
 8005e34:	e76d      	b.n	8005d12 <__ieee754_sqrt+0x6a>
 8005e36:	2000      	movs	r0, #0
 8005e38:	e7ee      	b.n	8005e18 <__ieee754_sqrt+0x170>
 8005e3a:	0052      	lsls	r2, r2, #1
 8005e3c:	3101      	adds	r1, #1
 8005e3e:	e7ef      	b.n	8005e20 <__ieee754_sqrt+0x178>
 8005e40:	f7fa fb34 	bl	80004ac <__aeabi_dadd>
 8005e44:	6877      	ldr	r7, [r6, #4]
 8005e46:	6836      	ldr	r6, [r6, #0]
 8005e48:	0002      	movs	r2, r0
 8005e4a:	000b      	movs	r3, r1
 8005e4c:	0030      	movs	r0, r6
 8005e4e:	0039      	movs	r1, r7
 8005e50:	f7fa fb04 	bl	800045c <__aeabi_dcmplt>
 8005e54:	2800      	cmp	r0, #0
 8005e56:	d004      	beq.n	8005e62 <__ieee754_sqrt+0x1ba>
 8005e58:	3402      	adds	r4, #2
 8005e5a:	4263      	negs	r3, r4
 8005e5c:	4163      	adcs	r3, r4
 8005e5e:	18ed      	adds	r5, r5, r3
 8005e60:	e7c8      	b.n	8005df4 <__ieee754_sqrt+0x14c>
 8005e62:	2301      	movs	r3, #1
 8005e64:	3401      	adds	r4, #1
 8005e66:	439c      	bics	r4, r3
 8005e68:	e7c4      	b.n	8005df4 <__ieee754_sqrt+0x14c>
 8005e6a:	46c0      	nop			; (mov r8, r8)
 8005e6c:	7ff00000 	.word	0x7ff00000
 8005e70:	fffffc01 	.word	0xfffffc01
 8005e74:	20000010 	.word	0x20000010
 8005e78:	20000018 	.word	0x20000018
 8005e7c:	3fe00000 	.word	0x3fe00000

08005e80 <__kernel_rem_pio2>:
 8005e80:	b5f0      	push	{r4, r5, r6, r7, lr}
 8005e82:	4ccb      	ldr	r4, [pc, #812]	; (80061b0 <__kernel_rem_pio2+0x330>)
 8005e84:	44a5      	add	sp, r4
 8005e86:	0014      	movs	r4, r2
 8005e88:	9aa2      	ldr	r2, [sp, #648]	; 0x288
 8005e8a:	930c      	str	r3, [sp, #48]	; 0x30
 8005e8c:	4bc9      	ldr	r3, [pc, #804]	; (80061b4 <__kernel_rem_pio2+0x334>)
 8005e8e:	0092      	lsls	r2, r2, #2
 8005e90:	58d3      	ldr	r3, [r2, r3]
 8005e92:	900d      	str	r0, [sp, #52]	; 0x34
 8005e94:	9308      	str	r3, [sp, #32]
 8005e96:	9b0c      	ldr	r3, [sp, #48]	; 0x30
 8005e98:	9106      	str	r1, [sp, #24]
 8005e9a:	3b01      	subs	r3, #1
 8005e9c:	930b      	str	r3, [sp, #44]	; 0x2c
 8005e9e:	2300      	movs	r3, #0
 8005ea0:	9300      	str	r3, [sp, #0]
 8005ea2:	0023      	movs	r3, r4
 8005ea4:	3314      	adds	r3, #20
 8005ea6:	db04      	blt.n	8005eb2 <__kernel_rem_pio2+0x32>
 8005ea8:	2118      	movs	r1, #24
 8005eaa:	1ee0      	subs	r0, r4, #3
 8005eac:	f7fa f9d4 	bl	8000258 <__divsi3>
 8005eb0:	9000      	str	r0, [sp, #0]
 8005eb2:	9b00      	ldr	r3, [sp, #0]
 8005eb4:	ae24      	add	r6, sp, #144	; 0x90
 8005eb6:	1c5a      	adds	r2, r3, #1
 8005eb8:	2318      	movs	r3, #24
 8005eba:	425b      	negs	r3, r3
 8005ebc:	4353      	muls	r3, r2
 8005ebe:	191b      	adds	r3, r3, r4
 8005ec0:	9a0b      	ldr	r2, [sp, #44]	; 0x2c
 8005ec2:	9302      	str	r3, [sp, #8]
 8005ec4:	9b00      	ldr	r3, [sp, #0]
 8005ec6:	1a9d      	subs	r5, r3, r2
 8005ec8:	002c      	movs	r4, r5
 8005eca:	9b08      	ldr	r3, [sp, #32]
 8005ecc:	189f      	adds	r7, r3, r2
 8005ece:	1b63      	subs	r3, r4, r5
 8005ed0:	429f      	cmp	r7, r3
 8005ed2:	da0f      	bge.n	8005ef4 <__kernel_rem_pio2+0x74>
 8005ed4:	9e0c      	ldr	r6, [sp, #48]	; 0x30
 8005ed6:	af74      	add	r7, sp, #464	; 0x1d0
 8005ed8:	9b0c      	ldr	r3, [sp, #48]	; 0x30
 8005eda:	9a08      	ldr	r2, [sp, #32]
 8005edc:	1af3      	subs	r3, r6, r3
 8005ede:	429a      	cmp	r2, r3
 8005ee0:	db30      	blt.n	8005f44 <__kernel_rem_pio2+0xc4>
 8005ee2:	ab24      	add	r3, sp, #144	; 0x90
 8005ee4:	00f4      	lsls	r4, r6, #3
 8005ee6:	2200      	movs	r2, #0
 8005ee8:	18e4      	adds	r4, r4, r3
 8005eea:	2300      	movs	r3, #0
 8005eec:	2500      	movs	r5, #0
 8005eee:	9204      	str	r2, [sp, #16]
 8005ef0:	9305      	str	r3, [sp, #20]
 8005ef2:	e01e      	b.n	8005f32 <__kernel_rem_pio2+0xb2>
 8005ef4:	2c00      	cmp	r4, #0
 8005ef6:	db07      	blt.n	8005f08 <__kernel_rem_pio2+0x88>
 8005ef8:	9aa3      	ldr	r2, [sp, #652]	; 0x28c
 8005efa:	00a3      	lsls	r3, r4, #2
 8005efc:	58d0      	ldr	r0, [r2, r3]
 8005efe:	f7fc f8c7 	bl	8002090 <__aeabi_i2d>
 8005f02:	c603      	stmia	r6!, {r0, r1}
 8005f04:	3401      	adds	r4, #1
 8005f06:	e7e2      	b.n	8005ece <__kernel_rem_pio2+0x4e>
 8005f08:	2000      	movs	r0, #0
 8005f0a:	2100      	movs	r1, #0
 8005f0c:	e7f9      	b.n	8005f02 <__kernel_rem_pio2+0x82>
 8005f0e:	9b0d      	ldr	r3, [sp, #52]	; 0x34
 8005f10:	00e9      	lsls	r1, r5, #3
 8005f12:	1859      	adds	r1, r3, r1
 8005f14:	6808      	ldr	r0, [r1, #0]
 8005f16:	6849      	ldr	r1, [r1, #4]
 8005f18:	6822      	ldr	r2, [r4, #0]
 8005f1a:	6863      	ldr	r3, [r4, #4]
 8005f1c:	f7fb fa20 	bl	8001360 <__aeabi_dmul>
 8005f20:	0002      	movs	r2, r0
 8005f22:	000b      	movs	r3, r1
 8005f24:	9804      	ldr	r0, [sp, #16]
 8005f26:	9905      	ldr	r1, [sp, #20]
 8005f28:	f7fa fac0 	bl	80004ac <__aeabi_dadd>
 8005f2c:	9004      	str	r0, [sp, #16]
 8005f2e:	9105      	str	r1, [sp, #20]
 8005f30:	3501      	adds	r5, #1
 8005f32:	9b0b      	ldr	r3, [sp, #44]	; 0x2c
 8005f34:	3c08      	subs	r4, #8
 8005f36:	429d      	cmp	r5, r3
 8005f38:	dde9      	ble.n	8005f0e <__kernel_rem_pio2+0x8e>
 8005f3a:	9b04      	ldr	r3, [sp, #16]
 8005f3c:	9c05      	ldr	r4, [sp, #20]
 8005f3e:	3601      	adds	r6, #1
 8005f40:	c718      	stmia	r7!, {r3, r4}
 8005f42:	e7c9      	b.n	8005ed8 <__kernel_rem_pio2+0x58>
 8005f44:	9b08      	ldr	r3, [sp, #32]
 8005f46:	aa10      	add	r2, sp, #64	; 0x40
 8005f48:	009b      	lsls	r3, r3, #2
 8005f4a:	189b      	adds	r3, r3, r2
 8005f4c:	930f      	str	r3, [sp, #60]	; 0x3c
 8005f4e:	9b00      	ldr	r3, [sp, #0]
 8005f50:	9aa3      	ldr	r2, [sp, #652]	; 0x28c
 8005f52:	009b      	lsls	r3, r3, #2
 8005f54:	18d3      	adds	r3, r2, r3
 8005f56:	930e      	str	r3, [sp, #56]	; 0x38
 8005f58:	9b08      	ldr	r3, [sp, #32]
 8005f5a:	9304      	str	r3, [sp, #16]
 8005f5c:	9b04      	ldr	r3, [sp, #16]
 8005f5e:	aa74      	add	r2, sp, #464	; 0x1d0
 8005f60:	00db      	lsls	r3, r3, #3
 8005f62:	18d3      	adds	r3, r2, r3
 8005f64:	681c      	ldr	r4, [r3, #0]
 8005f66:	685d      	ldr	r5, [r3, #4]
 8005f68:	ab10      	add	r3, sp, #64	; 0x40
 8005f6a:	9300      	str	r3, [sp, #0]
 8005f6c:	930a      	str	r3, [sp, #40]	; 0x28
 8005f6e:	9b04      	ldr	r3, [sp, #16]
 8005f70:	9307      	str	r3, [sp, #28]
 8005f72:	9b07      	ldr	r3, [sp, #28]
 8005f74:	2b00      	cmp	r3, #0
 8005f76:	dc74      	bgt.n	8006062 <__kernel_rem_pio2+0x1e2>
 8005f78:	0020      	movs	r0, r4
 8005f7a:	0029      	movs	r1, r5
 8005f7c:	9a02      	ldr	r2, [sp, #8]
 8005f7e:	f000 faeb 	bl	8006558 <scalbn>
 8005f82:	23ff      	movs	r3, #255	; 0xff
 8005f84:	2200      	movs	r2, #0
 8005f86:	059b      	lsls	r3, r3, #22
 8005f88:	0004      	movs	r4, r0
 8005f8a:	000d      	movs	r5, r1
 8005f8c:	f7fb f9e8 	bl	8001360 <__aeabi_dmul>
 8005f90:	f000 fb4c 	bl	800662c <floor>
 8005f94:	2200      	movs	r2, #0
 8005f96:	4b88      	ldr	r3, [pc, #544]	; (80061b8 <__kernel_rem_pio2+0x338>)
 8005f98:	f7fb f9e2 	bl	8001360 <__aeabi_dmul>
 8005f9c:	0002      	movs	r2, r0
 8005f9e:	000b      	movs	r3, r1
 8005fa0:	0020      	movs	r0, r4
 8005fa2:	0029      	movs	r1, r5
 8005fa4:	f7fb fc9e 	bl	80018e4 <__aeabi_dsub>
 8005fa8:	000d      	movs	r5, r1
 8005faa:	0004      	movs	r4, r0
 8005fac:	f7fc f83a 	bl	8002024 <__aeabi_d2iz>
 8005fb0:	900a      	str	r0, [sp, #40]	; 0x28
 8005fb2:	f7fc f86d 	bl	8002090 <__aeabi_i2d>
 8005fb6:	000b      	movs	r3, r1
 8005fb8:	0002      	movs	r2, r0
 8005fba:	0029      	movs	r1, r5
 8005fbc:	0020      	movs	r0, r4
 8005fbe:	f7fb fc91 	bl	80018e4 <__aeabi_dsub>
 8005fc2:	9b02      	ldr	r3, [sp, #8]
 8005fc4:	0006      	movs	r6, r0
 8005fc6:	000f      	movs	r7, r1
 8005fc8:	2b00      	cmp	r3, #0
 8005fca:	dd74      	ble.n	80060b6 <__kernel_rem_pio2+0x236>
 8005fcc:	2018      	movs	r0, #24
 8005fce:	9b04      	ldr	r3, [sp, #16]
 8005fd0:	aa10      	add	r2, sp, #64	; 0x40
 8005fd2:	3b01      	subs	r3, #1
 8005fd4:	009b      	lsls	r3, r3, #2
 8005fd6:	589a      	ldr	r2, [r3, r2]
 8005fd8:	9902      	ldr	r1, [sp, #8]
 8005fda:	9c0a      	ldr	r4, [sp, #40]	; 0x28
 8005fdc:	1a40      	subs	r0, r0, r1
 8005fde:	0011      	movs	r1, r2
 8005fe0:	4101      	asrs	r1, r0
 8005fe2:	1864      	adds	r4, r4, r1
 8005fe4:	4081      	lsls	r1, r0
 8005fe6:	1a52      	subs	r2, r2, r1
 8005fe8:	a910      	add	r1, sp, #64	; 0x40
 8005fea:	505a      	str	r2, [r3, r1]
 8005fec:	2317      	movs	r3, #23
 8005fee:	9902      	ldr	r1, [sp, #8]
 8005ff0:	940a      	str	r4, [sp, #40]	; 0x28
 8005ff2:	1a5b      	subs	r3, r3, r1
 8005ff4:	411a      	asrs	r2, r3
 8005ff6:	9207      	str	r2, [sp, #28]
 8005ff8:	9b07      	ldr	r3, [sp, #28]
 8005ffa:	2b00      	cmp	r3, #0
 8005ffc:	dd6d      	ble.n	80060da <__kernel_rem_pio2+0x25a>
 8005ffe:	2200      	movs	r2, #0
 8006000:	9b0a      	ldr	r3, [sp, #40]	; 0x28
 8006002:	2080      	movs	r0, #128	; 0x80
 8006004:	3301      	adds	r3, #1
 8006006:	930a      	str	r3, [sp, #40]	; 0x28
 8006008:	4b6c      	ldr	r3, [pc, #432]	; (80061bc <__kernel_rem_pio2+0x33c>)
 800600a:	0014      	movs	r4, r2
 800600c:	469c      	mov	ip, r3
 800600e:	2501      	movs	r5, #1
 8006010:	0440      	lsls	r0, r0, #17
 8006012:	9b04      	ldr	r3, [sp, #16]
 8006014:	4293      	cmp	r3, r2
 8006016:	dd00      	ble.n	800601a <__kernel_rem_pio2+0x19a>
 8006018:	e09b      	b.n	8006152 <__kernel_rem_pio2+0x2d2>
 800601a:	9b02      	ldr	r3, [sp, #8]
 800601c:	2b00      	cmp	r3, #0
 800601e:	dd05      	ble.n	800602c <__kernel_rem_pio2+0x1ac>
 8006020:	2b01      	cmp	r3, #1
 8006022:	d100      	bne.n	8006026 <__kernel_rem_pio2+0x1a6>
 8006024:	e0ab      	b.n	800617e <__kernel_rem_pio2+0x2fe>
 8006026:	2b02      	cmp	r3, #2
 8006028:	d100      	bne.n	800602c <__kernel_rem_pio2+0x1ac>
 800602a:	e0b2      	b.n	8006192 <__kernel_rem_pio2+0x312>
 800602c:	9b07      	ldr	r3, [sp, #28]
 800602e:	2b02      	cmp	r3, #2
 8006030:	d153      	bne.n	80060da <__kernel_rem_pio2+0x25a>
 8006032:	0032      	movs	r2, r6
 8006034:	003b      	movs	r3, r7
 8006036:	2000      	movs	r0, #0
 8006038:	4961      	ldr	r1, [pc, #388]	; (80061c0 <__kernel_rem_pio2+0x340>)
 800603a:	f7fb fc53 	bl	80018e4 <__aeabi_dsub>
 800603e:	0006      	movs	r6, r0
 8006040:	000f      	movs	r7, r1
 8006042:	2c00      	cmp	r4, #0
 8006044:	d049      	beq.n	80060da <__kernel_rem_pio2+0x25a>
 8006046:	9a02      	ldr	r2, [sp, #8]
 8006048:	2000      	movs	r0, #0
 800604a:	495d      	ldr	r1, [pc, #372]	; (80061c0 <__kernel_rem_pio2+0x340>)
 800604c:	f000 fa84 	bl	8006558 <scalbn>
 8006050:	0002      	movs	r2, r0
 8006052:	000b      	movs	r3, r1
 8006054:	0030      	movs	r0, r6
 8006056:	0039      	movs	r1, r7
 8006058:	f7fb fc44 	bl	80018e4 <__aeabi_dsub>
 800605c:	0006      	movs	r6, r0
 800605e:	000f      	movs	r7, r1
 8006060:	e03b      	b.n	80060da <__kernel_rem_pio2+0x25a>
 8006062:	2200      	movs	r2, #0
 8006064:	4b57      	ldr	r3, [pc, #348]	; (80061c4 <__kernel_rem_pio2+0x344>)
 8006066:	0020      	movs	r0, r4
 8006068:	0029      	movs	r1, r5
 800606a:	f7fb f979 	bl	8001360 <__aeabi_dmul>
 800606e:	f7fb ffd9 	bl	8002024 <__aeabi_d2iz>
 8006072:	f7fc f80d 	bl	8002090 <__aeabi_i2d>
 8006076:	2200      	movs	r2, #0
 8006078:	4b53      	ldr	r3, [pc, #332]	; (80061c8 <__kernel_rem_pio2+0x348>)
 800607a:	0006      	movs	r6, r0
 800607c:	000f      	movs	r7, r1
 800607e:	f7fb f96f 	bl	8001360 <__aeabi_dmul>
 8006082:	0002      	movs	r2, r0
 8006084:	000b      	movs	r3, r1
 8006086:	0020      	movs	r0, r4
 8006088:	0029      	movs	r1, r5
 800608a:	f7fb fc2b 	bl	80018e4 <__aeabi_dsub>
 800608e:	f7fb ffc9 	bl	8002024 <__aeabi_d2iz>
 8006092:	9b0a      	ldr	r3, [sp, #40]	; 0x28
 8006094:	aa74      	add	r2, sp, #464	; 0x1d0
 8006096:	c301      	stmia	r3!, {r0}
 8006098:	930a      	str	r3, [sp, #40]	; 0x28
 800609a:	9b07      	ldr	r3, [sp, #28]
 800609c:	0030      	movs	r0, r6
 800609e:	3b01      	subs	r3, #1
 80060a0:	9307      	str	r3, [sp, #28]
 80060a2:	00db      	lsls	r3, r3, #3
 80060a4:	18d3      	adds	r3, r2, r3
 80060a6:	0039      	movs	r1, r7
 80060a8:	681a      	ldr	r2, [r3, #0]
 80060aa:	685b      	ldr	r3, [r3, #4]
 80060ac:	f7fa f9fe 	bl	80004ac <__aeabi_dadd>
 80060b0:	0004      	movs	r4, r0
 80060b2:	000d      	movs	r5, r1
 80060b4:	e75d      	b.n	8005f72 <__kernel_rem_pio2+0xf2>
 80060b6:	9b02      	ldr	r3, [sp, #8]
 80060b8:	2b00      	cmp	r3, #0
 80060ba:	d107      	bne.n	80060cc <__kernel_rem_pio2+0x24c>
 80060bc:	9b04      	ldr	r3, [sp, #16]
 80060be:	aa10      	add	r2, sp, #64	; 0x40
 80060c0:	3b01      	subs	r3, #1
 80060c2:	009b      	lsls	r3, r3, #2
 80060c4:	589b      	ldr	r3, [r3, r2]
 80060c6:	15db      	asrs	r3, r3, #23
 80060c8:	9307      	str	r3, [sp, #28]
 80060ca:	e795      	b.n	8005ff8 <__kernel_rem_pio2+0x178>
 80060cc:	2200      	movs	r2, #0
 80060ce:	4b3f      	ldr	r3, [pc, #252]	; (80061cc <__kernel_rem_pio2+0x34c>)
 80060d0:	f7fa f9e2 	bl	8000498 <__aeabi_dcmpge>
 80060d4:	2800      	cmp	r0, #0
 80060d6:	d139      	bne.n	800614c <__kernel_rem_pio2+0x2cc>
 80060d8:	9007      	str	r0, [sp, #28]
 80060da:	2200      	movs	r2, #0
 80060dc:	2300      	movs	r3, #0
 80060de:	0030      	movs	r0, r6
 80060e0:	0039      	movs	r1, r7
 80060e2:	f7fa f9b5 	bl	8000450 <__aeabi_dcmpeq>
 80060e6:	2800      	cmp	r0, #0
 80060e8:	d100      	bne.n	80060ec <__kernel_rem_pio2+0x26c>
 80060ea:	e0bc      	b.n	8006266 <__kernel_rem_pio2+0x3e6>
 80060ec:	2200      	movs	r2, #0
 80060ee:	9b04      	ldr	r3, [sp, #16]
 80060f0:	3b01      	subs	r3, #1
 80060f2:	9300      	str	r3, [sp, #0]
 80060f4:	9908      	ldr	r1, [sp, #32]
 80060f6:	428b      	cmp	r3, r1
 80060f8:	da53      	bge.n	80061a2 <__kernel_rem_pio2+0x322>
 80060fa:	2a00      	cmp	r2, #0
 80060fc:	d100      	bne.n	8006100 <__kernel_rem_pio2+0x280>
 80060fe:	e098      	b.n	8006232 <__kernel_rem_pio2+0x3b2>
 8006100:	9b02      	ldr	r3, [sp, #8]
 8006102:	aa10      	add	r2, sp, #64	; 0x40
 8006104:	3b18      	subs	r3, #24
 8006106:	9302      	str	r3, [sp, #8]
 8006108:	9b00      	ldr	r3, [sp, #0]
 800610a:	009b      	lsls	r3, r3, #2
 800610c:	589b      	ldr	r3, [r3, r2]
 800610e:	2b00      	cmp	r3, #0
 8006110:	d100      	bne.n	8006114 <__kernel_rem_pio2+0x294>
 8006112:	e0a4      	b.n	800625e <__kernel_rem_pio2+0x3de>
 8006114:	2000      	movs	r0, #0
 8006116:	9a02      	ldr	r2, [sp, #8]
 8006118:	4929      	ldr	r1, [pc, #164]	; (80061c0 <__kernel_rem_pio2+0x340>)
 800611a:	f000 fa1d 	bl	8006558 <scalbn>
 800611e:	0006      	movs	r6, r0
 8006120:	000f      	movs	r7, r1
 8006122:	9c00      	ldr	r4, [sp, #0]
 8006124:	2c00      	cmp	r4, #0
 8006126:	db00      	blt.n	800612a <__kernel_rem_pio2+0x2aa>
 8006128:	e0dc      	b.n	80062e4 <__kernel_rem_pio2+0x464>
 800612a:	4b29      	ldr	r3, [pc, #164]	; (80061d0 <__kernel_rem_pio2+0x350>)
 800612c:	9c00      	ldr	r4, [sp, #0]
 800612e:	930b      	str	r3, [sp, #44]	; 0x2c
 8006130:	2c00      	cmp	r4, #0
 8006132:	da00      	bge.n	8006136 <__kernel_rem_pio2+0x2b6>
 8006134:	e10f      	b.n	8006356 <__kernel_rem_pio2+0x4d6>
 8006136:	00e6      	lsls	r6, r4, #3
 8006138:	ab74      	add	r3, sp, #464	; 0x1d0
 800613a:	18f3      	adds	r3, r6, r3
 800613c:	9302      	str	r3, [sp, #8]
 800613e:	9b00      	ldr	r3, [sp, #0]
 8006140:	2600      	movs	r6, #0
 8006142:	1b1b      	subs	r3, r3, r4
 8006144:	2700      	movs	r7, #0
 8006146:	2500      	movs	r5, #0
 8006148:	9304      	str	r3, [sp, #16]
 800614a:	e0f6      	b.n	800633a <__kernel_rem_pio2+0x4ba>
 800614c:	2302      	movs	r3, #2
 800614e:	9307      	str	r3, [sp, #28]
 8006150:	e755      	b.n	8005ffe <__kernel_rem_pio2+0x17e>
 8006152:	9b00      	ldr	r3, [sp, #0]
 8006154:	681b      	ldr	r3, [r3, #0]
 8006156:	2c00      	cmp	r4, #0
 8006158:	d10b      	bne.n	8006172 <__kernel_rem_pio2+0x2f2>
 800615a:	2b00      	cmp	r3, #0
 800615c:	d003      	beq.n	8006166 <__kernel_rem_pio2+0x2e6>
 800615e:	9c00      	ldr	r4, [sp, #0]
 8006160:	1ac3      	subs	r3, r0, r3
 8006162:	6023      	str	r3, [r4, #0]
 8006164:	002b      	movs	r3, r5
 8006166:	9c00      	ldr	r4, [sp, #0]
 8006168:	3201      	adds	r2, #1
 800616a:	3404      	adds	r4, #4
 800616c:	9400      	str	r4, [sp, #0]
 800616e:	001c      	movs	r4, r3
 8006170:	e74f      	b.n	8006012 <__kernel_rem_pio2+0x192>
 8006172:	4661      	mov	r1, ip
 8006174:	1acb      	subs	r3, r1, r3
 8006176:	9900      	ldr	r1, [sp, #0]
 8006178:	600b      	str	r3, [r1, #0]
 800617a:	0023      	movs	r3, r4
 800617c:	e7f3      	b.n	8006166 <__kernel_rem_pio2+0x2e6>
 800617e:	9b04      	ldr	r3, [sp, #16]
 8006180:	aa10      	add	r2, sp, #64	; 0x40
 8006182:	3b01      	subs	r3, #1
 8006184:	009b      	lsls	r3, r3, #2
 8006186:	589a      	ldr	r2, [r3, r2]
 8006188:	0252      	lsls	r2, r2, #9
 800618a:	0a52      	lsrs	r2, r2, #9
 800618c:	a910      	add	r1, sp, #64	; 0x40
 800618e:	505a      	str	r2, [r3, r1]
 8006190:	e74c      	b.n	800602c <__kernel_rem_pio2+0x1ac>
 8006192:	9b04      	ldr	r3, [sp, #16]
 8006194:	aa10      	add	r2, sp, #64	; 0x40
 8006196:	3b01      	subs	r3, #1
 8006198:	009b      	lsls	r3, r3, #2
 800619a:	589a      	ldr	r2, [r3, r2]
 800619c:	0292      	lsls	r2, r2, #10
 800619e:	0a92      	lsrs	r2, r2, #10
 80061a0:	e7f4      	b.n	800618c <__kernel_rem_pio2+0x30c>
 80061a2:	0099      	lsls	r1, r3, #2
 80061a4:	a810      	add	r0, sp, #64	; 0x40
 80061a6:	5809      	ldr	r1, [r1, r0]
 80061a8:	3b01      	subs	r3, #1
 80061aa:	430a      	orrs	r2, r1
 80061ac:	e7a2      	b.n	80060f4 <__kernel_rem_pio2+0x274>
 80061ae:	46c0      	nop			; (mov r8, r8)
 80061b0:	fffffd8c 	.word	0xfffffd8c
 80061b4:	08006ad0 	.word	0x08006ad0
 80061b8:	40200000 	.word	0x40200000
 80061bc:	00ffffff 	.word	0x00ffffff
 80061c0:	3ff00000 	.word	0x3ff00000
 80061c4:	3e700000 	.word	0x3e700000
 80061c8:	41700000 	.word	0x41700000
 80061cc:	3fe00000 	.word	0x3fe00000
 80061d0:	08006a90 	.word	0x08006a90
 80061d4:	3301      	adds	r3, #1
 80061d6:	990f      	ldr	r1, [sp, #60]	; 0x3c
 80061d8:	009a      	lsls	r2, r3, #2
 80061da:	4252      	negs	r2, r2
 80061dc:	588a      	ldr	r2, [r1, r2]
 80061de:	2a00      	cmp	r2, #0
 80061e0:	d0f8      	beq.n	80061d4 <__kernel_rem_pio2+0x354>
 80061e2:	9a04      	ldr	r2, [sp, #16]
 80061e4:	990c      	ldr	r1, [sp, #48]	; 0x30
 80061e6:	1c57      	adds	r7, r2, #1
 80061e8:	1854      	adds	r4, r2, r1
 80061ea:	00e4      	lsls	r4, r4, #3
 80061ec:	aa24      	add	r2, sp, #144	; 0x90
 80061ee:	1914      	adds	r4, r2, r4
 80061f0:	9a04      	ldr	r2, [sp, #16]
 80061f2:	18d3      	adds	r3, r2, r3
 80061f4:	9304      	str	r3, [sp, #16]
 80061f6:	9b04      	ldr	r3, [sp, #16]
 80061f8:	42bb      	cmp	r3, r7
 80061fa:	da00      	bge.n	80061fe <__kernel_rem_pio2+0x37e>
 80061fc:	e6ae      	b.n	8005f5c <__kernel_rem_pio2+0xdc>
 80061fe:	9a0e      	ldr	r2, [sp, #56]	; 0x38
 8006200:	00bb      	lsls	r3, r7, #2
 8006202:	58d0      	ldr	r0, [r2, r3]
 8006204:	f7fb ff44 	bl	8002090 <__aeabi_i2d>
 8006208:	2200      	movs	r2, #0
 800620a:	2300      	movs	r3, #0
 800620c:	0026      	movs	r6, r4
 800620e:	2500      	movs	r5, #0
 8006210:	6020      	str	r0, [r4, #0]
 8006212:	6061      	str	r1, [r4, #4]
 8006214:	9200      	str	r2, [sp, #0]
 8006216:	9301      	str	r3, [sp, #4]
 8006218:	9b0b      	ldr	r3, [sp, #44]	; 0x2c
 800621a:	429d      	cmp	r5, r3
 800621c:	dd0b      	ble.n	8006236 <__kernel_rem_pio2+0x3b6>
 800621e:	00fb      	lsls	r3, r7, #3
 8006220:	aa74      	add	r2, sp, #464	; 0x1d0
 8006222:	18d3      	adds	r3, r2, r3
 8006224:	3701      	adds	r7, #1
 8006226:	9900      	ldr	r1, [sp, #0]
 8006228:	9a01      	ldr	r2, [sp, #4]
 800622a:	3408      	adds	r4, #8
 800622c:	6019      	str	r1, [r3, #0]
 800622e:	605a      	str	r2, [r3, #4]
 8006230:	e7e1      	b.n	80061f6 <__kernel_rem_pio2+0x376>
 8006232:	2301      	movs	r3, #1
 8006234:	e7cf      	b.n	80061d6 <__kernel_rem_pio2+0x356>
 8006236:	9b0d      	ldr	r3, [sp, #52]	; 0x34
 8006238:	00e9      	lsls	r1, r5, #3
 800623a:	1859      	adds	r1, r3, r1
 800623c:	6808      	ldr	r0, [r1, #0]
 800623e:	6849      	ldr	r1, [r1, #4]
 8006240:	6832      	ldr	r2, [r6, #0]
 8006242:	6873      	ldr	r3, [r6, #4]
 8006244:	f7fb f88c 	bl	8001360 <__aeabi_dmul>
 8006248:	0002      	movs	r2, r0
 800624a:	000b      	movs	r3, r1
 800624c:	9800      	ldr	r0, [sp, #0]
 800624e:	9901      	ldr	r1, [sp, #4]
 8006250:	f7fa f92c 	bl	80004ac <__aeabi_dadd>
 8006254:	3501      	adds	r5, #1
 8006256:	9000      	str	r0, [sp, #0]
 8006258:	9101      	str	r1, [sp, #4]
 800625a:	3e08      	subs	r6, #8
 800625c:	e7dc      	b.n	8006218 <__kernel_rem_pio2+0x398>
 800625e:	9b00      	ldr	r3, [sp, #0]
 8006260:	3b01      	subs	r3, #1
 8006262:	9300      	str	r3, [sp, #0]
 8006264:	e74c      	b.n	8006100 <__kernel_rem_pio2+0x280>
 8006266:	9b02      	ldr	r3, [sp, #8]
 8006268:	0030      	movs	r0, r6
 800626a:	425a      	negs	r2, r3
 800626c:	0039      	movs	r1, r7
 800626e:	f000 f973 	bl	8006558 <scalbn>
 8006272:	2200      	movs	r2, #0
 8006274:	4bb6      	ldr	r3, [pc, #728]	; (8006550 <__kernel_rem_pio2+0x6d0>)
 8006276:	0004      	movs	r4, r0
 8006278:	000d      	movs	r5, r1
 800627a:	f7fa f90d 	bl	8000498 <__aeabi_dcmpge>
 800627e:	2800      	cmp	r0, #0
 8006280:	d025      	beq.n	80062ce <__kernel_rem_pio2+0x44e>
 8006282:	2200      	movs	r2, #0
 8006284:	4bb3      	ldr	r3, [pc, #716]	; (8006554 <__kernel_rem_pio2+0x6d4>)
 8006286:	0020      	movs	r0, r4
 8006288:	0029      	movs	r1, r5
 800628a:	f7fb f869 	bl	8001360 <__aeabi_dmul>
 800628e:	f7fb fec9 	bl	8002024 <__aeabi_d2iz>
 8006292:	9b04      	ldr	r3, [sp, #16]
 8006294:	0006      	movs	r6, r0
 8006296:	009f      	lsls	r7, r3, #2
 8006298:	f7fb fefa 	bl	8002090 <__aeabi_i2d>
 800629c:	2200      	movs	r2, #0
 800629e:	4bac      	ldr	r3, [pc, #688]	; (8006550 <__kernel_rem_pio2+0x6d0>)
 80062a0:	f7fb f85e 	bl	8001360 <__aeabi_dmul>
 80062a4:	0002      	movs	r2, r0
 80062a6:	000b      	movs	r3, r1
 80062a8:	0020      	movs	r0, r4
 80062aa:	0029      	movs	r1, r5
 80062ac:	f7fb fb1a 	bl	80018e4 <__aeabi_dsub>
 80062b0:	f7fb feb8 	bl	8002024 <__aeabi_d2iz>
 80062b4:	ab10      	add	r3, sp, #64	; 0x40
 80062b6:	51d8      	str	r0, [r3, r7]
 80062b8:	9b04      	ldr	r3, [sp, #16]
 80062ba:	aa10      	add	r2, sp, #64	; 0x40
 80062bc:	3301      	adds	r3, #1
 80062be:	9300      	str	r3, [sp, #0]
 80062c0:	9b02      	ldr	r3, [sp, #8]
 80062c2:	3318      	adds	r3, #24
 80062c4:	9302      	str	r3, [sp, #8]
 80062c6:	9b00      	ldr	r3, [sp, #0]
 80062c8:	009b      	lsls	r3, r3, #2
 80062ca:	509e      	str	r6, [r3, r2]
 80062cc:	e722      	b.n	8006114 <__kernel_rem_pio2+0x294>
 80062ce:	9b04      	ldr	r3, [sp, #16]
 80062d0:	0020      	movs	r0, r4
 80062d2:	0029      	movs	r1, r5
 80062d4:	009e      	lsls	r6, r3, #2
 80062d6:	f7fb fea5 	bl	8002024 <__aeabi_d2iz>
 80062da:	ab10      	add	r3, sp, #64	; 0x40
 80062dc:	5198      	str	r0, [r3, r6]
 80062de:	9b04      	ldr	r3, [sp, #16]
 80062e0:	9300      	str	r3, [sp, #0]
 80062e2:	e717      	b.n	8006114 <__kernel_rem_pio2+0x294>
 80062e4:	00e5      	lsls	r5, r4, #3
 80062e6:	ab74      	add	r3, sp, #464	; 0x1d0
 80062e8:	aa10      	add	r2, sp, #64	; 0x40
 80062ea:	195d      	adds	r5, r3, r5
 80062ec:	00a3      	lsls	r3, r4, #2
 80062ee:	5898      	ldr	r0, [r3, r2]
 80062f0:	f7fb fece 	bl	8002090 <__aeabi_i2d>
 80062f4:	0032      	movs	r2, r6
 80062f6:	003b      	movs	r3, r7
 80062f8:	f7fb f832 	bl	8001360 <__aeabi_dmul>
 80062fc:	2200      	movs	r2, #0
 80062fe:	6028      	str	r0, [r5, #0]
 8006300:	6069      	str	r1, [r5, #4]
 8006302:	4b94      	ldr	r3, [pc, #592]	; (8006554 <__kernel_rem_pio2+0x6d4>)
 8006304:	0030      	movs	r0, r6
 8006306:	0039      	movs	r1, r7
 8006308:	f7fb f82a 	bl	8001360 <__aeabi_dmul>
 800630c:	3c01      	subs	r4, #1
 800630e:	0006      	movs	r6, r0
 8006310:	000f      	movs	r7, r1
 8006312:	e707      	b.n	8006124 <__kernel_rem_pio2+0x2a4>
 8006314:	9b0b      	ldr	r3, [sp, #44]	; 0x2c
 8006316:	9802      	ldr	r0, [sp, #8]
 8006318:	00e9      	lsls	r1, r5, #3
 800631a:	1859      	adds	r1, r3, r1
 800631c:	c80c      	ldmia	r0!, {r2, r3}
 800631e:	9002      	str	r0, [sp, #8]
 8006320:	6808      	ldr	r0, [r1, #0]
 8006322:	6849      	ldr	r1, [r1, #4]
 8006324:	f7fb f81c 	bl	8001360 <__aeabi_dmul>
 8006328:	0002      	movs	r2, r0
 800632a:	000b      	movs	r3, r1
 800632c:	0030      	movs	r0, r6
 800632e:	0039      	movs	r1, r7
 8006330:	f7fa f8bc 	bl	80004ac <__aeabi_dadd>
 8006334:	0006      	movs	r6, r0
 8006336:	000f      	movs	r7, r1
 8006338:	3501      	adds	r5, #1
 800633a:	9b08      	ldr	r3, [sp, #32]
 800633c:	429d      	cmp	r5, r3
 800633e:	dc02      	bgt.n	8006346 <__kernel_rem_pio2+0x4c6>
 8006340:	9b04      	ldr	r3, [sp, #16]
 8006342:	429d      	cmp	r5, r3
 8006344:	dde6      	ble.n	8006314 <__kernel_rem_pio2+0x494>
 8006346:	9b04      	ldr	r3, [sp, #16]
 8006348:	aa4c      	add	r2, sp, #304	; 0x130
 800634a:	00db      	lsls	r3, r3, #3
 800634c:	18d3      	adds	r3, r2, r3
 800634e:	601e      	str	r6, [r3, #0]
 8006350:	605f      	str	r7, [r3, #4]
 8006352:	3c01      	subs	r4, #1
 8006354:	e6ec      	b.n	8006130 <__kernel_rem_pio2+0x2b0>
 8006356:	9ba2      	ldr	r3, [sp, #648]	; 0x288
 8006358:	2b02      	cmp	r3, #2
 800635a:	dc0e      	bgt.n	800637a <__kernel_rem_pio2+0x4fa>
 800635c:	2b00      	cmp	r3, #0
 800635e:	dd00      	ble.n	8006362 <__kernel_rem_pio2+0x4e2>
 8006360:	e08c      	b.n	800647c <__kernel_rem_pio2+0x5fc>
 8006362:	2500      	movs	r5, #0
 8006364:	002c      	movs	r4, r5
 8006366:	42ab      	cmp	r3, r5
 8006368:	d046      	beq.n	80063f8 <__kernel_rem_pio2+0x578>
 800636a:	2007      	movs	r0, #7
 800636c:	9b0a      	ldr	r3, [sp, #40]	; 0x28
 800636e:	4003      	ands	r3, r0
 8006370:	0018      	movs	r0, r3
 8006372:	239d      	movs	r3, #157	; 0x9d
 8006374:	009b      	lsls	r3, r3, #2
 8006376:	449d      	add	sp, r3
 8006378:	bdf0      	pop	{r4, r5, r6, r7, pc}
 800637a:	9ba2      	ldr	r3, [sp, #648]	; 0x288
 800637c:	2b03      	cmp	r3, #3
 800637e:	d1f4      	bne.n	800636a <__kernel_rem_pio2+0x4ea>
 8006380:	9b00      	ldr	r3, [sp, #0]
 8006382:	aa4c      	add	r2, sp, #304	; 0x130
 8006384:	00db      	lsls	r3, r3, #3
 8006386:	18d4      	adds	r4, r2, r3
 8006388:	0025      	movs	r5, r4
 800638a:	9b00      	ldr	r3, [sp, #0]
 800638c:	9302      	str	r3, [sp, #8]
 800638e:	9b02      	ldr	r3, [sp, #8]
 8006390:	3d08      	subs	r5, #8
 8006392:	2b00      	cmp	r3, #0
 8006394:	dd00      	ble.n	8006398 <__kernel_rem_pio2+0x518>
 8006396:	e07f      	b.n	8006498 <__kernel_rem_pio2+0x618>
 8006398:	9d00      	ldr	r5, [sp, #0]
 800639a:	3c08      	subs	r4, #8
 800639c:	2d01      	cmp	r5, #1
 800639e:	dd00      	ble.n	80063a2 <__kernel_rem_pio2+0x522>
 80063a0:	e09c      	b.n	80064dc <__kernel_rem_pio2+0x65c>
 80063a2:	2400      	movs	r4, #0
 80063a4:	0021      	movs	r1, r4
 80063a6:	9b00      	ldr	r3, [sp, #0]
 80063a8:	2b01      	cmp	r3, #1
 80063aa:	dd00      	ble.n	80063ae <__kernel_rem_pio2+0x52e>
 80063ac:	e0b4      	b.n	8006518 <__kernel_rem_pio2+0x698>
 80063ae:	9b07      	ldr	r3, [sp, #28]
 80063b0:	9f4c      	ldr	r7, [sp, #304]	; 0x130
 80063b2:	9e4d      	ldr	r6, [sp, #308]	; 0x134
 80063b4:	9d4e      	ldr	r5, [sp, #312]	; 0x138
 80063b6:	984f      	ldr	r0, [sp, #316]	; 0x13c
 80063b8:	2b00      	cmp	r3, #0
 80063ba:	d000      	beq.n	80063be <__kernel_rem_pio2+0x53e>
 80063bc:	e0ba      	b.n	8006534 <__kernel_rem_pio2+0x6b4>
 80063be:	0033      	movs	r3, r6
 80063c0:	003a      	movs	r2, r7
 80063c2:	9e06      	ldr	r6, [sp, #24]
 80063c4:	6032      	str	r2, [r6, #0]
 80063c6:	6073      	str	r3, [r6, #4]
 80063c8:	002a      	movs	r2, r5
 80063ca:	0003      	movs	r3, r0
 80063cc:	60b2      	str	r2, [r6, #8]
 80063ce:	60f3      	str	r3, [r6, #12]
 80063d0:	0022      	movs	r2, r4
 80063d2:	000b      	movs	r3, r1
 80063d4:	6132      	str	r2, [r6, #16]
 80063d6:	6173      	str	r3, [r6, #20]
 80063d8:	e7c7      	b.n	800636a <__kernel_rem_pio2+0x4ea>
 80063da:	9b00      	ldr	r3, [sp, #0]
 80063dc:	aa4c      	add	r2, sp, #304	; 0x130
 80063de:	00db      	lsls	r3, r3, #3
 80063e0:	18d3      	adds	r3, r2, r3
 80063e2:	0028      	movs	r0, r5
 80063e4:	681a      	ldr	r2, [r3, #0]
 80063e6:	685b      	ldr	r3, [r3, #4]
 80063e8:	0021      	movs	r1, r4
 80063ea:	f7fa f85f 	bl	80004ac <__aeabi_dadd>
 80063ee:	0005      	movs	r5, r0
 80063f0:	000c      	movs	r4, r1
 80063f2:	9b00      	ldr	r3, [sp, #0]
 80063f4:	3b01      	subs	r3, #1
 80063f6:	9300      	str	r3, [sp, #0]
 80063f8:	9b00      	ldr	r3, [sp, #0]
 80063fa:	2b00      	cmp	r3, #0
 80063fc:	daed      	bge.n	80063da <__kernel_rem_pio2+0x55a>
 80063fe:	9b07      	ldr	r3, [sp, #28]
 8006400:	2b00      	cmp	r3, #0
 8006402:	d002      	beq.n	800640a <__kernel_rem_pio2+0x58a>
 8006404:	2380      	movs	r3, #128	; 0x80
 8006406:	061b      	lsls	r3, r3, #24
 8006408:	18e4      	adds	r4, r4, r3
 800640a:	002a      	movs	r2, r5
 800640c:	0023      	movs	r3, r4
 800640e:	9906      	ldr	r1, [sp, #24]
 8006410:	600a      	str	r2, [r1, #0]
 8006412:	604b      	str	r3, [r1, #4]
 8006414:	e7a9      	b.n	800636a <__kernel_rem_pio2+0x4ea>
 8006416:	00e3      	lsls	r3, r4, #3
 8006418:	aa4c      	add	r2, sp, #304	; 0x130
 800641a:	18d3      	adds	r3, r2, r3
 800641c:	0030      	movs	r0, r6
 800641e:	681a      	ldr	r2, [r3, #0]
 8006420:	685b      	ldr	r3, [r3, #4]
 8006422:	0029      	movs	r1, r5
 8006424:	f7fa f842 	bl	80004ac <__aeabi_dadd>
 8006428:	0006      	movs	r6, r0
 800642a:	000d      	movs	r5, r1
 800642c:	3c01      	subs	r4, #1
 800642e:	2c00      	cmp	r4, #0
 8006430:	daf1      	bge.n	8006416 <__kernel_rem_pio2+0x596>
 8006432:	9b07      	ldr	r3, [sp, #28]
 8006434:	0029      	movs	r1, r5
 8006436:	2b00      	cmp	r3, #0
 8006438:	d002      	beq.n	8006440 <__kernel_rem_pio2+0x5c0>
 800643a:	2380      	movs	r3, #128	; 0x80
 800643c:	061b      	lsls	r3, r3, #24
 800643e:	18e9      	adds	r1, r5, r3
 8006440:	0032      	movs	r2, r6
 8006442:	000b      	movs	r3, r1
 8006444:	9906      	ldr	r1, [sp, #24]
 8006446:	2401      	movs	r4, #1
 8006448:	600a      	str	r2, [r1, #0]
 800644a:	604b      	str	r3, [r1, #4]
 800644c:	984c      	ldr	r0, [sp, #304]	; 0x130
 800644e:	994d      	ldr	r1, [sp, #308]	; 0x134
 8006450:	002b      	movs	r3, r5
 8006452:	f7fb fa47 	bl	80018e4 <__aeabi_dsub>
 8006456:	0007      	movs	r7, r0
 8006458:	000e      	movs	r6, r1
 800645a:	ad4c      	add	r5, sp, #304	; 0x130
 800645c:	9b00      	ldr	r3, [sp, #0]
 800645e:	3508      	adds	r5, #8
 8006460:	42a3      	cmp	r3, r4
 8006462:	da0f      	bge.n	8006484 <__kernel_rem_pio2+0x604>
 8006464:	9b07      	ldr	r3, [sp, #28]
 8006466:	2b00      	cmp	r3, #0
 8006468:	d002      	beq.n	8006470 <__kernel_rem_pio2+0x5f0>
 800646a:	2380      	movs	r3, #128	; 0x80
 800646c:	061b      	lsls	r3, r3, #24
 800646e:	18f6      	adds	r6, r6, r3
 8006470:	003a      	movs	r2, r7
 8006472:	0033      	movs	r3, r6
 8006474:	9906      	ldr	r1, [sp, #24]
 8006476:	608a      	str	r2, [r1, #8]
 8006478:	60cb      	str	r3, [r1, #12]
 800647a:	e776      	b.n	800636a <__kernel_rem_pio2+0x4ea>
 800647c:	2600      	movs	r6, #0
 800647e:	9c00      	ldr	r4, [sp, #0]
 8006480:	0035      	movs	r5, r6
 8006482:	e7d4      	b.n	800642e <__kernel_rem_pio2+0x5ae>
 8006484:	0038      	movs	r0, r7
 8006486:	682a      	ldr	r2, [r5, #0]
 8006488:	686b      	ldr	r3, [r5, #4]
 800648a:	0031      	movs	r1, r6
 800648c:	f7fa f80e 	bl	80004ac <__aeabi_dadd>
 8006490:	3401      	adds	r4, #1
 8006492:	0007      	movs	r7, r0
 8006494:	000e      	movs	r6, r1
 8006496:	e7e1      	b.n	800645c <__kernel_rem_pio2+0x5dc>
 8006498:	9b02      	ldr	r3, [sp, #8]
 800649a:	68ae      	ldr	r6, [r5, #8]
 800649c:	68ef      	ldr	r7, [r5, #12]
 800649e:	3b01      	subs	r3, #1
 80064a0:	9302      	str	r3, [sp, #8]
 80064a2:	682a      	ldr	r2, [r5, #0]
 80064a4:	686b      	ldr	r3, [r5, #4]
 80064a6:	9204      	str	r2, [sp, #16]
 80064a8:	9305      	str	r3, [sp, #20]
 80064aa:	9804      	ldr	r0, [sp, #16]
 80064ac:	9905      	ldr	r1, [sp, #20]
 80064ae:	0032      	movs	r2, r6
 80064b0:	003b      	movs	r3, r7
 80064b2:	f7f9 fffb 	bl	80004ac <__aeabi_dadd>
 80064b6:	0002      	movs	r2, r0
 80064b8:	000b      	movs	r3, r1
 80064ba:	9008      	str	r0, [sp, #32]
 80064bc:	9109      	str	r1, [sp, #36]	; 0x24
 80064be:	9804      	ldr	r0, [sp, #16]
 80064c0:	9905      	ldr	r1, [sp, #20]
 80064c2:	f7fb fa0f 	bl	80018e4 <__aeabi_dsub>
 80064c6:	0032      	movs	r2, r6
 80064c8:	003b      	movs	r3, r7
 80064ca:	f7f9 ffef 	bl	80004ac <__aeabi_dadd>
 80064ce:	9a08      	ldr	r2, [sp, #32]
 80064d0:	9b09      	ldr	r3, [sp, #36]	; 0x24
 80064d2:	60a8      	str	r0, [r5, #8]
 80064d4:	60e9      	str	r1, [r5, #12]
 80064d6:	602a      	str	r2, [r5, #0]
 80064d8:	606b      	str	r3, [r5, #4]
 80064da:	e758      	b.n	800638e <__kernel_rem_pio2+0x50e>
 80064dc:	6826      	ldr	r6, [r4, #0]
 80064de:	6867      	ldr	r7, [r4, #4]
 80064e0:	68a2      	ldr	r2, [r4, #8]
 80064e2:	68e3      	ldr	r3, [r4, #12]
 80064e4:	0030      	movs	r0, r6
 80064e6:	0039      	movs	r1, r7
 80064e8:	9202      	str	r2, [sp, #8]
 80064ea:	9303      	str	r3, [sp, #12]
 80064ec:	f7f9 ffde 	bl	80004ac <__aeabi_dadd>
 80064f0:	0002      	movs	r2, r0
 80064f2:	000b      	movs	r3, r1
 80064f4:	9004      	str	r0, [sp, #16]
 80064f6:	9105      	str	r1, [sp, #20]
 80064f8:	0030      	movs	r0, r6
 80064fa:	0039      	movs	r1, r7
 80064fc:	f7fb f9f2 	bl	80018e4 <__aeabi_dsub>
 8006500:	9a02      	ldr	r2, [sp, #8]
 8006502:	9b03      	ldr	r3, [sp, #12]
 8006504:	f7f9 ffd2 	bl	80004ac <__aeabi_dadd>
 8006508:	9a04      	ldr	r2, [sp, #16]
 800650a:	9b05      	ldr	r3, [sp, #20]
 800650c:	60a0      	str	r0, [r4, #8]
 800650e:	60e1      	str	r1, [r4, #12]
 8006510:	6022      	str	r2, [r4, #0]
 8006512:	6063      	str	r3, [r4, #4]
 8006514:	3d01      	subs	r5, #1
 8006516:	e740      	b.n	800639a <__kernel_rem_pio2+0x51a>
 8006518:	9b00      	ldr	r3, [sp, #0]
 800651a:	aa4c      	add	r2, sp, #304	; 0x130
 800651c:	00db      	lsls	r3, r3, #3
 800651e:	18d3      	adds	r3, r2, r3
 8006520:	0020      	movs	r0, r4
 8006522:	681a      	ldr	r2, [r3, #0]
 8006524:	685b      	ldr	r3, [r3, #4]
 8006526:	f7f9 ffc1 	bl	80004ac <__aeabi_dadd>
 800652a:	9b00      	ldr	r3, [sp, #0]
 800652c:	0004      	movs	r4, r0
 800652e:	3b01      	subs	r3, #1
 8006530:	9300      	str	r3, [sp, #0]
 8006532:	e738      	b.n	80063a6 <__kernel_rem_pio2+0x526>
 8006534:	9b06      	ldr	r3, [sp, #24]
 8006536:	9a06      	ldr	r2, [sp, #24]
 8006538:	601f      	str	r7, [r3, #0]
 800653a:	2380      	movs	r3, #128	; 0x80
 800653c:	061b      	lsls	r3, r3, #24
 800653e:	18f6      	adds	r6, r6, r3
 8006540:	18c0      	adds	r0, r0, r3
 8006542:	18c9      	adds	r1, r1, r3
 8006544:	6056      	str	r6, [r2, #4]
 8006546:	6095      	str	r5, [r2, #8]
 8006548:	60d0      	str	r0, [r2, #12]
 800654a:	6114      	str	r4, [r2, #16]
 800654c:	6151      	str	r1, [r2, #20]
 800654e:	e70c      	b.n	800636a <__kernel_rem_pio2+0x4ea>
 8006550:	41700000 	.word	0x41700000
 8006554:	3e700000 	.word	0x3e700000

08006558 <scalbn>:
 8006558:	b570      	push	{r4, r5, r6, lr}
 800655a:	0014      	movs	r4, r2
 800655c:	004a      	lsls	r2, r1, #1
 800655e:	000b      	movs	r3, r1
 8006560:	0d52      	lsrs	r2, r2, #21
 8006562:	d10f      	bne.n	8006584 <scalbn+0x2c>
 8006564:	004b      	lsls	r3, r1, #1
 8006566:	085b      	lsrs	r3, r3, #1
 8006568:	4303      	orrs	r3, r0
 800656a:	d011      	beq.n	8006590 <scalbn+0x38>
 800656c:	4b22      	ldr	r3, [pc, #136]	; (80065f8 <scalbn+0xa0>)
 800656e:	2200      	movs	r2, #0
 8006570:	f7fa fef6 	bl	8001360 <__aeabi_dmul>
 8006574:	4b21      	ldr	r3, [pc, #132]	; (80065fc <scalbn+0xa4>)
 8006576:	429c      	cmp	r4, r3
 8006578:	da0b      	bge.n	8006592 <scalbn+0x3a>
 800657a:	4a21      	ldr	r2, [pc, #132]	; (8006600 <scalbn+0xa8>)
 800657c:	4b21      	ldr	r3, [pc, #132]	; (8006604 <scalbn+0xac>)
 800657e:	f7fa feef 	bl	8001360 <__aeabi_dmul>
 8006582:	e005      	b.n	8006590 <scalbn+0x38>
 8006584:	4d20      	ldr	r5, [pc, #128]	; (8006608 <scalbn+0xb0>)
 8006586:	42aa      	cmp	r2, r5
 8006588:	d107      	bne.n	800659a <scalbn+0x42>
 800658a:	0002      	movs	r2, r0
 800658c:	f7f9 ff8e 	bl	80004ac <__aeabi_dadd>
 8006590:	bd70      	pop	{r4, r5, r6, pc}
 8006592:	000b      	movs	r3, r1
 8006594:	004a      	lsls	r2, r1, #1
 8006596:	0d52      	lsrs	r2, r2, #21
 8006598:	3a36      	subs	r2, #54	; 0x36
 800659a:	4d1c      	ldr	r5, [pc, #112]	; (800660c <scalbn+0xb4>)
 800659c:	42ac      	cmp	r4, r5
 800659e:	dd0a      	ble.n	80065b6 <scalbn+0x5e>
 80065a0:	4c1b      	ldr	r4, [pc, #108]	; (8006610 <scalbn+0xb8>)
 80065a2:	4d1c      	ldr	r5, [pc, #112]	; (8006614 <scalbn+0xbc>)
 80065a4:	2900      	cmp	r1, #0
 80065a6:	da01      	bge.n	80065ac <scalbn+0x54>
 80065a8:	4c19      	ldr	r4, [pc, #100]	; (8006610 <scalbn+0xb8>)
 80065aa:	4d1b      	ldr	r5, [pc, #108]	; (8006618 <scalbn+0xc0>)
 80065ac:	4a18      	ldr	r2, [pc, #96]	; (8006610 <scalbn+0xb8>)
 80065ae:	4b19      	ldr	r3, [pc, #100]	; (8006614 <scalbn+0xbc>)
 80065b0:	0020      	movs	r0, r4
 80065b2:	0029      	movs	r1, r5
 80065b4:	e7e3      	b.n	800657e <scalbn+0x26>
 80065b6:	18a2      	adds	r2, r4, r2
 80065b8:	4c18      	ldr	r4, [pc, #96]	; (800661c <scalbn+0xc4>)
 80065ba:	42a2      	cmp	r2, r4
 80065bc:	dcf0      	bgt.n	80065a0 <scalbn+0x48>
 80065be:	2a00      	cmp	r2, #0
 80065c0:	dd05      	ble.n	80065ce <scalbn+0x76>
 80065c2:	4c17      	ldr	r4, [pc, #92]	; (8006620 <scalbn+0xc8>)
 80065c4:	0512      	lsls	r2, r2, #20
 80065c6:	4023      	ands	r3, r4
 80065c8:	4313      	orrs	r3, r2
 80065ca:	0019      	movs	r1, r3
 80065cc:	e7e0      	b.n	8006590 <scalbn+0x38>
 80065ce:	0014      	movs	r4, r2
 80065d0:	3435      	adds	r4, #53	; 0x35
 80065d2:	da08      	bge.n	80065e6 <scalbn+0x8e>
 80065d4:	4c0a      	ldr	r4, [pc, #40]	; (8006600 <scalbn+0xa8>)
 80065d6:	4d0b      	ldr	r5, [pc, #44]	; (8006604 <scalbn+0xac>)
 80065d8:	2900      	cmp	r1, #0
 80065da:	da01      	bge.n	80065e0 <scalbn+0x88>
 80065dc:	4c08      	ldr	r4, [pc, #32]	; (8006600 <scalbn+0xa8>)
 80065de:	4d11      	ldr	r5, [pc, #68]	; (8006624 <scalbn+0xcc>)
 80065e0:	4a07      	ldr	r2, [pc, #28]	; (8006600 <scalbn+0xa8>)
 80065e2:	4b08      	ldr	r3, [pc, #32]	; (8006604 <scalbn+0xac>)
 80065e4:	e7e4      	b.n	80065b0 <scalbn+0x58>
 80065e6:	4c0e      	ldr	r4, [pc, #56]	; (8006620 <scalbn+0xc8>)
 80065e8:	3236      	adds	r2, #54	; 0x36
 80065ea:	4023      	ands	r3, r4
 80065ec:	0512      	lsls	r2, r2, #20
 80065ee:	431a      	orrs	r2, r3
 80065f0:	0011      	movs	r1, r2
 80065f2:	4b0d      	ldr	r3, [pc, #52]	; (8006628 <scalbn+0xd0>)
 80065f4:	2200      	movs	r2, #0
 80065f6:	e7c2      	b.n	800657e <scalbn+0x26>
 80065f8:	43500000 	.word	0x43500000
 80065fc:	ffff3cb0 	.word	0xffff3cb0
 8006600:	c2f8f359 	.word	0xc2f8f359
 8006604:	01a56e1f 	.word	0x01a56e1f
 8006608:	000007ff 	.word	0x000007ff
 800660c:	0000c350 	.word	0x0000c350
 8006610:	8800759c 	.word	0x8800759c
 8006614:	7e37e43c 	.word	0x7e37e43c
 8006618:	fe37e43c 	.word	0xfe37e43c
 800661c:	000007fe 	.word	0x000007fe
 8006620:	800fffff 	.word	0x800fffff
 8006624:	81a56e1f 	.word	0x81a56e1f
 8006628:	3c900000 	.word	0x3c900000

0800662c <floor>:
 800662c:	b5f7      	push	{r0, r1, r2, r4, r5, r6, r7, lr}
 800662e:	004b      	lsls	r3, r1, #1
 8006630:	4a3e      	ldr	r2, [pc, #248]	; (800672c <floor+0x100>)
 8006632:	0d5b      	lsrs	r3, r3, #21
 8006634:	189f      	adds	r7, r3, r2
 8006636:	4684      	mov	ip, r0
 8006638:	000e      	movs	r6, r1
 800663a:	000c      	movs	r4, r1
 800663c:	0005      	movs	r5, r0
 800663e:	9001      	str	r0, [sp, #4]
 8006640:	2f13      	cmp	r7, #19
 8006642:	dc34      	bgt.n	80066ae <floor+0x82>
 8006644:	2f00      	cmp	r7, #0
 8006646:	da16      	bge.n	8006676 <floor+0x4a>
 8006648:	4a39      	ldr	r2, [pc, #228]	; (8006730 <floor+0x104>)
 800664a:	4b3a      	ldr	r3, [pc, #232]	; (8006734 <floor+0x108>)
 800664c:	4660      	mov	r0, ip
 800664e:	0031      	movs	r1, r6
 8006650:	f7f9 ff2c 	bl	80004ac <__aeabi_dadd>
 8006654:	2200      	movs	r2, #0
 8006656:	2300      	movs	r3, #0
 8006658:	f7f9 ff14 	bl	8000484 <__aeabi_dcmpgt>
 800665c:	2800      	cmp	r0, #0
 800665e:	d007      	beq.n	8006670 <floor+0x44>
 8006660:	2e00      	cmp	r6, #0
 8006662:	da5d      	bge.n	8006720 <floor+0xf4>
 8006664:	0074      	lsls	r4, r6, #1
 8006666:	0864      	lsrs	r4, r4, #1
 8006668:	4325      	orrs	r5, r4
 800666a:	d05c      	beq.n	8006726 <floor+0xfa>
 800666c:	2500      	movs	r5, #0
 800666e:	4c32      	ldr	r4, [pc, #200]	; (8006738 <floor+0x10c>)
 8006670:	46ac      	mov	ip, r5
 8006672:	0026      	movs	r6, r4
 8006674:	e029      	b.n	80066ca <floor+0x9e>
 8006676:	4b31      	ldr	r3, [pc, #196]	; (800673c <floor+0x110>)
 8006678:	413b      	asrs	r3, r7
 800667a:	9300      	str	r3, [sp, #0]
 800667c:	400b      	ands	r3, r1
 800667e:	4303      	orrs	r3, r0
 8006680:	d023      	beq.n	80066ca <floor+0x9e>
 8006682:	4a2b      	ldr	r2, [pc, #172]	; (8006730 <floor+0x104>)
 8006684:	4b2b      	ldr	r3, [pc, #172]	; (8006734 <floor+0x108>)
 8006686:	4660      	mov	r0, ip
 8006688:	0031      	movs	r1, r6
 800668a:	f7f9 ff0f 	bl	80004ac <__aeabi_dadd>
 800668e:	2200      	movs	r2, #0
 8006690:	2300      	movs	r3, #0
 8006692:	f7f9 fef7 	bl	8000484 <__aeabi_dcmpgt>
 8006696:	2800      	cmp	r0, #0
 8006698:	d0ea      	beq.n	8006670 <floor+0x44>
 800669a:	2e00      	cmp	r6, #0
 800669c:	da03      	bge.n	80066a6 <floor+0x7a>
 800669e:	2380      	movs	r3, #128	; 0x80
 80066a0:	035b      	lsls	r3, r3, #13
 80066a2:	413b      	asrs	r3, r7
 80066a4:	18f4      	adds	r4, r6, r3
 80066a6:	9b00      	ldr	r3, [sp, #0]
 80066a8:	2500      	movs	r5, #0
 80066aa:	439c      	bics	r4, r3
 80066ac:	e7e0      	b.n	8006670 <floor+0x44>
 80066ae:	2f33      	cmp	r7, #51	; 0x33
 80066b0:	dd0f      	ble.n	80066d2 <floor+0xa6>
 80066b2:	2380      	movs	r3, #128	; 0x80
 80066b4:	00db      	lsls	r3, r3, #3
 80066b6:	429f      	cmp	r7, r3
 80066b8:	d107      	bne.n	80066ca <floor+0x9e>
 80066ba:	0002      	movs	r2, r0
 80066bc:	000b      	movs	r3, r1
 80066be:	4660      	mov	r0, ip
 80066c0:	0031      	movs	r1, r6
 80066c2:	f7f9 fef3 	bl	80004ac <__aeabi_dadd>
 80066c6:	4684      	mov	ip, r0
 80066c8:	000e      	movs	r6, r1
 80066ca:	4660      	mov	r0, ip
 80066cc:	0031      	movs	r1, r6
 80066ce:	b003      	add	sp, #12
 80066d0:	bdf0      	pop	{r4, r5, r6, r7, pc}
 80066d2:	4a1b      	ldr	r2, [pc, #108]	; (8006740 <floor+0x114>)
 80066d4:	189b      	adds	r3, r3, r2
 80066d6:	2201      	movs	r2, #1
 80066d8:	4252      	negs	r2, r2
 80066da:	40da      	lsrs	r2, r3
 80066dc:	9200      	str	r2, [sp, #0]
 80066de:	4202      	tst	r2, r0
 80066e0:	d0f3      	beq.n	80066ca <floor+0x9e>
 80066e2:	4a13      	ldr	r2, [pc, #76]	; (8006730 <floor+0x104>)
 80066e4:	4b13      	ldr	r3, [pc, #76]	; (8006734 <floor+0x108>)
 80066e6:	4660      	mov	r0, ip
 80066e8:	0031      	movs	r1, r6
 80066ea:	f7f9 fedf 	bl	80004ac <__aeabi_dadd>
 80066ee:	2200      	movs	r2, #0
 80066f0:	2300      	movs	r3, #0
 80066f2:	f7f9 fec7 	bl	8000484 <__aeabi_dcmpgt>
 80066f6:	2800      	cmp	r0, #0
 80066f8:	d0ba      	beq.n	8006670 <floor+0x44>
 80066fa:	2e00      	cmp	r6, #0
 80066fc:	da02      	bge.n	8006704 <floor+0xd8>
 80066fe:	2f14      	cmp	r7, #20
 8006700:	d103      	bne.n	800670a <floor+0xde>
 8006702:	3401      	adds	r4, #1
 8006704:	9b00      	ldr	r3, [sp, #0]
 8006706:	439d      	bics	r5, r3
 8006708:	e7b2      	b.n	8006670 <floor+0x44>
 800670a:	2234      	movs	r2, #52	; 0x34
 800670c:	2301      	movs	r3, #1
 800670e:	1bd2      	subs	r2, r2, r7
 8006710:	4093      	lsls	r3, r2
 8006712:	18ed      	adds	r5, r5, r3
 8006714:	9b01      	ldr	r3, [sp, #4]
 8006716:	429d      	cmp	r5, r3
 8006718:	419b      	sbcs	r3, r3
 800671a:	425b      	negs	r3, r3
 800671c:	18f4      	adds	r4, r6, r3
 800671e:	e7f1      	b.n	8006704 <floor+0xd8>
 8006720:	2500      	movs	r5, #0
 8006722:	002c      	movs	r4, r5
 8006724:	e7a4      	b.n	8006670 <floor+0x44>
 8006726:	2480      	movs	r4, #128	; 0x80
 8006728:	0624      	lsls	r4, r4, #24
 800672a:	e7a1      	b.n	8006670 <floor+0x44>
 800672c:	fffffc01 	.word	0xfffffc01
 8006730:	8800759c 	.word	0x8800759c
 8006734:	7e37e43c 	.word	0x7e37e43c
 8006738:	bff00000 	.word	0xbff00000
 800673c:	000fffff 	.word	0x000fffff
 8006740:	fffffbed 	.word	0xfffffbed

08006744 <memset>:
 8006744:	0003      	movs	r3, r0
 8006746:	1882      	adds	r2, r0, r2
 8006748:	4293      	cmp	r3, r2
 800674a:	d100      	bne.n	800674e <memset+0xa>
 800674c:	4770      	bx	lr
 800674e:	7019      	strb	r1, [r3, #0]
 8006750:	3301      	adds	r3, #1
 8006752:	e7f9      	b.n	8006748 <memset+0x4>

08006754 <__errno>:
 8006754:	4b01      	ldr	r3, [pc, #4]	; (800675c <__errno+0x8>)
 8006756:	6818      	ldr	r0, [r3, #0]
 8006758:	4770      	bx	lr
 800675a:	46c0      	nop			; (mov r8, r8)
 800675c:	2000006c 	.word	0x2000006c

08006760 <__libc_init_array>:
 8006760:	b570      	push	{r4, r5, r6, lr}
 8006762:	2600      	movs	r6, #0
 8006764:	4c0c      	ldr	r4, [pc, #48]	; (8006798 <__libc_init_array+0x38>)
 8006766:	4d0d      	ldr	r5, [pc, #52]	; (800679c <__libc_init_array+0x3c>)
 8006768:	1b64      	subs	r4, r4, r5
 800676a:	10a4      	asrs	r4, r4, #2
 800676c:	42a6      	cmp	r6, r4
 800676e:	d109      	bne.n	8006784 <__libc_init_array+0x24>
 8006770:	2600      	movs	r6, #0
 8006772:	f000 f819 	bl	80067a8 <_init>
 8006776:	4c0a      	ldr	r4, [pc, #40]	; (80067a0 <__libc_init_array+0x40>)
 8006778:	4d0a      	ldr	r5, [pc, #40]	; (80067a4 <__libc_init_array+0x44>)
 800677a:	1b64      	subs	r4, r4, r5
 800677c:	10a4      	asrs	r4, r4, #2
 800677e:	42a6      	cmp	r6, r4
 8006780:	d105      	bne.n	800678e <__libc_init_array+0x2e>
 8006782:	bd70      	pop	{r4, r5, r6, pc}
 8006784:	00b3      	lsls	r3, r6, #2
 8006786:	58eb      	ldr	r3, [r5, r3]
 8006788:	4798      	blx	r3
 800678a:	3601      	adds	r6, #1
 800678c:	e7ee      	b.n	800676c <__libc_init_array+0xc>
 800678e:	00b3      	lsls	r3, r6, #2
 8006790:	58eb      	ldr	r3, [r5, r3]
 8006792:	4798      	blx	r3
 8006794:	3601      	adds	r6, #1
 8006796:	e7f2      	b.n	800677e <__libc_init_array+0x1e>
 8006798:	08006ae0 	.word	0x08006ae0
 800679c:	08006ae0 	.word	0x08006ae0
 80067a0:	08006ae4 	.word	0x08006ae4
 80067a4:	08006ae0 	.word	0x08006ae0

080067a8 <_init>:
 80067a8:	b5f8      	push	{r3, r4, r5, r6, r7, lr}
 80067aa:	46c0      	nop			; (mov r8, r8)
 80067ac:	bcf8      	pop	{r3, r4, r5, r6, r7}
 80067ae:	bc08      	pop	{r3}
 80067b0:	469e      	mov	lr, r3
 80067b2:	4770      	bx	lr

080067b4 <_fini>:
 80067b4:	b5f8      	push	{r3, r4, r5, r6, r7, lr}
 80067b6:	46c0      	nop			; (mov r8, r8)
 80067b8:	bcf8      	pop	{r3, r4, r5, r6, r7}
 80067ba:	bc08      	pop	{r3}
 80067bc:	469e      	mov	lr, r3
 80067be:	4770      	bx	lr
